ARM GAS  C:\Users\YongY\AppData\Local\Temp\ccMwH7lk.s 			page 1


   1              		.syntax unified
   2              		.cpu cortex-m3
   3              		.fpu softvfp
   4              		.eabi_attribute 20, 1
   5              		.eabi_attribute 21, 1
   6              		.eabi_attribute 23, 3
   7              		.eabi_attribute 24, 1
   8              		.eabi_attribute 25, 1
   9              		.eabi_attribute 26, 1
  10              		.eabi_attribute 30, 1
  11              		.eabi_attribute 34, 1
  12              		.eabi_attribute 18, 4
  13              		.thumb
  14              		.file	"ADC_SOUND_IN.c"
  15              		.text
  16              	.Ltext0:
  17              		.cfi_sections	.debug_frame
  18              		.section	.text.ADC_SOUND_IN_GainCompensation,"ax",%progbits
  19              		.align	2
  20              		.thumb
  21              		.thumb_func
  22              		.type	ADC_SOUND_IN_GainCompensation, %function
  23              	ADC_SOUND_IN_GainCompensation:
  24              	.LFB21:
  25              		.file 1 ".\\Generated_Source\\PSoC5\\ADC_SOUND_IN.c"
   1:.\Generated_Source\PSoC5/ADC_SOUND_IN.c **** /*******************************************************************************
   2:.\Generated_Source\PSoC5/ADC_SOUND_IN.c **** * File Name: ADC_SOUND_IN.c
   3:.\Generated_Source\PSoC5/ADC_SOUND_IN.c **** * Version 3.20
   4:.\Generated_Source\PSoC5/ADC_SOUND_IN.c **** *
   5:.\Generated_Source\PSoC5/ADC_SOUND_IN.c **** * Description:
   6:.\Generated_Source\PSoC5/ADC_SOUND_IN.c **** *  This file provides the source code to the API for the Delta-Sigma ADC
   7:.\Generated_Source\PSoC5/ADC_SOUND_IN.c **** *  Component.
   8:.\Generated_Source\PSoC5/ADC_SOUND_IN.c **** *
   9:.\Generated_Source\PSoC5/ADC_SOUND_IN.c **** * Note:
  10:.\Generated_Source\PSoC5/ADC_SOUND_IN.c **** *
  11:.\Generated_Source\PSoC5/ADC_SOUND_IN.c **** ********************************************************************************
  12:.\Generated_Source\PSoC5/ADC_SOUND_IN.c **** * Copyright 2008-2015, Cypress Semiconductor Corporation.  All rights reserved.
  13:.\Generated_Source\PSoC5/ADC_SOUND_IN.c **** * You may use this file only in accordance with the license, terms, conditions,
  14:.\Generated_Source\PSoC5/ADC_SOUND_IN.c **** * disclaimers, and limitations in the end user license agreement accompanying
  15:.\Generated_Source\PSoC5/ADC_SOUND_IN.c **** * the software package with which this file was provided.
  16:.\Generated_Source\PSoC5/ADC_SOUND_IN.c **** *******************************************************************************/
  17:.\Generated_Source\PSoC5/ADC_SOUND_IN.c **** 
  18:.\Generated_Source\PSoC5/ADC_SOUND_IN.c **** #include "ADC_SOUND_IN.h"
  19:.\Generated_Source\PSoC5/ADC_SOUND_IN.c **** 
  20:.\Generated_Source\PSoC5/ADC_SOUND_IN.c **** #if(ADC_SOUND_IN_DEFAULT_INTERNAL_CLK)
  21:.\Generated_Source\PSoC5/ADC_SOUND_IN.c ****     #include "ADC_SOUND_IN_theACLK.h"
  22:.\Generated_Source\PSoC5/ADC_SOUND_IN.c **** #endif /* ADC_SOUND_IN_DEFAULT_INTERNAL_CLK */
  23:.\Generated_Source\PSoC5/ADC_SOUND_IN.c **** 
  24:.\Generated_Source\PSoC5/ADC_SOUND_IN.c **** #include "ADC_SOUND_IN_Ext_CP_Clk.h"
  25:.\Generated_Source\PSoC5/ADC_SOUND_IN.c **** 
  26:.\Generated_Source\PSoC5/ADC_SOUND_IN.c **** #if(ADC_SOUND_IN_DEFAULT_INPUT_MODE)
  27:.\Generated_Source\PSoC5/ADC_SOUND_IN.c ****     #include "ADC_SOUND_IN_AMux.h"
  28:.\Generated_Source\PSoC5/ADC_SOUND_IN.c **** #endif /* ADC_SOUND_IN_DEFAULT_INPUT_MODE */
  29:.\Generated_Source\PSoC5/ADC_SOUND_IN.c **** 
  30:.\Generated_Source\PSoC5/ADC_SOUND_IN.c **** 
  31:.\Generated_Source\PSoC5/ADC_SOUND_IN.c **** /***************************************
  32:.\Generated_Source\PSoC5/ADC_SOUND_IN.c **** * Global data allocation
ARM GAS  C:\Users\YongY\AppData\Local\Temp\ccMwH7lk.s 			page 2


  33:.\Generated_Source\PSoC5/ADC_SOUND_IN.c **** ***************************************/
  34:.\Generated_Source\PSoC5/ADC_SOUND_IN.c **** 
  35:.\Generated_Source\PSoC5/ADC_SOUND_IN.c **** /* Software flag for checking conversion completed or not */
  36:.\Generated_Source\PSoC5/ADC_SOUND_IN.c **** volatile uint8 ADC_SOUND_IN_convDone = 0u;
  37:.\Generated_Source\PSoC5/ADC_SOUND_IN.c **** 
  38:.\Generated_Source\PSoC5/ADC_SOUND_IN.c **** /* Software flag to stop conversion for single sample conversion mode
  39:.\Generated_Source\PSoC5/ADC_SOUND_IN.c **** *   with resolution above 16 bits 
  40:.\Generated_Source\PSoC5/ADC_SOUND_IN.c **** */
  41:.\Generated_Source\PSoC5/ADC_SOUND_IN.c **** volatile uint8 ADC_SOUND_IN_stopConversion = 0u;
  42:.\Generated_Source\PSoC5/ADC_SOUND_IN.c **** 
  43:.\Generated_Source\PSoC5/ADC_SOUND_IN.c **** /* To run the initialization block only at the start up */
  44:.\Generated_Source\PSoC5/ADC_SOUND_IN.c **** uint8 ADC_SOUND_IN_initVar = 0u;
  45:.\Generated_Source\PSoC5/ADC_SOUND_IN.c **** 
  46:.\Generated_Source\PSoC5/ADC_SOUND_IN.c **** /* To check whether ADC started or not before switching the configuration */
  47:.\Generated_Source\PSoC5/ADC_SOUND_IN.c **** volatile uint8 ADC_SOUND_IN_started = 0u;
  48:.\Generated_Source\PSoC5/ADC_SOUND_IN.c **** 
  49:.\Generated_Source\PSoC5/ADC_SOUND_IN.c **** /* Flag to hold ADC config number. By default active config is 1. */
  50:.\Generated_Source\PSoC5/ADC_SOUND_IN.c **** volatile uint8 ADC_SOUND_IN_Config = 1u;
  51:.\Generated_Source\PSoC5/ADC_SOUND_IN.c **** 
  52:.\Generated_Source\PSoC5/ADC_SOUND_IN.c **** volatile int32 ADC_SOUND_IN_Offset;
  53:.\Generated_Source\PSoC5/ADC_SOUND_IN.c **** volatile int32 ADC_SOUND_IN_CountsPerVolt;
  54:.\Generated_Source\PSoC5/ADC_SOUND_IN.c **** 
  55:.\Generated_Source\PSoC5/ADC_SOUND_IN.c **** 
  56:.\Generated_Source\PSoC5/ADC_SOUND_IN.c **** /***************************************
  57:.\Generated_Source\PSoC5/ADC_SOUND_IN.c **** * Local data allocation
  58:.\Generated_Source\PSoC5/ADC_SOUND_IN.c **** ***************************************/
  59:.\Generated_Source\PSoC5/ADC_SOUND_IN.c **** 
  60:.\Generated_Source\PSoC5/ADC_SOUND_IN.c **** /* The array with precalculated gain compensation coefficients */
  61:.\Generated_Source\PSoC5/ADC_SOUND_IN.c **** static ADC_SOUND_IN_GCOR_STRUCT ADC_SOUND_IN_gcor[ADC_SOUND_IN_DEFAULT_NUM_CONFIGS];
  62:.\Generated_Source\PSoC5/ADC_SOUND_IN.c **** 
  63:.\Generated_Source\PSoC5/ADC_SOUND_IN.c **** 
  64:.\Generated_Source\PSoC5/ADC_SOUND_IN.c **** 
  65:.\Generated_Source\PSoC5/ADC_SOUND_IN.c **** /***************************************
  66:.\Generated_Source\PSoC5/ADC_SOUND_IN.c **** * Forward function references
  67:.\Generated_Source\PSoC5/ADC_SOUND_IN.c **** ***************************************/
  68:.\Generated_Source\PSoC5/ADC_SOUND_IN.c **** static void ADC_SOUND_IN_InitConfig(uint8 config) ;
  69:.\Generated_Source\PSoC5/ADC_SOUND_IN.c **** static void ADC_SOUND_IN_GainCompensation(uint8 inputRange, uint16 idealDecGain, uint16 idealOddDec
  70:.\Generated_Source\PSoC5/ADC_SOUND_IN.c ****                             uint8 resolution, uint8 config) ;
  71:.\Generated_Source\PSoC5/ADC_SOUND_IN.c **** static void ADC_SOUND_IN_SetDSMRef0Reg(uint8 value) ;
  72:.\Generated_Source\PSoC5/ADC_SOUND_IN.c **** 
  73:.\Generated_Source\PSoC5/ADC_SOUND_IN.c **** 
  74:.\Generated_Source\PSoC5/ADC_SOUND_IN.c **** /******************************************************************************
  75:.\Generated_Source\PSoC5/ADC_SOUND_IN.c **** * Function Name: ADC_SOUND_IN_Init
  76:.\Generated_Source\PSoC5/ADC_SOUND_IN.c **** *******************************************************************************
  77:.\Generated_Source\PSoC5/ADC_SOUND_IN.c **** *
  78:.\Generated_Source\PSoC5/ADC_SOUND_IN.c **** * Summary:
  79:.\Generated_Source\PSoC5/ADC_SOUND_IN.c **** *  Initialize component's parameters to the parameters set by user in the
  80:.\Generated_Source\PSoC5/ADC_SOUND_IN.c **** *  customizer of the component placed onto schematic. Usually called in
  81:.\Generated_Source\PSoC5/ADC_SOUND_IN.c **** * ADC_SOUND_IN_Start().
  82:.\Generated_Source\PSoC5/ADC_SOUND_IN.c **** *
  83:.\Generated_Source\PSoC5/ADC_SOUND_IN.c **** *
  84:.\Generated_Source\PSoC5/ADC_SOUND_IN.c **** * Parameters:
  85:.\Generated_Source\PSoC5/ADC_SOUND_IN.c **** *  None
  86:.\Generated_Source\PSoC5/ADC_SOUND_IN.c **** *
  87:.\Generated_Source\PSoC5/ADC_SOUND_IN.c **** * Return:
  88:.\Generated_Source\PSoC5/ADC_SOUND_IN.c **** *  None
  89:.\Generated_Source\PSoC5/ADC_SOUND_IN.c **** *
ARM GAS  C:\Users\YongY\AppData\Local\Temp\ccMwH7lk.s 			page 3


  90:.\Generated_Source\PSoC5/ADC_SOUND_IN.c **** *******************************************************************************/
  91:.\Generated_Source\PSoC5/ADC_SOUND_IN.c **** void ADC_SOUND_IN_Init(void) 
  92:.\Generated_Source\PSoC5/ADC_SOUND_IN.c **** {
  93:.\Generated_Source\PSoC5/ADC_SOUND_IN.c **** 
  94:.\Generated_Source\PSoC5/ADC_SOUND_IN.c ****     ADC_SOUND_IN_Config = 1u;
  95:.\Generated_Source\PSoC5/ADC_SOUND_IN.c ****     ADC_SOUND_IN_convDone = 0u;
  96:.\Generated_Source\PSoC5/ADC_SOUND_IN.c **** 
  97:.\Generated_Source\PSoC5/ADC_SOUND_IN.c ****     ADC_SOUND_IN_Ext_CP_Clk_SetMode(CYCLK_DUTY);
  98:.\Generated_Source\PSoC5/ADC_SOUND_IN.c **** 
  99:.\Generated_Source\PSoC5/ADC_SOUND_IN.c ****     /* This is only valid if there is an internal clock */
 100:.\Generated_Source\PSoC5/ADC_SOUND_IN.c ****     #if(ADC_SOUND_IN_DEFAULT_INTERNAL_CLK)
 101:.\Generated_Source\PSoC5/ADC_SOUND_IN.c ****         ADC_SOUND_IN_theACLK_SetMode(CYCLK_DUTY);
 102:.\Generated_Source\PSoC5/ADC_SOUND_IN.c ****     #endif /* ADC_SOUND_IN_DEFAULT_INTERNAL_CLK */
 103:.\Generated_Source\PSoC5/ADC_SOUND_IN.c **** 
 104:.\Generated_Source\PSoC5/ADC_SOUND_IN.c ****     #if(ADC_SOUND_IN_IRQ_REMOVE == 0u)
 105:.\Generated_Source\PSoC5/ADC_SOUND_IN.c ****         /* Set interrupt priority */
 106:.\Generated_Source\PSoC5/ADC_SOUND_IN.c ****         CyIntSetPriority(ADC_SOUND_IN_INTC_NUMBER, ADC_SOUND_IN_INTC_PRIOR_NUMBER);
 107:.\Generated_Source\PSoC5/ADC_SOUND_IN.c ****     #endif   /* End ADC_SOUND_IN_IRQ_REMOVE */
 108:.\Generated_Source\PSoC5/ADC_SOUND_IN.c **** 
 109:.\Generated_Source\PSoC5/ADC_SOUND_IN.c ****     /* Init static registers with common configuration */
 110:.\Generated_Source\PSoC5/ADC_SOUND_IN.c ****     ADC_SOUND_IN_DSM_DEM0_REG    = ADC_SOUND_IN_CFG1_DSM_DEM0;
 111:.\Generated_Source\PSoC5/ADC_SOUND_IN.c ****     ADC_SOUND_IN_DSM_DEM1_REG    = ADC_SOUND_IN_CFG1_DSM_DEM1;
 112:.\Generated_Source\PSoC5/ADC_SOUND_IN.c ****     ADC_SOUND_IN_DSM_MISC_REG    = ADC_SOUND_IN_CFG1_DSM_MISC;
 113:.\Generated_Source\PSoC5/ADC_SOUND_IN.c ****     ADC_SOUND_IN_DSM_CLK_REG    |= ADC_SOUND_IN_CFG1_DSM_CLK;
 114:.\Generated_Source\PSoC5/ADC_SOUND_IN.c ****     ADC_SOUND_IN_DSM_REF1_REG    = ADC_SOUND_IN_CFG1_DSM_REF1;
 115:.\Generated_Source\PSoC5/ADC_SOUND_IN.c **** 
 116:.\Generated_Source\PSoC5/ADC_SOUND_IN.c ****     ADC_SOUND_IN_DSM_OUT0_REG    = ADC_SOUND_IN_CFG1_DSM_OUT0;
 117:.\Generated_Source\PSoC5/ADC_SOUND_IN.c ****     ADC_SOUND_IN_DSM_OUT1_REG    = ADC_SOUND_IN_CFG1_DSM_OUT1;
 118:.\Generated_Source\PSoC5/ADC_SOUND_IN.c **** 
 119:.\Generated_Source\PSoC5/ADC_SOUND_IN.c ****     ADC_SOUND_IN_DSM_CR0_REG     = ADC_SOUND_IN_CFG1_DSM_CR0;
 120:.\Generated_Source\PSoC5/ADC_SOUND_IN.c ****     ADC_SOUND_IN_DSM_CR1_REG     = ADC_SOUND_IN_CFG1_DSM_CR1;
 121:.\Generated_Source\PSoC5/ADC_SOUND_IN.c **** #if(ADC_SOUND_IN_MI_ENABLE != 0u) /* Enable Modulator Input */
 122:.\Generated_Source\PSoC5/ADC_SOUND_IN.c ****     ADC_SOUND_IN_DSM_CR3_REG     |= ADC_SOUND_IN_DSM_MODBIT_EN;
 123:.\Generated_Source\PSoC5/ADC_SOUND_IN.c **** #else
 124:.\Generated_Source\PSoC5/ADC_SOUND_IN.c ****     ADC_SOUND_IN_DSM_CR3_REG     = ADC_SOUND_IN_CFG1_DSM_CR3;
 125:.\Generated_Source\PSoC5/ADC_SOUND_IN.c **** #endif /* ADC_SOUND_IN_MI_ENABLE != 0u*/    
 126:.\Generated_Source\PSoC5/ADC_SOUND_IN.c ****     ADC_SOUND_IN_DSM_CR8_REG     = ADC_SOUND_IN_CFG1_DSM_CR8;
 127:.\Generated_Source\PSoC5/ADC_SOUND_IN.c ****     ADC_SOUND_IN_DSM_CR9_REG     = ADC_SOUND_IN_CFG1_DSM_CR9;
 128:.\Generated_Source\PSoC5/ADC_SOUND_IN.c ****     ADC_SOUND_IN_DSM_CR13_REG    = ADC_SOUND_IN_CFG1_DSM_CR13;
 129:.\Generated_Source\PSoC5/ADC_SOUND_IN.c **** 
 130:.\Generated_Source\PSoC5/ADC_SOUND_IN.c ****     ADC_SOUND_IN_DEC_SR_REG      = ADC_SOUND_IN_CFG1_DEC_SR;
 131:.\Generated_Source\PSoC5/ADC_SOUND_IN.c **** 
 132:.\Generated_Source\PSoC5/ADC_SOUND_IN.c ****     /* Calculate Gain compensation coefficients for all configurations */
 133:.\Generated_Source\PSoC5/ADC_SOUND_IN.c ****     ADC_SOUND_IN_GainCompensation(ADC_SOUND_IN_CFG1_INPUT_RANGE,
 134:.\Generated_Source\PSoC5/ADC_SOUND_IN.c ****                                       ADC_SOUND_IN_CFG1_IDEAL_DEC_GAIN,
 135:.\Generated_Source\PSoC5/ADC_SOUND_IN.c ****                                       ADC_SOUND_IN_CFG1_IDEAL_ODDDEC_GAIN,
 136:.\Generated_Source\PSoC5/ADC_SOUND_IN.c ****                                       ADC_SOUND_IN_CFG1_RESOLUTION,
 137:.\Generated_Source\PSoC5/ADC_SOUND_IN.c ****                                       ADC_SOUND_IN_CFG1);
 138:.\Generated_Source\PSoC5/ADC_SOUND_IN.c ****     #if(ADC_SOUND_IN_DEFAULT_NUM_CONFIGS > 1)
 139:.\Generated_Source\PSoC5/ADC_SOUND_IN.c ****         ADC_SOUND_IN_GainCompensation(ADC_SOUND_IN_CFG2_INPUT_RANGE,
 140:.\Generated_Source\PSoC5/ADC_SOUND_IN.c ****                                           ADC_SOUND_IN_CFG2_IDEAL_DEC_GAIN,
 141:.\Generated_Source\PSoC5/ADC_SOUND_IN.c ****                                           ADC_SOUND_IN_CFG2_IDEAL_ODDDEC_GAIN,
 142:.\Generated_Source\PSoC5/ADC_SOUND_IN.c ****                                           ADC_SOUND_IN_CFG2_RESOLUTION,
 143:.\Generated_Source\PSoC5/ADC_SOUND_IN.c ****                                           ADC_SOUND_IN_CFG2);
 144:.\Generated_Source\PSoC5/ADC_SOUND_IN.c ****     #endif /* ADC_SOUND_IN_DEFAULT_NUM_CONFIGS > 1 */
 145:.\Generated_Source\PSoC5/ADC_SOUND_IN.c ****     #if(ADC_SOUND_IN_DEFAULT_NUM_CONFIGS > 2)
 146:.\Generated_Source\PSoC5/ADC_SOUND_IN.c ****         ADC_SOUND_IN_GainCompensation(ADC_SOUND_IN_CFG3_INPUT_RANGE,
ARM GAS  C:\Users\YongY\AppData\Local\Temp\ccMwH7lk.s 			page 4


 147:.\Generated_Source\PSoC5/ADC_SOUND_IN.c ****                                           ADC_SOUND_IN_CFG3_IDEAL_DEC_GAIN,
 148:.\Generated_Source\PSoC5/ADC_SOUND_IN.c ****                                           ADC_SOUND_IN_CFG3_IDEAL_ODDDEC_GAIN,
 149:.\Generated_Source\PSoC5/ADC_SOUND_IN.c ****                                           ADC_SOUND_IN_CFG3_RESOLUTION,
 150:.\Generated_Source\PSoC5/ADC_SOUND_IN.c ****                                           ADC_SOUND_IN_CFG3);
 151:.\Generated_Source\PSoC5/ADC_SOUND_IN.c ****     #endif /* ADC_SOUND_IN_DEFAULT_NUM_CONFIGS > 2 */
 152:.\Generated_Source\PSoC5/ADC_SOUND_IN.c ****     #if(ADC_SOUND_IN_DEFAULT_NUM_CONFIGS > 3)
 153:.\Generated_Source\PSoC5/ADC_SOUND_IN.c ****         ADC_SOUND_IN_GainCompensation(ADC_SOUND_IN_CFG4_INPUT_RANGE,
 154:.\Generated_Source\PSoC5/ADC_SOUND_IN.c ****                                           ADC_SOUND_IN_CFG4_IDEAL_DEC_GAIN,
 155:.\Generated_Source\PSoC5/ADC_SOUND_IN.c ****                                           ADC_SOUND_IN_CFG4_IDEAL_ODDDEC_GAIN,
 156:.\Generated_Source\PSoC5/ADC_SOUND_IN.c ****                                           ADC_SOUND_IN_CFG4_RESOLUTION,
 157:.\Generated_Source\PSoC5/ADC_SOUND_IN.c ****                                           ADC_SOUND_IN_CFG4);
 158:.\Generated_Source\PSoC5/ADC_SOUND_IN.c ****     #endif /* ADC_SOUND_IN_DEFAULT_NUM_CONFIGS > 3 */
 159:.\Generated_Source\PSoC5/ADC_SOUND_IN.c **** 
 160:.\Generated_Source\PSoC5/ADC_SOUND_IN.c ****     /* Set GCOR register for config1 */
 161:.\Generated_Source\PSoC5/ADC_SOUND_IN.c ****     ADC_SOUND_IN_DEC_GVAL_REG = ADC_SOUND_IN_gcor[ADC_SOUND_IN_Config - 1u].gval;
 162:.\Generated_Source\PSoC5/ADC_SOUND_IN.c ****     CY_SET_REG16(ADC_SOUND_IN_DEC_GCOR_16B_PTR, ADC_SOUND_IN_gcor[ADC_SOUND_IN_Config - 1u].gcor);
 163:.\Generated_Source\PSoC5/ADC_SOUND_IN.c **** 
 164:.\Generated_Source\PSoC5/ADC_SOUND_IN.c ****     /* Initialize the registers with default customizer settings for config1 */
 165:.\Generated_Source\PSoC5/ADC_SOUND_IN.c ****     ADC_SOUND_IN_InitConfig(ADC_SOUND_IN_Config);
 166:.\Generated_Source\PSoC5/ADC_SOUND_IN.c **** }
 167:.\Generated_Source\PSoC5/ADC_SOUND_IN.c **** 
 168:.\Generated_Source\PSoC5/ADC_SOUND_IN.c **** 
 169:.\Generated_Source\PSoC5/ADC_SOUND_IN.c **** /******************************************************************************
 170:.\Generated_Source\PSoC5/ADC_SOUND_IN.c **** * Function Name: ADC_SOUND_IN_Enable
 171:.\Generated_Source\PSoC5/ADC_SOUND_IN.c **** *******************************************************************************
 172:.\Generated_Source\PSoC5/ADC_SOUND_IN.c **** *
 173:.\Generated_Source\PSoC5/ADC_SOUND_IN.c **** * Summary:
 174:.\Generated_Source\PSoC5/ADC_SOUND_IN.c **** *  Enables the ADC DelSig block operation.
 175:.\Generated_Source\PSoC5/ADC_SOUND_IN.c **** *
 176:.\Generated_Source\PSoC5/ADC_SOUND_IN.c **** *
 177:.\Generated_Source\PSoC5/ADC_SOUND_IN.c **** * Parameters:
 178:.\Generated_Source\PSoC5/ADC_SOUND_IN.c **** *  None
 179:.\Generated_Source\PSoC5/ADC_SOUND_IN.c **** *
 180:.\Generated_Source\PSoC5/ADC_SOUND_IN.c **** * Return:
 181:.\Generated_Source\PSoC5/ADC_SOUND_IN.c **** *  None
 182:.\Generated_Source\PSoC5/ADC_SOUND_IN.c **** *
 183:.\Generated_Source\PSoC5/ADC_SOUND_IN.c **** *******************************************************************************/
 184:.\Generated_Source\PSoC5/ADC_SOUND_IN.c **** void ADC_SOUND_IN_Enable(void) 
 185:.\Generated_Source\PSoC5/ADC_SOUND_IN.c **** {
 186:.\Generated_Source\PSoC5/ADC_SOUND_IN.c **** 	uint8 config;
 187:.\Generated_Source\PSoC5/ADC_SOUND_IN.c ****     uint8 enableInterrupts;
 188:.\Generated_Source\PSoC5/ADC_SOUND_IN.c ****     enableInterrupts = CyEnterCriticalSection();
 189:.\Generated_Source\PSoC5/ADC_SOUND_IN.c **** 
 190:.\Generated_Source\PSoC5/ADC_SOUND_IN.c ****     /* Read volatile variable to the local variable */
 191:.\Generated_Source\PSoC5/ADC_SOUND_IN.c ****     config = ADC_SOUND_IN_Config;
 192:.\Generated_Source\PSoC5/ADC_SOUND_IN.c ****     
 193:.\Generated_Source\PSoC5/ADC_SOUND_IN.c ****     /* Enable active mode power for ADC */
 194:.\Generated_Source\PSoC5/ADC_SOUND_IN.c ****     ADC_SOUND_IN_PWRMGR_DEC_REG |= ADC_SOUND_IN_ACT_PWR_DEC_EN;
 195:.\Generated_Source\PSoC5/ADC_SOUND_IN.c ****     ADC_SOUND_IN_PWRMGR_DSM_REG |= ADC_SOUND_IN_ACT_PWR_DSM_EN;
 196:.\Generated_Source\PSoC5/ADC_SOUND_IN.c **** 
 197:.\Generated_Source\PSoC5/ADC_SOUND_IN.c ****      /* Enable alternative active mode power for ADC */
 198:.\Generated_Source\PSoC5/ADC_SOUND_IN.c ****     ADC_SOUND_IN_STBY_PWRMGR_DEC_REG |= ADC_SOUND_IN_STBY_PWR_DEC_EN;
 199:.\Generated_Source\PSoC5/ADC_SOUND_IN.c ****     ADC_SOUND_IN_STBY_PWRMGR_DSM_REG |= ADC_SOUND_IN_STBY_PWR_DSM_EN;
 200:.\Generated_Source\PSoC5/ADC_SOUND_IN.c **** 
 201:.\Generated_Source\PSoC5/ADC_SOUND_IN.c ****     /* Disable PRES, Enable power to VCMBUF0, REFBUF0 and REFBUF1, enable PRES */
 202:.\Generated_Source\PSoC5/ADC_SOUND_IN.c ****     ADC_SOUND_IN_RESET_CR4_REG |= ADC_SOUND_IN_IGNORE_PRESA1;
 203:.\Generated_Source\PSoC5/ADC_SOUND_IN.c ****     ADC_SOUND_IN_RESET_CR5_REG |= ADC_SOUND_IN_IGNORE_PRESA2;
ARM GAS  C:\Users\YongY\AppData\Local\Temp\ccMwH7lk.s 			page 5


 204:.\Generated_Source\PSoC5/ADC_SOUND_IN.c **** 
 205:.\Generated_Source\PSoC5/ADC_SOUND_IN.c ****     ADC_SOUND_IN_DSM_CR17_REG |= (ADC_SOUND_IN_DSM_EN_BUF_VREF | ADC_SOUND_IN_DSM_EN_BUF_VCM);
 206:.\Generated_Source\PSoC5/ADC_SOUND_IN.c **** 
 207:.\Generated_Source\PSoC5/ADC_SOUND_IN.c ****     /* Code to disable the REFBUF0 if reference chosen is External ref */
 208:.\Generated_Source\PSoC5/ADC_SOUND_IN.c ****     #if (((ADC_SOUND_IN_CFG1_REFERENCE == ADC_SOUND_IN_EXT_REF_ON_P03) || \
 209:.\Generated_Source\PSoC5/ADC_SOUND_IN.c ****           (ADC_SOUND_IN_CFG1_REFERENCE == ADC_SOUND_IN_EXT_REF_ON_P32)) || \
 210:.\Generated_Source\PSoC5/ADC_SOUND_IN.c ****          ((ADC_SOUND_IN_DEFAULT_NUM_CONFIGS > 1) && \
 211:.\Generated_Source\PSoC5/ADC_SOUND_IN.c ****           ((ADC_SOUND_IN_CFG2_REFERENCE == ADC_SOUND_IN_EXT_REF_ON_P03) ||  \
 212:.\Generated_Source\PSoC5/ADC_SOUND_IN.c ****            (ADC_SOUND_IN_CFG2_REFERENCE == ADC_SOUND_IN_EXT_REF_ON_P32))) || \
 213:.\Generated_Source\PSoC5/ADC_SOUND_IN.c ****          ((ADC_SOUND_IN_DEFAULT_NUM_CONFIGS > 2) && \
 214:.\Generated_Source\PSoC5/ADC_SOUND_IN.c ****           ((ADC_SOUND_IN_CFG3_REFERENCE == ADC_SOUND_IN_EXT_REF_ON_P03) ||  \
 215:.\Generated_Source\PSoC5/ADC_SOUND_IN.c ****            (ADC_SOUND_IN_CFG3_REFERENCE == ADC_SOUND_IN_EXT_REF_ON_P32))) || \
 216:.\Generated_Source\PSoC5/ADC_SOUND_IN.c ****          ((ADC_SOUND_IN_DEFAULT_NUM_CONFIGS > 3) && \
 217:.\Generated_Source\PSoC5/ADC_SOUND_IN.c ****           ((ADC_SOUND_IN_CFG4_REFERENCE == ADC_SOUND_IN_EXT_REF_ON_P03) || \
 218:.\Generated_Source\PSoC5/ADC_SOUND_IN.c ****            (ADC_SOUND_IN_CFG4_REFERENCE == ADC_SOUND_IN_EXT_REF_ON_P32))))
 219:.\Generated_Source\PSoC5/ADC_SOUND_IN.c ****         if (((config == 1u) &&
 220:.\Generated_Source\PSoC5/ADC_SOUND_IN.c ****             ((ADC_SOUND_IN_CFG1_REFERENCE == ADC_SOUND_IN_EXT_REF_ON_P03) ||
 221:.\Generated_Source\PSoC5/ADC_SOUND_IN.c ****              (ADC_SOUND_IN_CFG1_REFERENCE == ADC_SOUND_IN_EXT_REF_ON_P32))) ||
 222:.\Generated_Source\PSoC5/ADC_SOUND_IN.c ****             ((config == 2u) &&
 223:.\Generated_Source\PSoC5/ADC_SOUND_IN.c ****             ((ADC_SOUND_IN_CFG2_REFERENCE == ADC_SOUND_IN_EXT_REF_ON_P03) ||
 224:.\Generated_Source\PSoC5/ADC_SOUND_IN.c ****              (ADC_SOUND_IN_CFG2_REFERENCE == ADC_SOUND_IN_EXT_REF_ON_P32))) ||
 225:.\Generated_Source\PSoC5/ADC_SOUND_IN.c ****             ((config == 3u) &&
 226:.\Generated_Source\PSoC5/ADC_SOUND_IN.c ****             ((ADC_SOUND_IN_CFG3_REFERENCE == ADC_SOUND_IN_EXT_REF_ON_P03) ||
 227:.\Generated_Source\PSoC5/ADC_SOUND_IN.c ****              (ADC_SOUND_IN_CFG3_REFERENCE == ADC_SOUND_IN_EXT_REF_ON_P32))) ||
 228:.\Generated_Source\PSoC5/ADC_SOUND_IN.c ****             ((config == 4u) &&
 229:.\Generated_Source\PSoC5/ADC_SOUND_IN.c ****             ((ADC_SOUND_IN_CFG4_REFERENCE == ADC_SOUND_IN_EXT_REF_ON_P03) ||
 230:.\Generated_Source\PSoC5/ADC_SOUND_IN.c ****              (ADC_SOUND_IN_CFG4_REFERENCE == ADC_SOUND_IN_EXT_REF_ON_P32))))
 231:.\Generated_Source\PSoC5/ADC_SOUND_IN.c ****         {
 232:.\Generated_Source\PSoC5/ADC_SOUND_IN.c ****             /* Disable the REFBUF0 */
 233:.\Generated_Source\PSoC5/ADC_SOUND_IN.c ****             ADC_SOUND_IN_DSM_CR17_REG &= (uint8)~ADC_SOUND_IN_DSM_EN_BUF_VREF;
 234:.\Generated_Source\PSoC5/ADC_SOUND_IN.c ****         }
 235:.\Generated_Source\PSoC5/ADC_SOUND_IN.c ****     #endif /* External ref */
 236:.\Generated_Source\PSoC5/ADC_SOUND_IN.c **** 
 237:.\Generated_Source\PSoC5/ADC_SOUND_IN.c ****     #if (((ADC_SOUND_IN_CFG1_INPUT_RANGE == ADC_SOUND_IN_IR_VSSA_TO_2VREF) || \
 238:.\Generated_Source\PSoC5/ADC_SOUND_IN.c ****          ((ADC_SOUND_IN_DEFAULT_NUM_CONFIGS > 1) && \
 239:.\Generated_Source\PSoC5/ADC_SOUND_IN.c ****           (ADC_SOUND_IN_CFG2_INPUT_RANGE == ADC_SOUND_IN_IR_VSSA_TO_2VREF)) || \
 240:.\Generated_Source\PSoC5/ADC_SOUND_IN.c ****          ((ADC_SOUND_IN_DEFAULT_NUM_CONFIGS > 2) && \
 241:.\Generated_Source\PSoC5/ADC_SOUND_IN.c ****           (ADC_SOUND_IN_CFG3_INPUT_RANGE == ADC_SOUND_IN_IR_VSSA_TO_2VREF)) || \
 242:.\Generated_Source\PSoC5/ADC_SOUND_IN.c ****          ((ADC_SOUND_IN_DEFAULT_NUM_CONFIGS > 3) && \
 243:.\Generated_Source\PSoC5/ADC_SOUND_IN.c ****           (ADC_SOUND_IN_CFG4_INPUT_RANGE == ADC_SOUND_IN_IR_VSSA_TO_2VREF))))
 244:.\Generated_Source\PSoC5/ADC_SOUND_IN.c ****         if(((config == 1u) &&
 245:.\Generated_Source\PSoC5/ADC_SOUND_IN.c ****             (ADC_SOUND_IN_CFG1_INPUT_RANGE == ADC_SOUND_IN_IR_VSSA_TO_2VREF) &&
 246:.\Generated_Source\PSoC5/ADC_SOUND_IN.c ****             ((ADC_SOUND_IN_CFG1_REFERENCE != ADC_SOUND_IN_EXT_REF_ON_P03) &&
 247:.\Generated_Source\PSoC5/ADC_SOUND_IN.c ****              (ADC_SOUND_IN_CFG1_REFERENCE != ADC_SOUND_IN_EXT_REF_ON_P32))) ||
 248:.\Generated_Source\PSoC5/ADC_SOUND_IN.c ****              ((config == 2u) &&
 249:.\Generated_Source\PSoC5/ADC_SOUND_IN.c ****               (ADC_SOUND_IN_CFG2_INPUT_RANGE == ADC_SOUND_IN_IR_VSSA_TO_2VREF) &&
 250:.\Generated_Source\PSoC5/ADC_SOUND_IN.c ****              ((ADC_SOUND_IN_CFG2_REFERENCE != ADC_SOUND_IN_EXT_REF_ON_P03) &&
 251:.\Generated_Source\PSoC5/ADC_SOUND_IN.c ****              (ADC_SOUND_IN_CFG2_REFERENCE != ADC_SOUND_IN_EXT_REF_ON_P32))) ||
 252:.\Generated_Source\PSoC5/ADC_SOUND_IN.c ****              ((config == 3u) &&
 253:.\Generated_Source\PSoC5/ADC_SOUND_IN.c ****               (ADC_SOUND_IN_CFG3_INPUT_RANGE == ADC_SOUND_IN_IR_VSSA_TO_2VREF) &&
 254:.\Generated_Source\PSoC5/ADC_SOUND_IN.c ****              ((ADC_SOUND_IN_CFG3_REFERENCE != ADC_SOUND_IN_EXT_REF_ON_P03) &&
 255:.\Generated_Source\PSoC5/ADC_SOUND_IN.c ****              (ADC_SOUND_IN_CFG3_REFERENCE != ADC_SOUND_IN_EXT_REF_ON_P32))) ||
 256:.\Generated_Source\PSoC5/ADC_SOUND_IN.c ****              ((config == 4u) &&
 257:.\Generated_Source\PSoC5/ADC_SOUND_IN.c ****               (ADC_SOUND_IN_CFG4_INPUT_RANGE == ADC_SOUND_IN_IR_VSSA_TO_2VREF) &&
 258:.\Generated_Source\PSoC5/ADC_SOUND_IN.c ****              ((ADC_SOUND_IN_CFG4_REFERENCE != ADC_SOUND_IN_EXT_REF_ON_P03) &&
 259:.\Generated_Source\PSoC5/ADC_SOUND_IN.c ****              (ADC_SOUND_IN_CFG4_REFERENCE != ADC_SOUND_IN_EXT_REF_ON_P32))))
 260:.\Generated_Source\PSoC5/ADC_SOUND_IN.c ****         {
ARM GAS  C:\Users\YongY\AppData\Local\Temp\ccMwH7lk.s 			page 6


 261:.\Generated_Source\PSoC5/ADC_SOUND_IN.c ****             /* Enable the REFBUF1 */
 262:.\Generated_Source\PSoC5/ADC_SOUND_IN.c ****             ADC_SOUND_IN_DSM_REF0_REG |= ADC_SOUND_IN_DSM_EN_BUF_VREF_INN;
 263:.\Generated_Source\PSoC5/ADC_SOUND_IN.c ****         }
 264:.\Generated_Source\PSoC5/ADC_SOUND_IN.c ****     #endif /* VSSA_TO_2VREF */
 265:.\Generated_Source\PSoC5/ADC_SOUND_IN.c ****     if(config != 0u)
 266:.\Generated_Source\PSoC5/ADC_SOUND_IN.c ****     {
 267:.\Generated_Source\PSoC5/ADC_SOUND_IN.c ****         /* Suppress compiler warning */
 268:.\Generated_Source\PSoC5/ADC_SOUND_IN.c ****     }
 269:.\Generated_Source\PSoC5/ADC_SOUND_IN.c **** 
 270:.\Generated_Source\PSoC5/ADC_SOUND_IN.c ****     /* Wait for 3 microseconds */
 271:.\Generated_Source\PSoC5/ADC_SOUND_IN.c ****     CyDelayUs(ADC_SOUND_IN_PRES_DELAY_TIME);
 272:.\Generated_Source\PSoC5/ADC_SOUND_IN.c **** 
 273:.\Generated_Source\PSoC5/ADC_SOUND_IN.c ****     /* Enable the press circuit */
 274:.\Generated_Source\PSoC5/ADC_SOUND_IN.c ****     ADC_SOUND_IN_RESET_CR4_REG &= (uint8)~ADC_SOUND_IN_IGNORE_PRESA1;
 275:.\Generated_Source\PSoC5/ADC_SOUND_IN.c ****     ADC_SOUND_IN_RESET_CR5_REG &= (uint8)~ADC_SOUND_IN_IGNORE_PRESA2;
 276:.\Generated_Source\PSoC5/ADC_SOUND_IN.c **** 
 277:.\Generated_Source\PSoC5/ADC_SOUND_IN.c ****     /* Enable negative pumps for DSM  */
 278:.\Generated_Source\PSoC5/ADC_SOUND_IN.c ****     ADC_SOUND_IN_PUMP_CR1_REG  |= ( ADC_SOUND_IN_PUMP_CR1_CLKSEL | ADC_SOUND_IN_PUMP_CR1_FORCE );
 279:.\Generated_Source\PSoC5/ADC_SOUND_IN.c **** 
 280:.\Generated_Source\PSoC5/ADC_SOUND_IN.c ****     /* Enable Modulator Chopping if required */
 281:.\Generated_Source\PSoC5/ADC_SOUND_IN.c ****     ADC_SOUND_IN_DSM_CR2_REG = ADC_SOUND_IN_CFG1_DSM_CR2;
 282:.\Generated_Source\PSoC5/ADC_SOUND_IN.c **** 
 283:.\Generated_Source\PSoC5/ADC_SOUND_IN.c ****     /* This is only valid if there is an internal clock */
 284:.\Generated_Source\PSoC5/ADC_SOUND_IN.c ****     #if(ADC_SOUND_IN_DEFAULT_INTERNAL_CLK)
 285:.\Generated_Source\PSoC5/ADC_SOUND_IN.c ****         ADC_SOUND_IN_PWRMGR_CLK_REG |= ADC_SOUND_IN_ACT_PWR_CLK_EN;
 286:.\Generated_Source\PSoC5/ADC_SOUND_IN.c ****         ADC_SOUND_IN_STBY_PWRMGR_CLK_REG |= ADC_SOUND_IN_STBY_PWR_CLK_EN;
 287:.\Generated_Source\PSoC5/ADC_SOUND_IN.c ****     #endif /* ADC_SOUND_IN_DEFAULT_INTERNAL_CLK */
 288:.\Generated_Source\PSoC5/ADC_SOUND_IN.c **** 
 289:.\Generated_Source\PSoC5/ADC_SOUND_IN.c ****     /* Enable the active and alternate active power for charge pump clock */
 290:.\Generated_Source\PSoC5/ADC_SOUND_IN.c ****     ADC_SOUND_IN_PWRMGR_CHARGE_PUMP_CLK_REG |= ADC_SOUND_IN_ACT_PWR_CHARGE_PUMP_CLK_EN;
 291:.\Generated_Source\PSoC5/ADC_SOUND_IN.c ****     ADC_SOUND_IN_STBY_PWRMGR_CHARGE_PUMP_CLK_REG |= ADC_SOUND_IN_STBY_PWR_CHARGE_PUMP_CLK_EN;
 292:.\Generated_Source\PSoC5/ADC_SOUND_IN.c **** 
 293:.\Generated_Source\PSoC5/ADC_SOUND_IN.c ****     #if(ADC_SOUND_IN_IRQ_REMOVE == 0u)
 294:.\Generated_Source\PSoC5/ADC_SOUND_IN.c ****         /* Clear a pending interrupt */
 295:.\Generated_Source\PSoC5/ADC_SOUND_IN.c ****         CyIntClearPending(ADC_SOUND_IN_INTC_NUMBER);
 296:.\Generated_Source\PSoC5/ADC_SOUND_IN.c ****         /* Enable interrupt */
 297:.\Generated_Source\PSoC5/ADC_SOUND_IN.c ****         CyIntEnable(ADC_SOUND_IN_INTC_NUMBER);
 298:.\Generated_Source\PSoC5/ADC_SOUND_IN.c ****     #endif   /* End ADC_SOUND_IN_IRQ_REMOVE */
 299:.\Generated_Source\PSoC5/ADC_SOUND_IN.c **** 
 300:.\Generated_Source\PSoC5/ADC_SOUND_IN.c ****     CyExitCriticalSection(enableInterrupts);
 301:.\Generated_Source\PSoC5/ADC_SOUND_IN.c **** 
 302:.\Generated_Source\PSoC5/ADC_SOUND_IN.c **** }
 303:.\Generated_Source\PSoC5/ADC_SOUND_IN.c **** 
 304:.\Generated_Source\PSoC5/ADC_SOUND_IN.c **** 
 305:.\Generated_Source\PSoC5/ADC_SOUND_IN.c **** /*******************************************************************************
 306:.\Generated_Source\PSoC5/ADC_SOUND_IN.c **** * Function Name: ADC_SOUND_IN_Start
 307:.\Generated_Source\PSoC5/ADC_SOUND_IN.c **** ********************************************************************************
 308:.\Generated_Source\PSoC5/ADC_SOUND_IN.c **** *
 309:.\Generated_Source\PSoC5/ADC_SOUND_IN.c **** * Summary:
 310:.\Generated_Source\PSoC5/ADC_SOUND_IN.c **** *  Performs all required initialization for this component and enables
 311:.\Generated_Source\PSoC5/ADC_SOUND_IN.c **** *  the power. It configure all the register the first time it is called.
 312:.\Generated_Source\PSoC5/ADC_SOUND_IN.c **** *  Subsequent calls of the Start function only enable the ADC and turn
 313:.\Generated_Source\PSoC5/ADC_SOUND_IN.c **** *  on the power. If multiple configurations are selected, it will
 314:.\Generated_Source\PSoC5/ADC_SOUND_IN.c **** *  configure the ADC for configuration 1 by default, unless the
 315:.\Generated_Source\PSoC5/ADC_SOUND_IN.c **** *  ADC_SOUND_IN_SelectConfiguration( ) function has been called to change
 316:.\Generated_Source\PSoC5/ADC_SOUND_IN.c **** *  the default setting.
 317:.\Generated_Source\PSoC5/ADC_SOUND_IN.c **** *
ARM GAS  C:\Users\YongY\AppData\Local\Temp\ccMwH7lk.s 			page 7


 318:.\Generated_Source\PSoC5/ADC_SOUND_IN.c **** * Parameters:
 319:.\Generated_Source\PSoC5/ADC_SOUND_IN.c **** *  None
 320:.\Generated_Source\PSoC5/ADC_SOUND_IN.c **** *
 321:.\Generated_Source\PSoC5/ADC_SOUND_IN.c **** * Return:
 322:.\Generated_Source\PSoC5/ADC_SOUND_IN.c **** *  None
 323:.\Generated_Source\PSoC5/ADC_SOUND_IN.c **** *
 324:.\Generated_Source\PSoC5/ADC_SOUND_IN.c **** * Global variables:
 325:.\Generated_Source\PSoC5/ADC_SOUND_IN.c **** *  ADC_SOUND_IN_initVar:  Used to check the initial configuration,
 326:.\Generated_Source\PSoC5/ADC_SOUND_IN.c **** *  modified when this function is called for the first time.
 327:.\Generated_Source\PSoC5/ADC_SOUND_IN.c **** *
 328:.\Generated_Source\PSoC5/ADC_SOUND_IN.c **** *******************************************************************************/
 329:.\Generated_Source\PSoC5/ADC_SOUND_IN.c **** void ADC_SOUND_IN_Start(void) 
 330:.\Generated_Source\PSoC5/ADC_SOUND_IN.c **** {
 331:.\Generated_Source\PSoC5/ADC_SOUND_IN.c ****     if(ADC_SOUND_IN_initVar == 0u)
 332:.\Generated_Source\PSoC5/ADC_SOUND_IN.c ****     {
 333:.\Generated_Source\PSoC5/ADC_SOUND_IN.c ****         if(ADC_SOUND_IN_started == 0u)
 334:.\Generated_Source\PSoC5/ADC_SOUND_IN.c ****         {
 335:.\Generated_Source\PSoC5/ADC_SOUND_IN.c ****             ADC_SOUND_IN_Init();
 336:.\Generated_Source\PSoC5/ADC_SOUND_IN.c ****         }
 337:.\Generated_Source\PSoC5/ADC_SOUND_IN.c ****         ADC_SOUND_IN_initVar = 1u;
 338:.\Generated_Source\PSoC5/ADC_SOUND_IN.c ****     }
 339:.\Generated_Source\PSoC5/ADC_SOUND_IN.c **** 
 340:.\Generated_Source\PSoC5/ADC_SOUND_IN.c ****     /* Enable the ADC */
 341:.\Generated_Source\PSoC5/ADC_SOUND_IN.c ****     ADC_SOUND_IN_Enable();
 342:.\Generated_Source\PSoC5/ADC_SOUND_IN.c **** }
 343:.\Generated_Source\PSoC5/ADC_SOUND_IN.c **** 
 344:.\Generated_Source\PSoC5/ADC_SOUND_IN.c **** 
 345:.\Generated_Source\PSoC5/ADC_SOUND_IN.c **** /*******************************************************************************
 346:.\Generated_Source\PSoC5/ADC_SOUND_IN.c **** * Function Name: ADC_SOUND_IN_Stop
 347:.\Generated_Source\PSoC5/ADC_SOUND_IN.c **** ********************************************************************************
 348:.\Generated_Source\PSoC5/ADC_SOUND_IN.c **** *
 349:.\Generated_Source\PSoC5/ADC_SOUND_IN.c **** * Summary:
 350:.\Generated_Source\PSoC5/ADC_SOUND_IN.c **** *  This function stops and powers down the ADC component and the internal
 351:.\Generated_Source\PSoC5/ADC_SOUND_IN.c **** *  clock if the external clock is not selected. If an external clock is
 352:.\Generated_Source\PSoC5/ADC_SOUND_IN.c **** *  used, it is up to the designer to power down the external clock it
 353:.\Generated_Source\PSoC5/ADC_SOUND_IN.c **** *  required.
 354:.\Generated_Source\PSoC5/ADC_SOUND_IN.c **** *
 355:.\Generated_Source\PSoC5/ADC_SOUND_IN.c **** * Parameters:
 356:.\Generated_Source\PSoC5/ADC_SOUND_IN.c **** *  None
 357:.\Generated_Source\PSoC5/ADC_SOUND_IN.c **** *
 358:.\Generated_Source\PSoC5/ADC_SOUND_IN.c **** * Return:
 359:.\Generated_Source\PSoC5/ADC_SOUND_IN.c **** *  None
 360:.\Generated_Source\PSoC5/ADC_SOUND_IN.c **** *
 361:.\Generated_Source\PSoC5/ADC_SOUND_IN.c **** *******************************************************************************/
 362:.\Generated_Source\PSoC5/ADC_SOUND_IN.c **** void ADC_SOUND_IN_Stop(void) 
 363:.\Generated_Source\PSoC5/ADC_SOUND_IN.c **** {
 364:.\Generated_Source\PSoC5/ADC_SOUND_IN.c ****     uint8 enableInterrupts;
 365:.\Generated_Source\PSoC5/ADC_SOUND_IN.c ****     enableInterrupts = CyEnterCriticalSection();
 366:.\Generated_Source\PSoC5/ADC_SOUND_IN.c **** 
 367:.\Generated_Source\PSoC5/ADC_SOUND_IN.c ****     /* Stop conversions */
 368:.\Generated_Source\PSoC5/ADC_SOUND_IN.c ****     ADC_SOUND_IN_DEC_CR_REG &= (uint8)~ADC_SOUND_IN_DEC_START_CONV;
 369:.\Generated_Source\PSoC5/ADC_SOUND_IN.c ****     ADC_SOUND_IN_DEC_SR_REG |=  ADC_SOUND_IN_DEC_INTR_CLEAR;
 370:.\Generated_Source\PSoC5/ADC_SOUND_IN.c **** 
 371:.\Generated_Source\PSoC5/ADC_SOUND_IN.c ****     /* Disable PRES, Disable power to VCMBUF0, REFBUF0 and REFBUF1,
 372:.\Generated_Source\PSoC5/ADC_SOUND_IN.c ****        enable PRES */
 373:.\Generated_Source\PSoC5/ADC_SOUND_IN.c ****     ADC_SOUND_IN_RESET_CR4_REG |= ADC_SOUND_IN_IGNORE_PRESA1;
 374:.\Generated_Source\PSoC5/ADC_SOUND_IN.c ****     ADC_SOUND_IN_RESET_CR5_REG |= ADC_SOUND_IN_IGNORE_PRESA2;
ARM GAS  C:\Users\YongY\AppData\Local\Temp\ccMwH7lk.s 			page 8


 375:.\Generated_Source\PSoC5/ADC_SOUND_IN.c **** 
 376:.\Generated_Source\PSoC5/ADC_SOUND_IN.c ****     ADC_SOUND_IN_DSM_CR17_REG &= (uint8)~(ADC_SOUND_IN_DSM_EN_BUF_VREF | ADC_SOUND_IN_DSM_EN_BUF_VC
 377:.\Generated_Source\PSoC5/ADC_SOUND_IN.c ****     ADC_SOUND_IN_DSM_REF0_REG &= (uint8)~ADC_SOUND_IN_DSM_EN_BUF_VREF_INN;
 378:.\Generated_Source\PSoC5/ADC_SOUND_IN.c **** 
 379:.\Generated_Source\PSoC5/ADC_SOUND_IN.c ****     /* Wait for 3 microseconds. */
 380:.\Generated_Source\PSoC5/ADC_SOUND_IN.c ****     CyDelayUs(ADC_SOUND_IN_PRES_DELAY_TIME);
 381:.\Generated_Source\PSoC5/ADC_SOUND_IN.c **** 
 382:.\Generated_Source\PSoC5/ADC_SOUND_IN.c ****     /* Enable the press circuit */
 383:.\Generated_Source\PSoC5/ADC_SOUND_IN.c ****     ADC_SOUND_IN_RESET_CR4_REG &= (uint8)~ADC_SOUND_IN_IGNORE_PRESA1;
 384:.\Generated_Source\PSoC5/ADC_SOUND_IN.c ****     ADC_SOUND_IN_RESET_CR5_REG &= (uint8)~ADC_SOUND_IN_IGNORE_PRESA2;
 385:.\Generated_Source\PSoC5/ADC_SOUND_IN.c **** 
 386:.\Generated_Source\PSoC5/ADC_SOUND_IN.c ****     /* Disable power to the ADC */
 387:.\Generated_Source\PSoC5/ADC_SOUND_IN.c ****     ADC_SOUND_IN_PWRMGR_DSM_REG &= (uint8)~ADC_SOUND_IN_ACT_PWR_DSM_EN;
 388:.\Generated_Source\PSoC5/ADC_SOUND_IN.c **** 
 389:.\Generated_Source\PSoC5/ADC_SOUND_IN.c ****     /* Disable power to Decimator block */
 390:.\Generated_Source\PSoC5/ADC_SOUND_IN.c ****     ADC_SOUND_IN_PWRMGR_DEC_REG &= (uint8)~ADC_SOUND_IN_ACT_PWR_DEC_EN;
 391:.\Generated_Source\PSoC5/ADC_SOUND_IN.c **** 
 392:.\Generated_Source\PSoC5/ADC_SOUND_IN.c ****     /* Disable alternative active power to the ADC */
 393:.\Generated_Source\PSoC5/ADC_SOUND_IN.c ****     ADC_SOUND_IN_STBY_PWRMGR_DEC_REG &= (uint8)~ADC_SOUND_IN_STBY_PWR_DEC_EN;
 394:.\Generated_Source\PSoC5/ADC_SOUND_IN.c ****     ADC_SOUND_IN_STBY_PWRMGR_DSM_REG &= (uint8)~ADC_SOUND_IN_STBY_PWR_DSM_EN;
 395:.\Generated_Source\PSoC5/ADC_SOUND_IN.c **** 
 396:.\Generated_Source\PSoC5/ADC_SOUND_IN.c ****    /* Disable negative pumps for DSM  */
 397:.\Generated_Source\PSoC5/ADC_SOUND_IN.c ****     ADC_SOUND_IN_PUMP_CR1_REG &= (uint8)~(ADC_SOUND_IN_PUMP_CR1_CLKSEL | ADC_SOUND_IN_PUMP_CR1_FORC
 398:.\Generated_Source\PSoC5/ADC_SOUND_IN.c **** 
 399:.\Generated_Source\PSoC5/ADC_SOUND_IN.c ****     /* This is only valid if there is an internal clock */
 400:.\Generated_Source\PSoC5/ADC_SOUND_IN.c ****     #if(ADC_SOUND_IN_DEFAULT_INTERNAL_CLK)
 401:.\Generated_Source\PSoC5/ADC_SOUND_IN.c ****         ADC_SOUND_IN_PWRMGR_CLK_REG &= (uint8)~ADC_SOUND_IN_ACT_PWR_CLK_EN;
 402:.\Generated_Source\PSoC5/ADC_SOUND_IN.c ****         ADC_SOUND_IN_STBY_PWRMGR_CLK_REG &= (uint8)~ADC_SOUND_IN_STBY_PWR_CLK_EN;
 403:.\Generated_Source\PSoC5/ADC_SOUND_IN.c ****     #endif /* ADC_SOUND_IN_DEFAULT_INTERNAL_CLK */
 404:.\Generated_Source\PSoC5/ADC_SOUND_IN.c **** 
 405:.\Generated_Source\PSoC5/ADC_SOUND_IN.c ****     /* Disable Modulator Chopping */
 406:.\Generated_Source\PSoC5/ADC_SOUND_IN.c ****     ADC_SOUND_IN_DSM_CR2_REG &= (uint8)~ADC_SOUND_IN_DSM_MOD_CHOP_EN;
 407:.\Generated_Source\PSoC5/ADC_SOUND_IN.c ****     /* Disable power to charge pump clock */
 408:.\Generated_Source\PSoC5/ADC_SOUND_IN.c ****     ADC_SOUND_IN_PWRMGR_CHARGE_PUMP_CLK_REG &= (uint8)~ADC_SOUND_IN_ACT_PWR_CHARGE_PUMP_CLK_EN;
 409:.\Generated_Source\PSoC5/ADC_SOUND_IN.c ****     ADC_SOUND_IN_STBY_PWRMGR_CHARGE_PUMP_CLK_REG &= (uint8)~ADC_SOUND_IN_STBY_PWR_CHARGE_PUMP_CLK_E
 410:.\Generated_Source\PSoC5/ADC_SOUND_IN.c ****     
 411:.\Generated_Source\PSoC5/ADC_SOUND_IN.c ****     CyExitCriticalSection(enableInterrupts);
 412:.\Generated_Source\PSoC5/ADC_SOUND_IN.c **** }
 413:.\Generated_Source\PSoC5/ADC_SOUND_IN.c **** 
 414:.\Generated_Source\PSoC5/ADC_SOUND_IN.c **** 
 415:.\Generated_Source\PSoC5/ADC_SOUND_IN.c **** /*******************************************************************************
 416:.\Generated_Source\PSoC5/ADC_SOUND_IN.c **** * Function Name: ADC_SOUND_IN_SetBufferGain
 417:.\Generated_Source\PSoC5/ADC_SOUND_IN.c **** ********************************************************************************
 418:.\Generated_Source\PSoC5/ADC_SOUND_IN.c **** *
 419:.\Generated_Source\PSoC5/ADC_SOUND_IN.c **** * Summary:
 420:.\Generated_Source\PSoC5/ADC_SOUND_IN.c **** *  Sets input buffer gain.
 421:.\Generated_Source\PSoC5/ADC_SOUND_IN.c **** *
 422:.\Generated_Source\PSoC5/ADC_SOUND_IN.c **** * Parameters:
 423:.\Generated_Source\PSoC5/ADC_SOUND_IN.c **** *  gain:  Two bit value to select a gain of 1, 2, 4, or 8.
 424:.\Generated_Source\PSoC5/ADC_SOUND_IN.c **** *
 425:.\Generated_Source\PSoC5/ADC_SOUND_IN.c **** * Return:
 426:.\Generated_Source\PSoC5/ADC_SOUND_IN.c **** *  None
 427:.\Generated_Source\PSoC5/ADC_SOUND_IN.c **** *
 428:.\Generated_Source\PSoC5/ADC_SOUND_IN.c **** *******************************************************************************/
 429:.\Generated_Source\PSoC5/ADC_SOUND_IN.c **** void ADC_SOUND_IN_SetBufferGain(uint8 gain) 
 430:.\Generated_Source\PSoC5/ADC_SOUND_IN.c **** {
 431:.\Generated_Source\PSoC5/ADC_SOUND_IN.c ****     uint8 tmpReg;
ARM GAS  C:\Users\YongY\AppData\Local\Temp\ccMwH7lk.s 			page 9


 432:.\Generated_Source\PSoC5/ADC_SOUND_IN.c ****     tmpReg = ADC_SOUND_IN_DSM_BUF1_REG & (uint8)~ADC_SOUND_IN_DSM_GAIN_MASK;
 433:.\Generated_Source\PSoC5/ADC_SOUND_IN.c ****     tmpReg |= (uint8)(gain << ADC_SOUND_IN_DSM_GAIN_SHIFT) & ADC_SOUND_IN_DSM_GAIN_MASK;
 434:.\Generated_Source\PSoC5/ADC_SOUND_IN.c ****     ADC_SOUND_IN_DSM_BUF1_REG = tmpReg;
 435:.\Generated_Source\PSoC5/ADC_SOUND_IN.c **** }
 436:.\Generated_Source\PSoC5/ADC_SOUND_IN.c **** 
 437:.\Generated_Source\PSoC5/ADC_SOUND_IN.c **** 
 438:.\Generated_Source\PSoC5/ADC_SOUND_IN.c **** /*******************************************************************************
 439:.\Generated_Source\PSoC5/ADC_SOUND_IN.c **** * Function Name: ADC_SOUND_IN_SetCoherency
 440:.\Generated_Source\PSoC5/ADC_SOUND_IN.c **** ********************************************************************************
 441:.\Generated_Source\PSoC5/ADC_SOUND_IN.c **** *
 442:.\Generated_Source\PSoC5/ADC_SOUND_IN.c **** * Summary:
 443:.\Generated_Source\PSoC5/ADC_SOUND_IN.c **** *  This function allows the user to change which of the ADC's 3 word
 444:.\Generated_Source\PSoC5/ADC_SOUND_IN.c **** *  result will trigger a coherency unlock. The ADC's result will not be
 445:.\Generated_Source\PSoC5/ADC_SOUND_IN.c **** *  updated until the set byte is read either by the ADC or DMA. 
 446:.\Generated_Source\PSoC5/ADC_SOUND_IN.c **** *  By default the LSB is the coherency byte for right alignment data format. 
 447:.\Generated_Source\PSoC5/ADC_SOUND_IN.c **** *  The middle or high byte is set automatically depend on left alignment 
 448:.\Generated_Source\PSoC5/ADC_SOUND_IN.c **** *  configuration for DMA data transfer.
 449:.\Generated_Source\PSoC5/ADC_SOUND_IN.c **** *  If DMA or if a custom API requires different byte to be read the last,
 450:.\Generated_Source\PSoC5/ADC_SOUND_IN.c **** *  this API should be used to set the last byte of the ADC result that is read. 
 451:.\Generated_Source\PSoC5/ADC_SOUND_IN.c **** *  If a multibyte read is performed either by DMA or the ARM processor, the
 452:.\Generated_Source\PSoC5/ADC_SOUND_IN.c **** *  coherency can be set to any byte in the last word read.
 453:.\Generated_Source\PSoC5/ADC_SOUND_IN.c **** *
 454:.\Generated_Source\PSoC5/ADC_SOUND_IN.c **** * Parameters:
 455:.\Generated_Source\PSoC5/ADC_SOUND_IN.c **** *  coherency:  Two bit value to set the coherency bit.
 456:.\Generated_Source\PSoC5/ADC_SOUND_IN.c **** *           00-Coherency checking off
 457:.\Generated_Source\PSoC5/ADC_SOUND_IN.c **** *           01-low byte is key byte
 458:.\Generated_Source\PSoC5/ADC_SOUND_IN.c **** *           02-middle byte is the key byte
 459:.\Generated_Source\PSoC5/ADC_SOUND_IN.c **** *           03-high byte is the key byte
 460:.\Generated_Source\PSoC5/ADC_SOUND_IN.c **** *
 461:.\Generated_Source\PSoC5/ADC_SOUND_IN.c **** * Return:
 462:.\Generated_Source\PSoC5/ADC_SOUND_IN.c **** *  None
 463:.\Generated_Source\PSoC5/ADC_SOUND_IN.c **** *
 464:.\Generated_Source\PSoC5/ADC_SOUND_IN.c **** *******************************************************************************/
 465:.\Generated_Source\PSoC5/ADC_SOUND_IN.c **** void ADC_SOUND_IN_SetCoherency(uint8 coherency) 
 466:.\Generated_Source\PSoC5/ADC_SOUND_IN.c **** {
 467:.\Generated_Source\PSoC5/ADC_SOUND_IN.c ****     uint8 tmpReg;
 468:.\Generated_Source\PSoC5/ADC_SOUND_IN.c **** 
 469:.\Generated_Source\PSoC5/ADC_SOUND_IN.c ****     tmpReg = ADC_SOUND_IN_DEC_COHER_REG & (uint8)~ADC_SOUND_IN_DEC_SAMP_KEY_MASK;
 470:.\Generated_Source\PSoC5/ADC_SOUND_IN.c ****     tmpReg |= coherency & ADC_SOUND_IN_DEC_SAMP_KEY_MASK;
 471:.\Generated_Source\PSoC5/ADC_SOUND_IN.c ****     ADC_SOUND_IN_DEC_COHER_REG = tmpReg;
 472:.\Generated_Source\PSoC5/ADC_SOUND_IN.c **** }
 473:.\Generated_Source\PSoC5/ADC_SOUND_IN.c **** 
 474:.\Generated_Source\PSoC5/ADC_SOUND_IN.c **** 
 475:.\Generated_Source\PSoC5/ADC_SOUND_IN.c **** /*******************************************************************************
 476:.\Generated_Source\PSoC5/ADC_SOUND_IN.c **** * Function Name: ADC_SOUND_IN_SetGCOR
 477:.\Generated_Source\PSoC5/ADC_SOUND_IN.c **** ********************************************************************************
 478:.\Generated_Source\PSoC5/ADC_SOUND_IN.c **** *
 479:.\Generated_Source\PSoC5/ADC_SOUND_IN.c **** * Summary:
 480:.\Generated_Source\PSoC5/ADC_SOUND_IN.c **** *  Calculates a new GCOR value and writes it into the GCOR register. 
 481:.\Generated_Source\PSoC5/ADC_SOUND_IN.c **** *  The GCOR value is a 16-bit value that represents a gain of 0 to 2. 
 482:.\Generated_Source\PSoC5/ADC_SOUND_IN.c **** *  The ADC result is multiplied by this value before it is placed in the ADC 
 483:.\Generated_Source\PSoC5/ADC_SOUND_IN.c **** *  output registers. The numerical format for the GCOR value is:
 484:.\Generated_Source\PSoC5/ADC_SOUND_IN.c **** *  0x0000 -> 0.000
 485:.\Generated_Source\PSoC5/ADC_SOUND_IN.c **** *  0x8000 -> 1.000
 486:.\Generated_Source\PSoC5/ADC_SOUND_IN.c **** *  0xFFFF -> 1.99997
 487:.\Generated_Source\PSoC5/ADC_SOUND_IN.c **** *  When executing the function, the old GCOR value is multiplied by
 488:.\Generated_Source\PSoC5/ADC_SOUND_IN.c **** *  gainAdjust and reloaded into the GCOR register.
ARM GAS  C:\Users\YongY\AppData\Local\Temp\ccMwH7lk.s 			page 10


 489:.\Generated_Source\PSoC5/ADC_SOUND_IN.c **** *
 490:.\Generated_Source\PSoC5/ADC_SOUND_IN.c **** * Parameters:
 491:.\Generated_Source\PSoC5/ADC_SOUND_IN.c **** *  gainAdjust:  floating point value to set GCOR registers.
 492:.\Generated_Source\PSoC5/ADC_SOUND_IN.c **** *
 493:.\Generated_Source\PSoC5/ADC_SOUND_IN.c **** * Return:
 494:.\Generated_Source\PSoC5/ADC_SOUND_IN.c **** *  uint8: 0 - if GCOR value is within the expected range.
 495:.\Generated_Source\PSoC5/ADC_SOUND_IN.c **** *         1 - the correction value is outside GCOR value range of
 496:.\Generated_Source\PSoC5/ADC_SOUND_IN.c **** *             0.00 to 1.9999.
 497:.\Generated_Source\PSoC5/ADC_SOUND_IN.c **** *
 498:.\Generated_Source\PSoC5/ADC_SOUND_IN.c **** * Side Effects:  The GVAL register is set to the amount of valid bits in the
 499:.\Generated_Source\PSoC5/ADC_SOUND_IN.c **** *                GCOR  register minus one. If GVAL is 15 (0x0F), all 16 bits
 500:.\Generated_Source\PSoC5/ADC_SOUND_IN.c **** *                of the GCOR registers will be valid. If for example GVAL is
 501:.\Generated_Source\PSoC5/ADC_SOUND_IN.c **** *                11 (0x0B) only 12 bits will be valid. The least 4 bits will
 502:.\Generated_Source\PSoC5/ADC_SOUND_IN.c **** *                be lost when the GCOR value is shifted 4 places to the right.
 503:.\Generated_Source\PSoC5/ADC_SOUND_IN.c **** *
 504:.\Generated_Source\PSoC5/ADC_SOUND_IN.c **** ******************************************************************************/
 505:.\Generated_Source\PSoC5/ADC_SOUND_IN.c **** uint8 ADC_SOUND_IN_SetGCOR(float32 gainAdjust) 
 506:.\Generated_Source\PSoC5/ADC_SOUND_IN.c **** {
 507:.\Generated_Source\PSoC5/ADC_SOUND_IN.c ****     uint16 tmpReg;
 508:.\Generated_Source\PSoC5/ADC_SOUND_IN.c ****     uint8 status;
 509:.\Generated_Source\PSoC5/ADC_SOUND_IN.c ****     float32 tmpValue;
 510:.\Generated_Source\PSoC5/ADC_SOUND_IN.c **** 
 511:.\Generated_Source\PSoC5/ADC_SOUND_IN.c ****     tmpReg = ADC_SOUND_IN_gcor[ADC_SOUND_IN_Config - 1u].gcor;
 512:.\Generated_Source\PSoC5/ADC_SOUND_IN.c ****     tmpValue = ((float32)tmpReg / (float32)ADC_SOUND_IN_IDEAL_GAIN_CONST);
 513:.\Generated_Source\PSoC5/ADC_SOUND_IN.c ****     tmpValue = tmpValue * gainAdjust;
 514:.\Generated_Source\PSoC5/ADC_SOUND_IN.c **** 
 515:.\Generated_Source\PSoC5/ADC_SOUND_IN.c ****     if (tmpValue > 1.9999)
 516:.\Generated_Source\PSoC5/ADC_SOUND_IN.c ****     {
 517:.\Generated_Source\PSoC5/ADC_SOUND_IN.c ****         status = 1u;
 518:.\Generated_Source\PSoC5/ADC_SOUND_IN.c ****     }
 519:.\Generated_Source\PSoC5/ADC_SOUND_IN.c ****     else
 520:.\Generated_Source\PSoC5/ADC_SOUND_IN.c ****     {
 521:.\Generated_Source\PSoC5/ADC_SOUND_IN.c ****         tmpValue *= (float32)ADC_SOUND_IN_IDEAL_GAIN_CONST;
 522:.\Generated_Source\PSoC5/ADC_SOUND_IN.c **** 		tmpReg = (uint16)tmpValue;
 523:.\Generated_Source\PSoC5/ADC_SOUND_IN.c ****         CY_SET_REG16(ADC_SOUND_IN_DEC_GCOR_16B_PTR, tmpReg);
 524:.\Generated_Source\PSoC5/ADC_SOUND_IN.c ****         /* Update gain array to be used by SelectConfiguration() API */
 525:.\Generated_Source\PSoC5/ADC_SOUND_IN.c ****        ADC_SOUND_IN_gcor[ADC_SOUND_IN_Config - 1u].gcor = tmpReg;
 526:.\Generated_Source\PSoC5/ADC_SOUND_IN.c **** 
 527:.\Generated_Source\PSoC5/ADC_SOUND_IN.c ****         status = 0u;
 528:.\Generated_Source\PSoC5/ADC_SOUND_IN.c **** 
 529:.\Generated_Source\PSoC5/ADC_SOUND_IN.c ****     }
 530:.\Generated_Source\PSoC5/ADC_SOUND_IN.c ****     return(status);
 531:.\Generated_Source\PSoC5/ADC_SOUND_IN.c **** }
 532:.\Generated_Source\PSoC5/ADC_SOUND_IN.c **** 
 533:.\Generated_Source\PSoC5/ADC_SOUND_IN.c **** 
 534:.\Generated_Source\PSoC5/ADC_SOUND_IN.c **** /******************************************************************************
 535:.\Generated_Source\PSoC5/ADC_SOUND_IN.c **** * Function Name: ADC_SOUND_IN_ReadGCOR
 536:.\Generated_Source\PSoC5/ADC_SOUND_IN.c **** *******************************************************************************
 537:.\Generated_Source\PSoC5/ADC_SOUND_IN.c **** *
 538:.\Generated_Source\PSoC5/ADC_SOUND_IN.c **** * Summary:
 539:.\Generated_Source\PSoC5/ADC_SOUND_IN.c **** *  This API returns the current GCOR register value, normalized based on the
 540:.\Generated_Source\PSoC5/ADC_SOUND_IN.c **** *  GVAL register settings.
 541:.\Generated_Source\PSoC5/ADC_SOUND_IN.c **** *  For example, if the GCOR value is 0x0812 and the GVAL register is set to 
 542:.\Generated_Source\PSoC5/ADC_SOUND_IN.c **** *  11 (0x0B) then the returned value will be shifted by for bits to the left.
 543:.\Generated_Source\PSoC5/ADC_SOUND_IN.c **** *  (Actual GCOR value = 0x0812, returned value = 0x8120)
 544:.\Generated_Source\PSoC5/ADC_SOUND_IN.c **** *
 545:.\Generated_Source\PSoC5/ADC_SOUND_IN.c **** * Parameters:
ARM GAS  C:\Users\YongY\AppData\Local\Temp\ccMwH7lk.s 			page 11


 546:.\Generated_Source\PSoC5/ADC_SOUND_IN.c **** *  None
 547:.\Generated_Source\PSoC5/ADC_SOUND_IN.c **** *
 548:.\Generated_Source\PSoC5/ADC_SOUND_IN.c **** * Return:
 549:.\Generated_Source\PSoC5/ADC_SOUND_IN.c **** *  uint16:  Normalized GCOR value.
 550:.\Generated_Source\PSoC5/ADC_SOUND_IN.c **** *
 551:.\Generated_Source\PSoC5/ADC_SOUND_IN.c **** *******************************************************************************/
 552:.\Generated_Source\PSoC5/ADC_SOUND_IN.c **** uint16 ADC_SOUND_IN_ReadGCOR(void) 
 553:.\Generated_Source\PSoC5/ADC_SOUND_IN.c **** {
 554:.\Generated_Source\PSoC5/ADC_SOUND_IN.c ****     uint8 gValue;
 555:.\Generated_Source\PSoC5/ADC_SOUND_IN.c ****     uint16 gcorValue;
 556:.\Generated_Source\PSoC5/ADC_SOUND_IN.c **** 
 557:.\Generated_Source\PSoC5/ADC_SOUND_IN.c ****     gValue = ADC_SOUND_IN_DEC_GVAL_REG;
 558:.\Generated_Source\PSoC5/ADC_SOUND_IN.c ****     gcorValue = CY_GET_REG16(ADC_SOUND_IN_DEC_GCOR_16B_PTR);
 559:.\Generated_Source\PSoC5/ADC_SOUND_IN.c **** 
 560:.\Generated_Source\PSoC5/ADC_SOUND_IN.c ****     if (gValue < ADC_SOUND_IN_MAX_GVAL)
 561:.\Generated_Source\PSoC5/ADC_SOUND_IN.c ****     {
 562:.\Generated_Source\PSoC5/ADC_SOUND_IN.c ****         gcorValue <<= ADC_SOUND_IN_MAX_GVAL - gValue;
 563:.\Generated_Source\PSoC5/ADC_SOUND_IN.c ****     }
 564:.\Generated_Source\PSoC5/ADC_SOUND_IN.c **** 
 565:.\Generated_Source\PSoC5/ADC_SOUND_IN.c ****     return gcorValue;
 566:.\Generated_Source\PSoC5/ADC_SOUND_IN.c **** }
 567:.\Generated_Source\PSoC5/ADC_SOUND_IN.c **** 
 568:.\Generated_Source\PSoC5/ADC_SOUND_IN.c **** 
 569:.\Generated_Source\PSoC5/ADC_SOUND_IN.c **** /*******************************************************************************
 570:.\Generated_Source\PSoC5/ADC_SOUND_IN.c **** * Function Name: ADC_SOUND_IN_StartConvert
 571:.\Generated_Source\PSoC5/ADC_SOUND_IN.c **** ********************************************************************************
 572:.\Generated_Source\PSoC5/ADC_SOUND_IN.c **** *
 573:.\Generated_Source\PSoC5/ADC_SOUND_IN.c **** * Summary:
 574:.\Generated_Source\PSoC5/ADC_SOUND_IN.c **** *  Forces the ADC to initiate a conversion. If in the "Single Sample"
 575:.\Generated_Source\PSoC5/ADC_SOUND_IN.c **** *  mode, one conversion will be performed then the ADC will halt. If in
 576:.\Generated_Source\PSoC5/ADC_SOUND_IN.c **** *  one of the other three conversion modes, the ADC will run
 577:.\Generated_Source\PSoC5/ADC_SOUND_IN.c **** *  continuously until the ADC_Stop() or ADC_StopConvert() is called.
 578:.\Generated_Source\PSoC5/ADC_SOUND_IN.c **** *
 579:.\Generated_Source\PSoC5/ADC_SOUND_IN.c **** * Parameters:
 580:.\Generated_Source\PSoC5/ADC_SOUND_IN.c **** *  None
 581:.\Generated_Source\PSoC5/ADC_SOUND_IN.c **** *
 582:.\Generated_Source\PSoC5/ADC_SOUND_IN.c **** * Return:
 583:.\Generated_Source\PSoC5/ADC_SOUND_IN.c **** *  None
 584:.\Generated_Source\PSoC5/ADC_SOUND_IN.c **** *
 585:.\Generated_Source\PSoC5/ADC_SOUND_IN.c **** *******************************************************************************/
 586:.\Generated_Source\PSoC5/ADC_SOUND_IN.c **** void ADC_SOUND_IN_StartConvert(void) 
 587:.\Generated_Source\PSoC5/ADC_SOUND_IN.c **** {
 588:.\Generated_Source\PSoC5/ADC_SOUND_IN.c ****     /* Start the conversion */
 589:.\Generated_Source\PSoC5/ADC_SOUND_IN.c ****     ADC_SOUND_IN_DEC_CR_REG |= ADC_SOUND_IN_DEC_START_CONV;
 590:.\Generated_Source\PSoC5/ADC_SOUND_IN.c **** }
 591:.\Generated_Source\PSoC5/ADC_SOUND_IN.c **** 
 592:.\Generated_Source\PSoC5/ADC_SOUND_IN.c **** 
 593:.\Generated_Source\PSoC5/ADC_SOUND_IN.c **** /*******************************************************************************
 594:.\Generated_Source\PSoC5/ADC_SOUND_IN.c **** * Function Name: ADC_SOUND_IN_StopConvert
 595:.\Generated_Source\PSoC5/ADC_SOUND_IN.c **** ********************************************************************************
 596:.\Generated_Source\PSoC5/ADC_SOUND_IN.c **** *
 597:.\Generated_Source\PSoC5/ADC_SOUND_IN.c **** * Summary:
 598:.\Generated_Source\PSoC5/ADC_SOUND_IN.c **** *  Forces the ADC to stop all conversions. If the ADC is in the middle of a
 599:.\Generated_Source\PSoC5/ADC_SOUND_IN.c **** *  conversion, the ADC will be reset and not provide a result for that partial
 600:.\Generated_Source\PSoC5/ADC_SOUND_IN.c **** *  conversion.
 601:.\Generated_Source\PSoC5/ADC_SOUND_IN.c **** *
 602:.\Generated_Source\PSoC5/ADC_SOUND_IN.c **** * Parameters:
ARM GAS  C:\Users\YongY\AppData\Local\Temp\ccMwH7lk.s 			page 12


 603:.\Generated_Source\PSoC5/ADC_SOUND_IN.c **** *  None
 604:.\Generated_Source\PSoC5/ADC_SOUND_IN.c **** *
 605:.\Generated_Source\PSoC5/ADC_SOUND_IN.c **** * Return:
 606:.\Generated_Source\PSoC5/ADC_SOUND_IN.c **** *  None
 607:.\Generated_Source\PSoC5/ADC_SOUND_IN.c **** *
 608:.\Generated_Source\PSoC5/ADC_SOUND_IN.c **** *******************************************************************************/
 609:.\Generated_Source\PSoC5/ADC_SOUND_IN.c **** void ADC_SOUND_IN_StopConvert(void) 
 610:.\Generated_Source\PSoC5/ADC_SOUND_IN.c **** {
 611:.\Generated_Source\PSoC5/ADC_SOUND_IN.c ****     /* Stop all conversions */
 612:.\Generated_Source\PSoC5/ADC_SOUND_IN.c ****     ADC_SOUND_IN_DEC_CR_REG &= (uint8)~ADC_SOUND_IN_DEC_START_CONV;
 613:.\Generated_Source\PSoC5/ADC_SOUND_IN.c **** }
 614:.\Generated_Source\PSoC5/ADC_SOUND_IN.c **** 
 615:.\Generated_Source\PSoC5/ADC_SOUND_IN.c **** 
 616:.\Generated_Source\PSoC5/ADC_SOUND_IN.c **** /*******************************************************************************
 617:.\Generated_Source\PSoC5/ADC_SOUND_IN.c **** * Function Name: ADC_SOUND_IN_IsEndConversion
 618:.\Generated_Source\PSoC5/ADC_SOUND_IN.c **** ********************************************************************************
 619:.\Generated_Source\PSoC5/ADC_SOUND_IN.c **** *
 620:.\Generated_Source\PSoC5/ADC_SOUND_IN.c **** * Summary:
 621:.\Generated_Source\PSoC5/ADC_SOUND_IN.c **** *  Checks the status that the most recently started conversion has completed.
 622:.\Generated_Source\PSoC5/ADC_SOUND_IN.c **** *  The status is cleared by any of ADC_GetResult8(), ADC_GetResult16() or 
 623:.\Generated_Source\PSoC5/ADC_SOUND_IN.c **** *  ADC_GetResult32() API.
 624:.\Generated_Source\PSoC5/ADC_SOUND_IN.c **** *  This function provides the programmer with two options. In one mode this 
 625:.\Generated_Source\PSoC5/ADC_SOUND_IN.c **** *  function immediately returns with the conversion status. In the other mode,
 626:.\Generated_Source\PSoC5/ADC_SOUND_IN.c **** *  the function does not return (blocking) until the conversion has completed.
 627:.\Generated_Source\PSoC5/ADC_SOUND_IN.c **** *
 628:.\Generated_Source\PSoC5/ADC_SOUND_IN.c **** * Parameters:
 629:.\Generated_Source\PSoC5/ADC_SOUND_IN.c **** *  retMode: Check conversion return mode. See the following table for options.
 630:.\Generated_Source\PSoC5/ADC_SOUND_IN.c **** *   ADC_SOUND_IN_RETURN_STATUS -   Immediately returns conversion result
 631:.\Generated_Source\PSoC5/ADC_SOUND_IN.c **** *                                      status.
 632:.\Generated_Source\PSoC5/ADC_SOUND_IN.c **** *   ADC_SOUND_IN_WAIT_FOR_RESULT - Does not return until ADC conversion
 633:.\Generated_Source\PSoC5/ADC_SOUND_IN.c **** *                                      is complete.
 634:.\Generated_Source\PSoC5/ADC_SOUND_IN.c **** *
 635:.\Generated_Source\PSoC5/ADC_SOUND_IN.c **** * Return:
 636:.\Generated_Source\PSoC5/ADC_SOUND_IN.c **** *  If a nonzero value is returned, the last conversion has completed.
 637:.\Generated_Source\PSoC5/ADC_SOUND_IN.c **** *  If the returned value is zero, the ADC is still calculating the last result.
 638:.\Generated_Source\PSoC5/ADC_SOUND_IN.c **** *
 639:.\Generated_Source\PSoC5/ADC_SOUND_IN.c **** * Global variables:
 640:.\Generated_Source\PSoC5/ADC_SOUND_IN.c **** *  ADC_SOUND_IN_convDone:  Used to check whether conversion is complete
 641:.\Generated_Source\PSoC5/ADC_SOUND_IN.c **** *  or not for single sample mode with resolution is above 16
 642:.\Generated_Source\PSoC5/ADC_SOUND_IN.c **** *
 643:.\Generated_Source\PSoC5/ADC_SOUND_IN.c **** *******************************************************************************/
 644:.\Generated_Source\PSoC5/ADC_SOUND_IN.c **** uint8 ADC_SOUND_IN_IsEndConversion(uint8 retMode) 
 645:.\Generated_Source\PSoC5/ADC_SOUND_IN.c **** {
 646:.\Generated_Source\PSoC5/ADC_SOUND_IN.c ****     uint8 status;
 647:.\Generated_Source\PSoC5/ADC_SOUND_IN.c **** 
 648:.\Generated_Source\PSoC5/ADC_SOUND_IN.c ****     do
 649:.\Generated_Source\PSoC5/ADC_SOUND_IN.c ****     {
 650:.\Generated_Source\PSoC5/ADC_SOUND_IN.c ****         /* Check for stop convert if conversion mode is Single Sample with
 651:.\Generated_Source\PSoC5/ADC_SOUND_IN.c ****         *   resolution above 16 bit
 652:.\Generated_Source\PSoC5/ADC_SOUND_IN.c ****         */
 653:.\Generated_Source\PSoC5/ADC_SOUND_IN.c ****         if(ADC_SOUND_IN_stopConversion != 0u)
 654:.\Generated_Source\PSoC5/ADC_SOUND_IN.c ****         {
 655:.\Generated_Source\PSoC5/ADC_SOUND_IN.c ****             status = ADC_SOUND_IN_convDone;
 656:.\Generated_Source\PSoC5/ADC_SOUND_IN.c ****         }
 657:.\Generated_Source\PSoC5/ADC_SOUND_IN.c ****         else
 658:.\Generated_Source\PSoC5/ADC_SOUND_IN.c ****         {
 659:.\Generated_Source\PSoC5/ADC_SOUND_IN.c ****             status = ADC_SOUND_IN_DEC_SR_REG & ADC_SOUND_IN_DEC_CONV_DONE;
ARM GAS  C:\Users\YongY\AppData\Local\Temp\ccMwH7lk.s 			page 13


 660:.\Generated_Source\PSoC5/ADC_SOUND_IN.c ****         }
 661:.\Generated_Source\PSoC5/ADC_SOUND_IN.c ****     }while((status != ADC_SOUND_IN_DEC_CONV_DONE) && (retMode == ADC_SOUND_IN_WAIT_FOR_RESULT));
 662:.\Generated_Source\PSoC5/ADC_SOUND_IN.c **** 
 663:.\Generated_Source\PSoC5/ADC_SOUND_IN.c ****     return(status);
 664:.\Generated_Source\PSoC5/ADC_SOUND_IN.c **** }
 665:.\Generated_Source\PSoC5/ADC_SOUND_IN.c **** 
 666:.\Generated_Source\PSoC5/ADC_SOUND_IN.c **** 
 667:.\Generated_Source\PSoC5/ADC_SOUND_IN.c **** /*******************************************************************************
 668:.\Generated_Source\PSoC5/ADC_SOUND_IN.c **** * Function Name: ADC_SOUND_IN_GetResult8
 669:.\Generated_Source\PSoC5/ADC_SOUND_IN.c **** ********************************************************************************
 670:.\Generated_Source\PSoC5/ADC_SOUND_IN.c **** *
 671:.\Generated_Source\PSoC5/ADC_SOUND_IN.c **** * Summary:
 672:.\Generated_Source\PSoC5/ADC_SOUND_IN.c **** *  This function returns the result of an 8-bit conversion. If the
 673:.\Generated_Source\PSoC5/ADC_SOUND_IN.c **** *  resolution is set greater than 8-bits, the LSB of the result will be
 674:.\Generated_Source\PSoC5/ADC_SOUND_IN.c **** *  returned. When the ADC is configured for 8-bit single ended mode,
 675:.\Generated_Source\PSoC5/ADC_SOUND_IN.c **** *  the ADC_GetResult16() function should be used instead. This
 676:.\Generated_Source\PSoC5/ADC_SOUND_IN.c **** *  function returns only signed 8-bit values. The maximum positive
 677:.\Generated_Source\PSoC5/ADC_SOUND_IN.c **** *  signed 8-bit value is 127, but in singled ended 8-bit mode, the
 678:.\Generated_Source\PSoC5/ADC_SOUND_IN.c **** *  maximum positive value is 255.
 679:.\Generated_Source\PSoC5/ADC_SOUND_IN.c **** *
 680:.\Generated_Source\PSoC5/ADC_SOUND_IN.c **** * Parameters:
 681:.\Generated_Source\PSoC5/ADC_SOUND_IN.c **** *  None
 682:.\Generated_Source\PSoC5/ADC_SOUND_IN.c **** *
 683:.\Generated_Source\PSoC5/ADC_SOUND_IN.c **** * Return:
 684:.\Generated_Source\PSoC5/ADC_SOUND_IN.c **** *  int8: The LSB of the last ADC conversion.
 685:.\Generated_Source\PSoC5/ADC_SOUND_IN.c **** *
 686:.\Generated_Source\PSoC5/ADC_SOUND_IN.c **** * Global variables:
 687:.\Generated_Source\PSoC5/ADC_SOUND_IN.c **** *  ADC_SOUND_IN_convDone:  Cleared in single sample mode with resolution
 688:.\Generated_Source\PSoC5/ADC_SOUND_IN.c **** *                              above 16 bits
 689:.\Generated_Source\PSoC5/ADC_SOUND_IN.c **** *
 690:.\Generated_Source\PSoC5/ADC_SOUND_IN.c **** *******************************************************************************/
 691:.\Generated_Source\PSoC5/ADC_SOUND_IN.c **** int8 ADC_SOUND_IN_GetResult8( void ) 
 692:.\Generated_Source\PSoC5/ADC_SOUND_IN.c **** {
 693:.\Generated_Source\PSoC5/ADC_SOUND_IN.c ****     int8 result;
 694:.\Generated_Source\PSoC5/ADC_SOUND_IN.c ****     uint8 coherency;
 695:.\Generated_Source\PSoC5/ADC_SOUND_IN.c **** 
 696:.\Generated_Source\PSoC5/ADC_SOUND_IN.c ****     /* Read active coherency configuration */
 697:.\Generated_Source\PSoC5/ADC_SOUND_IN.c ****     coherency = ADC_SOUND_IN_DEC_COHER_REG & ADC_SOUND_IN_DEC_SAMP_KEY_MASK;
 698:.\Generated_Source\PSoC5/ADC_SOUND_IN.c **** 
 699:.\Generated_Source\PSoC5/ADC_SOUND_IN.c ****     result = (int8)ADC_SOUND_IN_DEC_SAMP_REG;
 700:.\Generated_Source\PSoC5/ADC_SOUND_IN.c **** 
 701:.\Generated_Source\PSoC5/ADC_SOUND_IN.c ****     if(coherency == ADC_SOUND_IN_DEC_SAMP_KEY_MID)
 702:.\Generated_Source\PSoC5/ADC_SOUND_IN.c ****     {   /* Dummy read of the middle byte to unlock the coherency */
 703:.\Generated_Source\PSoC5/ADC_SOUND_IN.c ****         (void)ADC_SOUND_IN_DEC_SAMPM_REG;
 704:.\Generated_Source\PSoC5/ADC_SOUND_IN.c ****     }
 705:.\Generated_Source\PSoC5/ADC_SOUND_IN.c ****     else  if(coherency == ADC_SOUND_IN_DEC_SAMP_KEY_HIGH)
 706:.\Generated_Source\PSoC5/ADC_SOUND_IN.c ****     {   /* Dummy read of the MSB byte to unlock the coherency */
 707:.\Generated_Source\PSoC5/ADC_SOUND_IN.c ****         (void)ADC_SOUND_IN_DEC_SAMPH_REG;
 708:.\Generated_Source\PSoC5/ADC_SOUND_IN.c ****     }
 709:.\Generated_Source\PSoC5/ADC_SOUND_IN.c ****     else /*No action required for other coherency */
 710:.\Generated_Source\PSoC5/ADC_SOUND_IN.c ****     {
 711:.\Generated_Source\PSoC5/ADC_SOUND_IN.c ****     }
 712:.\Generated_Source\PSoC5/ADC_SOUND_IN.c ****     /* Clear conversion complete status in Single Sample mode with resolution above 16 bit */
 713:.\Generated_Source\PSoC5/ADC_SOUND_IN.c ****     if(ADC_SOUND_IN_stopConversion != 0u)
 714:.\Generated_Source\PSoC5/ADC_SOUND_IN.c ****     {
 715:.\Generated_Source\PSoC5/ADC_SOUND_IN.c ****         ADC_SOUND_IN_convDone = 0u;
 716:.\Generated_Source\PSoC5/ADC_SOUND_IN.c ****     }
ARM GAS  C:\Users\YongY\AppData\Local\Temp\ccMwH7lk.s 			page 14


 717:.\Generated_Source\PSoC5/ADC_SOUND_IN.c ****     return (result);
 718:.\Generated_Source\PSoC5/ADC_SOUND_IN.c **** }
 719:.\Generated_Source\PSoC5/ADC_SOUND_IN.c **** 
 720:.\Generated_Source\PSoC5/ADC_SOUND_IN.c **** 
 721:.\Generated_Source\PSoC5/ADC_SOUND_IN.c **** /*******************************************************************************
 722:.\Generated_Source\PSoC5/ADC_SOUND_IN.c **** * Function Name: ADC_SOUND_IN_GetResult16
 723:.\Generated_Source\PSoC5/ADC_SOUND_IN.c **** ********************************************************************************
 724:.\Generated_Source\PSoC5/ADC_SOUND_IN.c **** *
 725:.\Generated_Source\PSoC5/ADC_SOUND_IN.c **** * Summary:
 726:.\Generated_Source\PSoC5/ADC_SOUND_IN.c **** *  Returns a 16-bit result for a conversion with a result that has a
 727:.\Generated_Source\PSoC5/ADC_SOUND_IN.c **** *  resolution of 8 to 16 bits. If the resolution is set greater than 16-bits,
 728:.\Generated_Source\PSoC5/ADC_SOUND_IN.c **** *  it will return the 16 least significant bits of the result. When the ADC
 729:.\Generated_Source\PSoC5/ADC_SOUND_IN.c **** *  is configured for 16-bit single ended mode, the ADC_GetResult32()
 730:.\Generated_Source\PSoC5/ADC_SOUND_IN.c **** *  function should be used instead. This function returns only signed
 731:.\Generated_Source\PSoC5/ADC_SOUND_IN.c **** *  16-bit result, which allows a maximum positive value of 32767, not 65535.
 732:.\Generated_Source\PSoC5/ADC_SOUND_IN.c **** *  This function supports different coherency settings.
 733:.\Generated_Source\PSoC5/ADC_SOUND_IN.c **** *
 734:.\Generated_Source\PSoC5/ADC_SOUND_IN.c **** * Parameters:
 735:.\Generated_Source\PSoC5/ADC_SOUND_IN.c **** *   void
 736:.\Generated_Source\PSoC5/ADC_SOUND_IN.c **** *
 737:.\Generated_Source\PSoC5/ADC_SOUND_IN.c **** * Return:
 738:.\Generated_Source\PSoC5/ADC_SOUND_IN.c **** *  int16:  ADC result.
 739:.\Generated_Source\PSoC5/ADC_SOUND_IN.c **** *
 740:.\Generated_Source\PSoC5/ADC_SOUND_IN.c **** * Global variables:
 741:.\Generated_Source\PSoC5/ADC_SOUND_IN.c **** *  ADC_SOUND_IN_convDone:  Cleared in single sample mode with resolution
 742:.\Generated_Source\PSoC5/ADC_SOUND_IN.c **** *                              above 16 bits
 743:.\Generated_Source\PSoC5/ADC_SOUND_IN.c **** *
 744:.\Generated_Source\PSoC5/ADC_SOUND_IN.c **** *******************************************************************************/
 745:.\Generated_Source\PSoC5/ADC_SOUND_IN.c **** int16 ADC_SOUND_IN_GetResult16(void) 
 746:.\Generated_Source\PSoC5/ADC_SOUND_IN.c **** {
 747:.\Generated_Source\PSoC5/ADC_SOUND_IN.c ****     uint16 result;
 748:.\Generated_Source\PSoC5/ADC_SOUND_IN.c ****     uint8 coherency;
 749:.\Generated_Source\PSoC5/ADC_SOUND_IN.c **** 
 750:.\Generated_Source\PSoC5/ADC_SOUND_IN.c ****     /* Read active coherency configuration */
 751:.\Generated_Source\PSoC5/ADC_SOUND_IN.c ****     coherency = ADC_SOUND_IN_DEC_COHER_REG & ADC_SOUND_IN_DEC_SAMP_KEY_MASK;
 752:.\Generated_Source\PSoC5/ADC_SOUND_IN.c **** 
 753:.\Generated_Source\PSoC5/ADC_SOUND_IN.c ****     if(coherency <= ADC_SOUND_IN_DEC_SAMP_KEY_LOW)
 754:.\Generated_Source\PSoC5/ADC_SOUND_IN.c ****     {   /*  Use default method to read result registers i.e. LSB byte read at the end*/
 755:.\Generated_Source\PSoC5/ADC_SOUND_IN.c ****         #if (CY_PSOC3)
 756:.\Generated_Source\PSoC5/ADC_SOUND_IN.c ****             result = ADC_SOUND_IN_DEC_SAMPM_REG;
 757:.\Generated_Source\PSoC5/ADC_SOUND_IN.c ****             result = (result << 8u) | ADC_SOUND_IN_DEC_SAMP_REG;
 758:.\Generated_Source\PSoC5/ADC_SOUND_IN.c ****         #else
 759:.\Generated_Source\PSoC5/ADC_SOUND_IN.c ****             result = (CY_GET_REG16(ADC_SOUND_IN_DEC_SAMP_16B_PTR));
 760:.\Generated_Source\PSoC5/ADC_SOUND_IN.c ****         #endif /* CY_PSOC3 */
 761:.\Generated_Source\PSoC5/ADC_SOUND_IN.c ****     }
 762:.\Generated_Source\PSoC5/ADC_SOUND_IN.c ****     else /* MID or HIGH */
 763:.\Generated_Source\PSoC5/ADC_SOUND_IN.c ****     {   /* Read middle byte at the end */
 764:.\Generated_Source\PSoC5/ADC_SOUND_IN.c ****         #if (CY_PSOC3)
 765:.\Generated_Source\PSoC5/ADC_SOUND_IN.c ****             result = (CY_GET_REG16(ADC_SOUND_IN_DEC_SAMP_16B_PTR));
 766:.\Generated_Source\PSoC5/ADC_SOUND_IN.c ****         #else
 767:.\Generated_Source\PSoC5/ADC_SOUND_IN.c ****             result = ADC_SOUND_IN_DEC_SAMP_REG;
 768:.\Generated_Source\PSoC5/ADC_SOUND_IN.c ****             result |=  (uint16)((uint16)ADC_SOUND_IN_DEC_SAMPM_REG << 8u);
 769:.\Generated_Source\PSoC5/ADC_SOUND_IN.c ****         #endif /* CY_PSOC3 */
 770:.\Generated_Source\PSoC5/ADC_SOUND_IN.c ****         if(coherency == ADC_SOUND_IN_DEC_SAMP_KEY_HIGH)
 771:.\Generated_Source\PSoC5/ADC_SOUND_IN.c ****         {   /* Dummy read of the MSB byte to unlock the coherency */
 772:.\Generated_Source\PSoC5/ADC_SOUND_IN.c ****             (void)ADC_SOUND_IN_DEC_SAMPH_REG;
 773:.\Generated_Source\PSoC5/ADC_SOUND_IN.c ****         }
ARM GAS  C:\Users\YongY\AppData\Local\Temp\ccMwH7lk.s 			page 15


 774:.\Generated_Source\PSoC5/ADC_SOUND_IN.c ****     }
 775:.\Generated_Source\PSoC5/ADC_SOUND_IN.c ****     /* Clear conversion complete status in Single Sample mode with resolution above 16 bit */
 776:.\Generated_Source\PSoC5/ADC_SOUND_IN.c ****     if(ADC_SOUND_IN_stopConversion != 0u)
 777:.\Generated_Source\PSoC5/ADC_SOUND_IN.c ****     {
 778:.\Generated_Source\PSoC5/ADC_SOUND_IN.c ****         ADC_SOUND_IN_convDone = 0u;
 779:.\Generated_Source\PSoC5/ADC_SOUND_IN.c ****     }
 780:.\Generated_Source\PSoC5/ADC_SOUND_IN.c **** 
 781:.\Generated_Source\PSoC5/ADC_SOUND_IN.c ****     return ((int16)result);
 782:.\Generated_Source\PSoC5/ADC_SOUND_IN.c **** }
 783:.\Generated_Source\PSoC5/ADC_SOUND_IN.c **** 
 784:.\Generated_Source\PSoC5/ADC_SOUND_IN.c **** 
 785:.\Generated_Source\PSoC5/ADC_SOUND_IN.c **** /*******************************************************************************
 786:.\Generated_Source\PSoC5/ADC_SOUND_IN.c **** * Function Name: ADC_SOUND_IN_GetResult32
 787:.\Generated_Source\PSoC5/ADC_SOUND_IN.c **** ********************************************************************************
 788:.\Generated_Source\PSoC5/ADC_SOUND_IN.c **** *
 789:.\Generated_Source\PSoC5/ADC_SOUND_IN.c **** * Summary:
 790:.\Generated_Source\PSoC5/ADC_SOUND_IN.c **** *  Returns a 32-bit result for a conversion with a result that has a
 791:.\Generated_Source\PSoC5/ADC_SOUND_IN.c **** *  resolution of 8 to 20 bits.
 792:.\Generated_Source\PSoC5/ADC_SOUND_IN.c **** *  This function supports different coherency settings.
 793:.\Generated_Source\PSoC5/ADC_SOUND_IN.c **** *
 794:.\Generated_Source\PSoC5/ADC_SOUND_IN.c **** * Parameters:
 795:.\Generated_Source\PSoC5/ADC_SOUND_IN.c **** *  None
 796:.\Generated_Source\PSoC5/ADC_SOUND_IN.c **** *
 797:.\Generated_Source\PSoC5/ADC_SOUND_IN.c **** * Return:
 798:.\Generated_Source\PSoC5/ADC_SOUND_IN.c **** *  int32: Result of the last ADC conversion.
 799:.\Generated_Source\PSoC5/ADC_SOUND_IN.c **** *
 800:.\Generated_Source\PSoC5/ADC_SOUND_IN.c **** * Global variables:
 801:.\Generated_Source\PSoC5/ADC_SOUND_IN.c **** *  ADC_SOUND_IN_convDone:  Cleared in single sample mode with resolution
 802:.\Generated_Source\PSoC5/ADC_SOUND_IN.c **** *                              above 16 bits
 803:.\Generated_Source\PSoC5/ADC_SOUND_IN.c **** *
 804:.\Generated_Source\PSoC5/ADC_SOUND_IN.c **** *******************************************************************************/
 805:.\Generated_Source\PSoC5/ADC_SOUND_IN.c **** int32 ADC_SOUND_IN_GetResult32(void) 
 806:.\Generated_Source\PSoC5/ADC_SOUND_IN.c **** {
 807:.\Generated_Source\PSoC5/ADC_SOUND_IN.c ****     uint32 result;
 808:.\Generated_Source\PSoC5/ADC_SOUND_IN.c ****     uint8 coherency;
 809:.\Generated_Source\PSoC5/ADC_SOUND_IN.c ****     #if (CY_PSOC3)
 810:.\Generated_Source\PSoC5/ADC_SOUND_IN.c **** 	    uint16 tmp;
 811:.\Generated_Source\PSoC5/ADC_SOUND_IN.c ****     #endif /* CY_PSOC3 */
 812:.\Generated_Source\PSoC5/ADC_SOUND_IN.c **** 
 813:.\Generated_Source\PSoC5/ADC_SOUND_IN.c ****     /* Read active coherency configuration */
 814:.\Generated_Source\PSoC5/ADC_SOUND_IN.c ****     coherency = ADC_SOUND_IN_DEC_COHER_REG & ADC_SOUND_IN_DEC_SAMP_KEY_MASK;
 815:.\Generated_Source\PSoC5/ADC_SOUND_IN.c **** 
 816:.\Generated_Source\PSoC5/ADC_SOUND_IN.c ****     if(coherency <= ADC_SOUND_IN_DEC_SAMP_KEY_LOW)
 817:.\Generated_Source\PSoC5/ADC_SOUND_IN.c ****     {   /*  Use default method to read result registers i.e. LSB byte read at the end*/
 818:.\Generated_Source\PSoC5/ADC_SOUND_IN.c ****         #if (CY_PSOC3)
 819:.\Generated_Source\PSoC5/ADC_SOUND_IN.c ****             result = ADC_SOUND_IN_DEC_SAMPH_REG;
 820:.\Generated_Source\PSoC5/ADC_SOUND_IN.c ****             if((result & 0x80u) != 0u)
 821:.\Generated_Source\PSoC5/ADC_SOUND_IN.c ****             {   /* Sign extend */
 822:.\Generated_Source\PSoC5/ADC_SOUND_IN.c ****                 result |= 0xFF00u;
 823:.\Generated_Source\PSoC5/ADC_SOUND_IN.c ****             }
 824:.\Generated_Source\PSoC5/ADC_SOUND_IN.c ****             result = (result << 8u) | ADC_SOUND_IN_DEC_SAMPM_REG;
 825:.\Generated_Source\PSoC5/ADC_SOUND_IN.c ****             result = (result << 8u) | ADC_SOUND_IN_DEC_SAMP_REG;
 826:.\Generated_Source\PSoC5/ADC_SOUND_IN.c ****         #else
 827:.\Generated_Source\PSoC5/ADC_SOUND_IN.c ****             result = CY_GET_REG16(ADC_SOUND_IN_DEC_SAMPH_16B_PTR);
 828:.\Generated_Source\PSoC5/ADC_SOUND_IN.c ****             result = (result << 16u) | (CY_GET_REG16(ADC_SOUND_IN_DEC_SAMP_16B_PTR));
 829:.\Generated_Source\PSoC5/ADC_SOUND_IN.c ****         #endif /* CY_PSOC3 */
 830:.\Generated_Source\PSoC5/ADC_SOUND_IN.c ****     }
ARM GAS  C:\Users\YongY\AppData\Local\Temp\ccMwH7lk.s 			page 16


 831:.\Generated_Source\PSoC5/ADC_SOUND_IN.c ****     else if(coherency == ADC_SOUND_IN_DEC_SAMP_KEY_MID)
 832:.\Generated_Source\PSoC5/ADC_SOUND_IN.c ****     {   /* Read middle byte at the end */
 833:.\Generated_Source\PSoC5/ADC_SOUND_IN.c ****         #if (CY_PSOC3)
 834:.\Generated_Source\PSoC5/ADC_SOUND_IN.c ****             result = ADC_SOUND_IN_DEC_SAMPH_REG;
 835:.\Generated_Source\PSoC5/ADC_SOUND_IN.c ****             if((result & 0x80u) != 0u)
 836:.\Generated_Source\PSoC5/ADC_SOUND_IN.c ****             {   /* Sign extend */
 837:.\Generated_Source\PSoC5/ADC_SOUND_IN.c ****                 result |= 0xFF00u;
 838:.\Generated_Source\PSoC5/ADC_SOUND_IN.c ****             }
 839:.\Generated_Source\PSoC5/ADC_SOUND_IN.c ****             result = (result << 16u) | (CY_GET_REG16(ADC_SOUND_IN_DEC_SAMP_16B_PTR));
 840:.\Generated_Source\PSoC5/ADC_SOUND_IN.c ****         #else
 841:.\Generated_Source\PSoC5/ADC_SOUND_IN.c ****             result = CY_GET_REG16(ADC_SOUND_IN_DEC_SAMPH_16B_PTR);
 842:.\Generated_Source\PSoC5/ADC_SOUND_IN.c ****             result = (result << 16u) | ADC_SOUND_IN_DEC_SAMP_REG;
 843:.\Generated_Source\PSoC5/ADC_SOUND_IN.c ****             result |=  (uint32)((uint32)ADC_SOUND_IN_DEC_SAMPM_REG << 8u);
 844:.\Generated_Source\PSoC5/ADC_SOUND_IN.c ****         #endif /* CY_PSOC3 */
 845:.\Generated_Source\PSoC5/ADC_SOUND_IN.c ****     }
 846:.\Generated_Source\PSoC5/ADC_SOUND_IN.c ****     else /*ADC_SOUND_IN_DEC_SAMP_KEY_HIGH */
 847:.\Generated_Source\PSoC5/ADC_SOUND_IN.c ****     {
 848:.\Generated_Source\PSoC5/ADC_SOUND_IN.c ****         /* Read MSB byte at the end */
 849:.\Generated_Source\PSoC5/ADC_SOUND_IN.c ****         #if (CY_PSOC3)
 850:.\Generated_Source\PSoC5/ADC_SOUND_IN.c ****             result = CY_GET_REG16(ADC_SOUND_IN_DEC_SAMP_16B_PTR);
 851:.\Generated_Source\PSoC5/ADC_SOUND_IN.c **** 			tmp = ADC_SOUND_IN_DEC_SAMPH_REG;
 852:.\Generated_Source\PSoC5/ADC_SOUND_IN.c ****             if((tmp & 0x80u) != 0u)
 853:.\Generated_Source\PSoC5/ADC_SOUND_IN.c ****             {   /* Sign extend */
 854:.\Generated_Source\PSoC5/ADC_SOUND_IN.c ****                 tmp |= 0xFF00u;
 855:.\Generated_Source\PSoC5/ADC_SOUND_IN.c ****             }
 856:.\Generated_Source\PSoC5/ADC_SOUND_IN.c ****             result |= (uint32)tmp << 16u;
 857:.\Generated_Source\PSoC5/ADC_SOUND_IN.c ****         #else
 858:.\Generated_Source\PSoC5/ADC_SOUND_IN.c ****             result = CY_GET_REG16(ADC_SOUND_IN_DEC_SAMP_16B_PTR);
 859:.\Generated_Source\PSoC5/ADC_SOUND_IN.c ****             result |= (uint32)((uint32)CY_GET_REG16(ADC_SOUND_IN_DEC_SAMPH_16B_PTR) << 16u);
 860:.\Generated_Source\PSoC5/ADC_SOUND_IN.c ****         #endif /* CY_PSOC3 */
 861:.\Generated_Source\PSoC5/ADC_SOUND_IN.c ****     }
 862:.\Generated_Source\PSoC5/ADC_SOUND_IN.c ****     /* Clear conversion complete status in Single Sample mode with resolution above 16 bit */
 863:.\Generated_Source\PSoC5/ADC_SOUND_IN.c ****     if(ADC_SOUND_IN_stopConversion != 0u)
 864:.\Generated_Source\PSoC5/ADC_SOUND_IN.c ****     {
 865:.\Generated_Source\PSoC5/ADC_SOUND_IN.c ****         ADC_SOUND_IN_convDone = 0u;
 866:.\Generated_Source\PSoC5/ADC_SOUND_IN.c ****     }
 867:.\Generated_Source\PSoC5/ADC_SOUND_IN.c **** 
 868:.\Generated_Source\PSoC5/ADC_SOUND_IN.c ****     return ((int32)result);
 869:.\Generated_Source\PSoC5/ADC_SOUND_IN.c **** }
 870:.\Generated_Source\PSoC5/ADC_SOUND_IN.c **** 
 871:.\Generated_Source\PSoC5/ADC_SOUND_IN.c **** 
 872:.\Generated_Source\PSoC5/ADC_SOUND_IN.c **** /*******************************************************************************
 873:.\Generated_Source\PSoC5/ADC_SOUND_IN.c **** * Function Name: ADC_SOUND_IN_SetOffset
 874:.\Generated_Source\PSoC5/ADC_SOUND_IN.c **** ********************************************************************************
 875:.\Generated_Source\PSoC5/ADC_SOUND_IN.c **** *
 876:.\Generated_Source\PSoC5/ADC_SOUND_IN.c **** * Summary:
 877:.\Generated_Source\PSoC5/ADC_SOUND_IN.c **** *  Sets the ADC offset which is used by the functions ADC_CountsTo_uVolts, 
 878:.\Generated_Source\PSoC5/ADC_SOUND_IN.c **** *  ADC_CountsTo_mVolts, and ADC_CountsTo_Volts to subtract the offset from the 
 879:.\Generated_Source\PSoC5/ADC_SOUND_IN.c **** *  given reading before calculating the voltage conversion.
 880:.\Generated_Source\PSoC5/ADC_SOUND_IN.c **** *
 881:.\Generated_Source\PSoC5/ADC_SOUND_IN.c **** * Parameters:
 882:.\Generated_Source\PSoC5/ADC_SOUND_IN.c **** *  int32:  This value is a measured value when the inputs are shorted or 
 883:.\Generated_Source\PSoC5/ADC_SOUND_IN.c **** *          connected to the same input voltage.
 884:.\Generated_Source\PSoC5/ADC_SOUND_IN.c **** *
 885:.\Generated_Source\PSoC5/ADC_SOUND_IN.c **** * Return:
 886:.\Generated_Source\PSoC5/ADC_SOUND_IN.c **** *  None
 887:.\Generated_Source\PSoC5/ADC_SOUND_IN.c **** *
ARM GAS  C:\Users\YongY\AppData\Local\Temp\ccMwH7lk.s 			page 17


 888:.\Generated_Source\PSoC5/ADC_SOUND_IN.c **** * Global variables:
 889:.\Generated_Source\PSoC5/ADC_SOUND_IN.c **** *  ADC_SOUND_IN_Offset:  Modified to set the user provided offset. This
 890:.\Generated_Source\PSoC5/ADC_SOUND_IN.c **** *  variable is used for offset calibration purpose.
 891:.\Generated_Source\PSoC5/ADC_SOUND_IN.c **** *
 892:.\Generated_Source\PSoC5/ADC_SOUND_IN.c **** * Side Effects:
 893:.\Generated_Source\PSoC5/ADC_SOUND_IN.c **** *  Affects the ADC_SOUND_IN_CountsTo_Volts,
 894:.\Generated_Source\PSoC5/ADC_SOUND_IN.c **** *  ADC_SOUND_IN_CountsTo_mVolts, ADC_SOUND_IN_CountsTo_uVolts functions
 895:.\Generated_Source\PSoC5/ADC_SOUND_IN.c **** *  by subtracting the given offset.
 896:.\Generated_Source\PSoC5/ADC_SOUND_IN.c **** *
 897:.\Generated_Source\PSoC5/ADC_SOUND_IN.c **** *******************************************************************************/
 898:.\Generated_Source\PSoC5/ADC_SOUND_IN.c **** void ADC_SOUND_IN_SetOffset(int32 offset) 
 899:.\Generated_Source\PSoC5/ADC_SOUND_IN.c **** {
 900:.\Generated_Source\PSoC5/ADC_SOUND_IN.c **** 
 901:.\Generated_Source\PSoC5/ADC_SOUND_IN.c ****     ADC_SOUND_IN_Offset = offset;
 902:.\Generated_Source\PSoC5/ADC_SOUND_IN.c **** }
 903:.\Generated_Source\PSoC5/ADC_SOUND_IN.c **** 
 904:.\Generated_Source\PSoC5/ADC_SOUND_IN.c **** 
 905:.\Generated_Source\PSoC5/ADC_SOUND_IN.c **** /*******************************************************************************
 906:.\Generated_Source\PSoC5/ADC_SOUND_IN.c **** * Function Name: ADC_SOUND_IN_SetGain
 907:.\Generated_Source\PSoC5/ADC_SOUND_IN.c **** ********************************************************************************
 908:.\Generated_Source\PSoC5/ADC_SOUND_IN.c **** *
 909:.\Generated_Source\PSoC5/ADC_SOUND_IN.c **** * Summary:
 910:.\Generated_Source\PSoC5/ADC_SOUND_IN.c **** *  Sets the ADC gain in counts per volt for the voltage conversion
 911:.\Generated_Source\PSoC5/ADC_SOUND_IN.c **** *  functions below. This value is set by default by the reference and
 912:.\Generated_Source\PSoC5/ADC_SOUND_IN.c **** *  input range settings. It should only be used to further calibrate the
 913:.\Generated_Source\PSoC5/ADC_SOUND_IN.c **** *  ADC with a known input or if an external reference is used. This
 914:.\Generated_Source\PSoC5/ADC_SOUND_IN.c **** *  function may also be used to calibrate an entire signal chain, not
 915:.\Generated_Source\PSoC5/ADC_SOUND_IN.c **** *  just the ADC.
 916:.\Generated_Source\PSoC5/ADC_SOUND_IN.c **** *
 917:.\Generated_Source\PSoC5/ADC_SOUND_IN.c **** * Parameters:
 918:.\Generated_Source\PSoC5/ADC_SOUND_IN.c **** *  int32: ADC gain in counts per volt.
 919:.\Generated_Source\PSoC5/ADC_SOUND_IN.c **** *
 920:.\Generated_Source\PSoC5/ADC_SOUND_IN.c **** * Return:
 921:.\Generated_Source\PSoC5/ADC_SOUND_IN.c **** *  None
 922:.\Generated_Source\PSoC5/ADC_SOUND_IN.c **** *
 923:.\Generated_Source\PSoC5/ADC_SOUND_IN.c **** * Global variables:
 924:.\Generated_Source\PSoC5/ADC_SOUND_IN.c **** *  ADC_SOUND_IN_CountsPerVolt:  modified to set the ADC gain in counts
 925:.\Generated_Source\PSoC5/ADC_SOUND_IN.c **** *   per volt.
 926:.\Generated_Source\PSoC5/ADC_SOUND_IN.c **** *
 927:.\Generated_Source\PSoC5/ADC_SOUND_IN.c **** * Side Effects:
 928:.\Generated_Source\PSoC5/ADC_SOUND_IN.c **** *  Affects the ADC_SOUND_IN_CountsTo_Volts,
 929:.\Generated_Source\PSoC5/ADC_SOUND_IN.c **** *  ADC_SOUND_IN_CountsTo_mVolts, ADC_SOUND_IN_CountsTo_uVolts functions
 930:.\Generated_Source\PSoC5/ADC_SOUND_IN.c **** *  supplying the correct conversion between ADC counts and voltage.
 931:.\Generated_Source\PSoC5/ADC_SOUND_IN.c **** *
 932:.\Generated_Source\PSoC5/ADC_SOUND_IN.c **** *******************************************************************************/
 933:.\Generated_Source\PSoC5/ADC_SOUND_IN.c **** void ADC_SOUND_IN_SetGain(int32 adcGain) 
 934:.\Generated_Source\PSoC5/ADC_SOUND_IN.c **** {
 935:.\Generated_Source\PSoC5/ADC_SOUND_IN.c ****     ADC_SOUND_IN_CountsPerVolt = adcGain;
 936:.\Generated_Source\PSoC5/ADC_SOUND_IN.c **** }
 937:.\Generated_Source\PSoC5/ADC_SOUND_IN.c **** 
 938:.\Generated_Source\PSoC5/ADC_SOUND_IN.c **** 
 939:.\Generated_Source\PSoC5/ADC_SOUND_IN.c **** /*******************************************************************************
 940:.\Generated_Source\PSoC5/ADC_SOUND_IN.c **** * Function Name: ADC_SOUND_IN_CountsTo_mVolts
 941:.\Generated_Source\PSoC5/ADC_SOUND_IN.c **** ********************************************************************************
 942:.\Generated_Source\PSoC5/ADC_SOUND_IN.c **** *
 943:.\Generated_Source\PSoC5/ADC_SOUND_IN.c **** * Summary:
 944:.\Generated_Source\PSoC5/ADC_SOUND_IN.c **** *  Converts the ADC counts output to mVolts as a 16-bit integer. For
ARM GAS  C:\Users\YongY\AppData\Local\Temp\ccMwH7lk.s 			page 18


 945:.\Generated_Source\PSoC5/ADC_SOUND_IN.c **** *  example, if the ADC measured 0.534 volts, the return value would
 946:.\Generated_Source\PSoC5/ADC_SOUND_IN.c **** *  be 534 mVolts.
 947:.\Generated_Source\PSoC5/ADC_SOUND_IN.c **** *
 948:.\Generated_Source\PSoC5/ADC_SOUND_IN.c **** * Parameters:
 949:.\Generated_Source\PSoC5/ADC_SOUND_IN.c **** *  int32: adcCounts Result from the ADC conversion.
 950:.\Generated_Source\PSoC5/ADC_SOUND_IN.c **** *
 951:.\Generated_Source\PSoC5/ADC_SOUND_IN.c **** * Return:
 952:.\Generated_Source\PSoC5/ADC_SOUND_IN.c **** *  int16:  Result in mVolts
 953:.\Generated_Source\PSoC5/ADC_SOUND_IN.c **** *
 954:.\Generated_Source\PSoC5/ADC_SOUND_IN.c **** * Global variables:
 955:.\Generated_Source\PSoC5/ADC_SOUND_IN.c **** *  ADC_SOUND_IN_CountsPerVolt:  used to convert ADC counts to mVolts.
 956:.\Generated_Source\PSoC5/ADC_SOUND_IN.c **** *  ADC_SOUND_IN_Offset:  Used as the offset while converting ADC counts
 957:.\Generated_Source\PSoC5/ADC_SOUND_IN.c **** *   to mVolts.
 958:.\Generated_Source\PSoC5/ADC_SOUND_IN.c **** *
 959:.\Generated_Source\PSoC5/ADC_SOUND_IN.c **** *******************************************************************************/
 960:.\Generated_Source\PSoC5/ADC_SOUND_IN.c **** int16 ADC_SOUND_IN_CountsTo_mVolts(int32 adcCounts) 
 961:.\Generated_Source\PSoC5/ADC_SOUND_IN.c **** {
 962:.\Generated_Source\PSoC5/ADC_SOUND_IN.c **** 
 963:.\Generated_Source\PSoC5/ADC_SOUND_IN.c ****     int16 mVolts;
 964:.\Generated_Source\PSoC5/ADC_SOUND_IN.c **** 
 965:.\Generated_Source\PSoC5/ADC_SOUND_IN.c ****     /* Convert adcCounts to the right align if left option selected */
 966:.\Generated_Source\PSoC5/ADC_SOUND_IN.c ****     #if(ADC_SOUND_IN_CFG1_DEC_DIV != 0)
 967:.\Generated_Source\PSoC5/ADC_SOUND_IN.c ****         if(ADC_SOUND_IN_Config == ADC_SOUND_IN_CFG1)
 968:.\Generated_Source\PSoC5/ADC_SOUND_IN.c ****         {
 969:.\Generated_Source\PSoC5/ADC_SOUND_IN.c ****             adcCounts /= ADC_SOUND_IN_CFG1_DEC_DIV;
 970:.\Generated_Source\PSoC5/ADC_SOUND_IN.c ****         }
 971:.\Generated_Source\PSoC5/ADC_SOUND_IN.c ****     #endif /* ADC_SOUND_IN_CFG1_DEC_DIV */
 972:.\Generated_Source\PSoC5/ADC_SOUND_IN.c ****     #if((ADC_SOUND_IN_CFG2_DEC_DIV != 0) && (ADC_SOUND_IN_DEFAULT_NUM_CONFIGS > 1))
 973:.\Generated_Source\PSoC5/ADC_SOUND_IN.c ****         if(ADC_SOUND_IN_Config == ADC_SOUND_IN_CFG2)
 974:.\Generated_Source\PSoC5/ADC_SOUND_IN.c ****         {
 975:.\Generated_Source\PSoC5/ADC_SOUND_IN.c ****             adcCounts /= ADC_SOUND_IN_CFG2_DEC_DIV;
 976:.\Generated_Source\PSoC5/ADC_SOUND_IN.c ****         }
 977:.\Generated_Source\PSoC5/ADC_SOUND_IN.c ****     #endif /* ADC_SOUND_IN_CFG2_DEC_DIV */
 978:.\Generated_Source\PSoC5/ADC_SOUND_IN.c ****     #if((ADC_SOUND_IN_CFG3_DEC_DIV != 0) && (ADC_SOUND_IN_DEFAULT_NUM_CONFIGS > 2))
 979:.\Generated_Source\PSoC5/ADC_SOUND_IN.c ****         if(ADC_SOUND_IN_Config == ADC_SOUND_IN_CFG3)
 980:.\Generated_Source\PSoC5/ADC_SOUND_IN.c ****         {
 981:.\Generated_Source\PSoC5/ADC_SOUND_IN.c ****             adcCounts /= ADC_SOUND_IN_CFG3_DEC_DIV;
 982:.\Generated_Source\PSoC5/ADC_SOUND_IN.c ****         }
 983:.\Generated_Source\PSoC5/ADC_SOUND_IN.c ****     #endif /* ADC_SOUND_IN_CFG2_DEC_DIV */
 984:.\Generated_Source\PSoC5/ADC_SOUND_IN.c ****     #if((ADC_SOUND_IN_CFG4_DEC_DIV != 0) && (ADC_SOUND_IN_DEFAULT_NUM_CONFIGS > 3))
 985:.\Generated_Source\PSoC5/ADC_SOUND_IN.c ****         if(ADC_SOUND_IN_Config == ADC_SOUND_IN_CFG4)
 986:.\Generated_Source\PSoC5/ADC_SOUND_IN.c ****         {
 987:.\Generated_Source\PSoC5/ADC_SOUND_IN.c ****             adcCounts /= ADC_SOUND_IN_CFG4_DEC_DIV;
 988:.\Generated_Source\PSoC5/ADC_SOUND_IN.c ****         }
 989:.\Generated_Source\PSoC5/ADC_SOUND_IN.c ****     #endif /* ADC_SOUND_IN_CFG2_DEC_DIV */
 990:.\Generated_Source\PSoC5/ADC_SOUND_IN.c **** 
 991:.\Generated_Source\PSoC5/ADC_SOUND_IN.c ****     /* Subtract ADC offset */
 992:.\Generated_Source\PSoC5/ADC_SOUND_IN.c ****     adcCounts -= ADC_SOUND_IN_Offset;
 993:.\Generated_Source\PSoC5/ADC_SOUND_IN.c **** 
 994:.\Generated_Source\PSoC5/ADC_SOUND_IN.c ****     mVolts = (int16)(( adcCounts * ADC_SOUND_IN_1MV_COUNTS ) / ADC_SOUND_IN_CountsPerVolt) ;
 995:.\Generated_Source\PSoC5/ADC_SOUND_IN.c **** 
 996:.\Generated_Source\PSoC5/ADC_SOUND_IN.c ****     return(mVolts);
 997:.\Generated_Source\PSoC5/ADC_SOUND_IN.c **** }
 998:.\Generated_Source\PSoC5/ADC_SOUND_IN.c **** 
 999:.\Generated_Source\PSoC5/ADC_SOUND_IN.c **** 
1000:.\Generated_Source\PSoC5/ADC_SOUND_IN.c **** /*******************************************************************************
1001:.\Generated_Source\PSoC5/ADC_SOUND_IN.c **** * Function Name: ADC_SOUND_IN_CountsTo_Volts
ARM GAS  C:\Users\YongY\AppData\Local\Temp\ccMwH7lk.s 			page 19


1002:.\Generated_Source\PSoC5/ADC_SOUND_IN.c **** ********************************************************************************
1003:.\Generated_Source\PSoC5/ADC_SOUND_IN.c **** *
1004:.\Generated_Source\PSoC5/ADC_SOUND_IN.c **** * Summary:
1005:.\Generated_Source\PSoC5/ADC_SOUND_IN.c **** *  Converts the ADC output to Volts as a floating point number. For
1006:.\Generated_Source\PSoC5/ADC_SOUND_IN.c **** *  example, if the ADC measure a voltage of 1.2345 Volts, the
1007:.\Generated_Source\PSoC5/ADC_SOUND_IN.c **** *  returned result would be +1.2345 Volts.
1008:.\Generated_Source\PSoC5/ADC_SOUND_IN.c **** *
1009:.\Generated_Source\PSoC5/ADC_SOUND_IN.c **** * Parameters:
1010:.\Generated_Source\PSoC5/ADC_SOUND_IN.c **** *  int32 adcCounts:  Result from the ADC conversion.
1011:.\Generated_Source\PSoC5/ADC_SOUND_IN.c **** *
1012:.\Generated_Source\PSoC5/ADC_SOUND_IN.c **** * Return:
1013:.\Generated_Source\PSoC5/ADC_SOUND_IN.c **** *  float32: Result in Volts
1014:.\Generated_Source\PSoC5/ADC_SOUND_IN.c **** *
1015:.\Generated_Source\PSoC5/ADC_SOUND_IN.c **** * Global variables:
1016:.\Generated_Source\PSoC5/ADC_SOUND_IN.c **** *  ADC_SOUND_IN_CountsPerVolt:  used to convert to Volts.
1017:.\Generated_Source\PSoC5/ADC_SOUND_IN.c **** *  ADC_SOUND_IN_Offset:  Used as the offset while converting ADC counts
1018:.\Generated_Source\PSoC5/ADC_SOUND_IN.c **** *   to Volts.
1019:.\Generated_Source\PSoC5/ADC_SOUND_IN.c **** *
1020:.\Generated_Source\PSoC5/ADC_SOUND_IN.c **** *******************************************************************************/
1021:.\Generated_Source\PSoC5/ADC_SOUND_IN.c **** float32 ADC_SOUND_IN_CountsTo_Volts(int32 adcCounts) 
1022:.\Generated_Source\PSoC5/ADC_SOUND_IN.c **** {
1023:.\Generated_Source\PSoC5/ADC_SOUND_IN.c **** 
1024:.\Generated_Source\PSoC5/ADC_SOUND_IN.c ****     float32 Volts;
1025:.\Generated_Source\PSoC5/ADC_SOUND_IN.c **** 
1026:.\Generated_Source\PSoC5/ADC_SOUND_IN.c ****     /* Convert adcCounts to the right align if left option selected */
1027:.\Generated_Source\PSoC5/ADC_SOUND_IN.c ****     #if(ADC_SOUND_IN_CFG1_DEC_DIV != 0)
1028:.\Generated_Source\PSoC5/ADC_SOUND_IN.c ****         if(ADC_SOUND_IN_Config == ADC_SOUND_IN_CFG1)
1029:.\Generated_Source\PSoC5/ADC_SOUND_IN.c ****         {
1030:.\Generated_Source\PSoC5/ADC_SOUND_IN.c ****             adcCounts /= ADC_SOUND_IN_CFG1_DEC_DIV;
1031:.\Generated_Source\PSoC5/ADC_SOUND_IN.c ****         }
1032:.\Generated_Source\PSoC5/ADC_SOUND_IN.c ****     #endif /* ADC_SOUND_IN_CFG1_DEC_DIV */
1033:.\Generated_Source\PSoC5/ADC_SOUND_IN.c ****     #if((ADC_SOUND_IN_CFG2_DEC_DIV != 0) && (ADC_SOUND_IN_DEFAULT_NUM_CONFIGS > 1))
1034:.\Generated_Source\PSoC5/ADC_SOUND_IN.c ****         if(ADC_SOUND_IN_Config == ADC_SOUND_IN_CFG2)
1035:.\Generated_Source\PSoC5/ADC_SOUND_IN.c ****         {
1036:.\Generated_Source\PSoC5/ADC_SOUND_IN.c ****             adcCounts /= ADC_SOUND_IN_CFG2_DEC_DIV;
1037:.\Generated_Source\PSoC5/ADC_SOUND_IN.c ****         }
1038:.\Generated_Source\PSoC5/ADC_SOUND_IN.c ****     #endif /* ADC_SOUND_IN_CFG2_DEC_DIV */
1039:.\Generated_Source\PSoC5/ADC_SOUND_IN.c ****     #if((ADC_SOUND_IN_CFG3_DEC_DIV != 0) && (ADC_SOUND_IN_DEFAULT_NUM_CONFIGS > 2))
1040:.\Generated_Source\PSoC5/ADC_SOUND_IN.c ****         if(ADC_SOUND_IN_Config == ADC_SOUND_IN_CFG3)
1041:.\Generated_Source\PSoC5/ADC_SOUND_IN.c ****         {
1042:.\Generated_Source\PSoC5/ADC_SOUND_IN.c ****             adcCounts /= ADC_SOUND_IN_CFG3_DEC_DIV;
1043:.\Generated_Source\PSoC5/ADC_SOUND_IN.c ****         }
1044:.\Generated_Source\PSoC5/ADC_SOUND_IN.c ****     #endif /* ADC_SOUND_IN_CFG2_DEC_DIV */
1045:.\Generated_Source\PSoC5/ADC_SOUND_IN.c ****     #if((ADC_SOUND_IN_CFG4_DEC_DIV != 0) && (ADC_SOUND_IN_DEFAULT_NUM_CONFIGS > 3))
1046:.\Generated_Source\PSoC5/ADC_SOUND_IN.c ****         if(ADC_SOUND_IN_Config == ADC_SOUND_IN_CFG4)
1047:.\Generated_Source\PSoC5/ADC_SOUND_IN.c ****         {
1048:.\Generated_Source\PSoC5/ADC_SOUND_IN.c ****             adcCounts /= ADC_SOUND_IN_CFG4_DEC_DIV;
1049:.\Generated_Source\PSoC5/ADC_SOUND_IN.c ****         }
1050:.\Generated_Source\PSoC5/ADC_SOUND_IN.c ****     #endif /* ADC_SOUND_IN_CFG2_DEC_DIV */
1051:.\Generated_Source\PSoC5/ADC_SOUND_IN.c **** 
1052:.\Generated_Source\PSoC5/ADC_SOUND_IN.c ****     /* Subtract ADC offset */
1053:.\Generated_Source\PSoC5/ADC_SOUND_IN.c ****     adcCounts -= ADC_SOUND_IN_Offset;
1054:.\Generated_Source\PSoC5/ADC_SOUND_IN.c **** 
1055:.\Generated_Source\PSoC5/ADC_SOUND_IN.c ****     Volts = (float32)adcCounts / (float32)ADC_SOUND_IN_CountsPerVolt;
1056:.\Generated_Source\PSoC5/ADC_SOUND_IN.c **** 
1057:.\Generated_Source\PSoC5/ADC_SOUND_IN.c ****     return( Volts );
1058:.\Generated_Source\PSoC5/ADC_SOUND_IN.c **** }
ARM GAS  C:\Users\YongY\AppData\Local\Temp\ccMwH7lk.s 			page 20


1059:.\Generated_Source\PSoC5/ADC_SOUND_IN.c **** 
1060:.\Generated_Source\PSoC5/ADC_SOUND_IN.c **** 
1061:.\Generated_Source\PSoC5/ADC_SOUND_IN.c **** /*******************************************************************************
1062:.\Generated_Source\PSoC5/ADC_SOUND_IN.c **** * Function Name: ADC_SOUND_IN_CountsTo_uVolts
1063:.\Generated_Source\PSoC5/ADC_SOUND_IN.c **** ********************************************************************************
1064:.\Generated_Source\PSoC5/ADC_SOUND_IN.c **** *
1065:.\Generated_Source\PSoC5/ADC_SOUND_IN.c **** * Summary:
1066:.\Generated_Source\PSoC5/ADC_SOUND_IN.c **** *  Converts the ADC output to uVolts as a 32-bit integer. For example,
1067:.\Generated_Source\PSoC5/ADC_SOUND_IN.c **** *  if the ADC measured -0.02345 Volts, the return value would be -23450 uVolts.
1068:.\Generated_Source\PSoC5/ADC_SOUND_IN.c **** *
1069:.\Generated_Source\PSoC5/ADC_SOUND_IN.c **** * Parameters:
1070:.\Generated_Source\PSoC5/ADC_SOUND_IN.c **** *  int32 adcCounts: Result from the ADC conversion.
1071:.\Generated_Source\PSoC5/ADC_SOUND_IN.c **** *
1072:.\Generated_Source\PSoC5/ADC_SOUND_IN.c **** * Return:
1073:.\Generated_Source\PSoC5/ADC_SOUND_IN.c **** *  int32:  Result in uVolts
1074:.\Generated_Source\PSoC5/ADC_SOUND_IN.c **** *
1075:.\Generated_Source\PSoC5/ADC_SOUND_IN.c **** * Global variables:
1076:.\Generated_Source\PSoC5/ADC_SOUND_IN.c **** *  ADC_SOUND_IN_CountsPerVolt:  used to convert ADC counts to mVolts.
1077:.\Generated_Source\PSoC5/ADC_SOUND_IN.c **** *  ADC_SOUND_IN_Offset:  Used as the offset while converting ADC counts
1078:.\Generated_Source\PSoC5/ADC_SOUND_IN.c **** *   to mVolts.
1079:.\Generated_Source\PSoC5/ADC_SOUND_IN.c **** *
1080:.\Generated_Source\PSoC5/ADC_SOUND_IN.c **** * Theory:
1081:.\Generated_Source\PSoC5/ADC_SOUND_IN.c **** *  Care must be taken to not exceed the maximum value for a 31 bit signed
1082:.\Generated_Source\PSoC5/ADC_SOUND_IN.c **** *  number in the conversion to uVolts and at the same time not lose resolution.
1083:.\Generated_Source\PSoC5/ADC_SOUND_IN.c **** *
1084:.\Generated_Source\PSoC5/ADC_SOUND_IN.c **** *  uVolts = ((A * adcCounts) / ((int32)ADC_SOUND_IN_CountsPerVolt / B));
1085:.\Generated_Source\PSoC5/ADC_SOUND_IN.c **** *
1086:.\Generated_Source\PSoC5/ADC_SOUND_IN.c **** *******************************************************************************/
1087:.\Generated_Source\PSoC5/ADC_SOUND_IN.c **** int32 ADC_SOUND_IN_CountsTo_uVolts(int32 adcCounts) 
1088:.\Generated_Source\PSoC5/ADC_SOUND_IN.c **** {
1089:.\Generated_Source\PSoC5/ADC_SOUND_IN.c **** 
1090:.\Generated_Source\PSoC5/ADC_SOUND_IN.c ****     int32 uVolts;
1091:.\Generated_Source\PSoC5/ADC_SOUND_IN.c ****     int32 coefA;
1092:.\Generated_Source\PSoC5/ADC_SOUND_IN.c ****     int32 coefB;
1093:.\Generated_Source\PSoC5/ADC_SOUND_IN.c ****     uint8 resolution;
1094:.\Generated_Source\PSoC5/ADC_SOUND_IN.c **** 
1095:.\Generated_Source\PSoC5/ADC_SOUND_IN.c ****     /* Set the resolution based on the configuration */
1096:.\Generated_Source\PSoC5/ADC_SOUND_IN.c ****     /* Convert adcCounts to the right align if left option selected */
1097:.\Generated_Source\PSoC5/ADC_SOUND_IN.c ****     if (ADC_SOUND_IN_Config == ADC_SOUND_IN_CFG1)
1098:.\Generated_Source\PSoC5/ADC_SOUND_IN.c ****     {
1099:.\Generated_Source\PSoC5/ADC_SOUND_IN.c ****         resolution = ADC_SOUND_IN_CFG1_RESOLUTION;
1100:.\Generated_Source\PSoC5/ADC_SOUND_IN.c ****         #if(ADC_SOUND_IN_CFG1_DEC_DIV != 0)
1101:.\Generated_Source\PSoC5/ADC_SOUND_IN.c ****             adcCounts /= ADC_SOUND_IN_CFG1_DEC_DIV;
1102:.\Generated_Source\PSoC5/ADC_SOUND_IN.c ****         #endif /* ADC_SOUND_IN_CFG1_DEC_DIV */
1103:.\Generated_Source\PSoC5/ADC_SOUND_IN.c ****     }
1104:.\Generated_Source\PSoC5/ADC_SOUND_IN.c ****     else if (ADC_SOUND_IN_Config == ADC_SOUND_IN_CFG2)
1105:.\Generated_Source\PSoC5/ADC_SOUND_IN.c ****     {
1106:.\Generated_Source\PSoC5/ADC_SOUND_IN.c ****         resolution = ADC_SOUND_IN_CFG2_RESOLUTION;
1107:.\Generated_Source\PSoC5/ADC_SOUND_IN.c ****         #if(ADC_SOUND_IN_CFG2_DEC_DIV != 0)
1108:.\Generated_Source\PSoC5/ADC_SOUND_IN.c ****             adcCounts /= ADC_SOUND_IN_CFG2_DEC_DIV;
1109:.\Generated_Source\PSoC5/ADC_SOUND_IN.c ****         #endif /* ADC_SOUND_IN_CFG2_DEC_DIV */
1110:.\Generated_Source\PSoC5/ADC_SOUND_IN.c ****     }
1111:.\Generated_Source\PSoC5/ADC_SOUND_IN.c ****     else if (ADC_SOUND_IN_Config == ADC_SOUND_IN_CFG3)
1112:.\Generated_Source\PSoC5/ADC_SOUND_IN.c ****     {
1113:.\Generated_Source\PSoC5/ADC_SOUND_IN.c ****         resolution = ADC_SOUND_IN_CFG3_RESOLUTION;
1114:.\Generated_Source\PSoC5/ADC_SOUND_IN.c ****         #if(ADC_SOUND_IN_CFG3_DEC_DIV != 0)
1115:.\Generated_Source\PSoC5/ADC_SOUND_IN.c ****             adcCounts /= ADC_SOUND_IN_CFG3_DEC_DIV;
ARM GAS  C:\Users\YongY\AppData\Local\Temp\ccMwH7lk.s 			page 21


1116:.\Generated_Source\PSoC5/ADC_SOUND_IN.c ****         #endif /* ADC_SOUND_IN_CFG3_DEC_DIV */
1117:.\Generated_Source\PSoC5/ADC_SOUND_IN.c ****     }
1118:.\Generated_Source\PSoC5/ADC_SOUND_IN.c ****     else
1119:.\Generated_Source\PSoC5/ADC_SOUND_IN.c ****     {
1120:.\Generated_Source\PSoC5/ADC_SOUND_IN.c ****         resolution = ADC_SOUND_IN_CFG4_RESOLUTION;
1121:.\Generated_Source\PSoC5/ADC_SOUND_IN.c ****         #if(ADC_SOUND_IN_CFG4_DEC_DIV != 0)
1122:.\Generated_Source\PSoC5/ADC_SOUND_IN.c ****             adcCounts /= ADC_SOUND_IN_CFG4_DEC_DIV;
1123:.\Generated_Source\PSoC5/ADC_SOUND_IN.c ****         #endif /* ADC_SOUND_IN_CFG4_DEC_DIV */
1124:.\Generated_Source\PSoC5/ADC_SOUND_IN.c ****     }
1125:.\Generated_Source\PSoC5/ADC_SOUND_IN.c **** 
1126:.\Generated_Source\PSoC5/ADC_SOUND_IN.c ****     switch (resolution)
1127:.\Generated_Source\PSoC5/ADC_SOUND_IN.c ****     {
1128:.\Generated_Source\PSoC5/ADC_SOUND_IN.c ****         #if( (ADC_SOUND_IN_CFG1_RESOLUTION == ADC_SOUND_IN__BITS_12) || \
1129:.\Generated_Source\PSoC5/ADC_SOUND_IN.c ****              (ADC_SOUND_IN_CFG2_RESOLUTION == ADC_SOUND_IN__BITS_12) || \
1130:.\Generated_Source\PSoC5/ADC_SOUND_IN.c ****              (ADC_SOUND_IN_CFG3_RESOLUTION == ADC_SOUND_IN__BITS_12) || \
1131:.\Generated_Source\PSoC5/ADC_SOUND_IN.c ****              (ADC_SOUND_IN_CFG4_RESOLUTION == ADC_SOUND_IN__BITS_12) )
1132:.\Generated_Source\PSoC5/ADC_SOUND_IN.c ****             case (uint8)ADC_SOUND_IN__BITS_12:
1133:.\Generated_Source\PSoC5/ADC_SOUND_IN.c ****                 coefA = ADC_SOUND_IN_1UV_COUNTS / ADC_SOUND_IN_DIVISOR_2;
1134:.\Generated_Source\PSoC5/ADC_SOUND_IN.c ****                 coefB = ADC_SOUND_IN_DIVISOR_2;
1135:.\Generated_Source\PSoC5/ADC_SOUND_IN.c ****                 break;
1136:.\Generated_Source\PSoC5/ADC_SOUND_IN.c ****         #endif /* ADC_SOUND_IN__BITS_12 */    
1137:.\Generated_Source\PSoC5/ADC_SOUND_IN.c ****         #if( (ADC_SOUND_IN_CFG1_RESOLUTION == ADC_SOUND_IN__BITS_13) || \
1138:.\Generated_Source\PSoC5/ADC_SOUND_IN.c ****              (ADC_SOUND_IN_CFG2_RESOLUTION == ADC_SOUND_IN__BITS_13) || \
1139:.\Generated_Source\PSoC5/ADC_SOUND_IN.c ****              (ADC_SOUND_IN_CFG3_RESOLUTION == ADC_SOUND_IN__BITS_13) || \
1140:.\Generated_Source\PSoC5/ADC_SOUND_IN.c ****              (ADC_SOUND_IN_CFG4_RESOLUTION == ADC_SOUND_IN__BITS_13) )
1141:.\Generated_Source\PSoC5/ADC_SOUND_IN.c ****             case (uint8)ADC_SOUND_IN__BITS_13:
1142:.\Generated_Source\PSoC5/ADC_SOUND_IN.c ****                 coefA = ADC_SOUND_IN_1UV_COUNTS / ADC_SOUND_IN_DIVISOR_4;
1143:.\Generated_Source\PSoC5/ADC_SOUND_IN.c ****                 coefB = ADC_SOUND_IN_DIVISOR_4;
1144:.\Generated_Source\PSoC5/ADC_SOUND_IN.c ****                 break;
1145:.\Generated_Source\PSoC5/ADC_SOUND_IN.c ****         #endif /* ADC_SOUND_IN__BITS_13 */    
1146:.\Generated_Source\PSoC5/ADC_SOUND_IN.c ****         #if( (ADC_SOUND_IN_CFG1_RESOLUTION == ADC_SOUND_IN__BITS_14) || \
1147:.\Generated_Source\PSoC5/ADC_SOUND_IN.c ****              (ADC_SOUND_IN_CFG2_RESOLUTION == ADC_SOUND_IN__BITS_14) || \
1148:.\Generated_Source\PSoC5/ADC_SOUND_IN.c ****              (ADC_SOUND_IN_CFG3_RESOLUTION == ADC_SOUND_IN__BITS_14) || \
1149:.\Generated_Source\PSoC5/ADC_SOUND_IN.c ****              (ADC_SOUND_IN_CFG4_RESOLUTION == ADC_SOUND_IN__BITS_14) )
1150:.\Generated_Source\PSoC5/ADC_SOUND_IN.c ****             case (uint8)ADC_SOUND_IN__BITS_14:
1151:.\Generated_Source\PSoC5/ADC_SOUND_IN.c ****                 coefA = ADC_SOUND_IN_1UV_COUNTS / ADC_SOUND_IN_DIVISOR_8;
1152:.\Generated_Source\PSoC5/ADC_SOUND_IN.c ****                 coefB = ADC_SOUND_IN_DIVISOR_8;
1153:.\Generated_Source\PSoC5/ADC_SOUND_IN.c ****                 break;
1154:.\Generated_Source\PSoC5/ADC_SOUND_IN.c ****         #endif /* ADC_SOUND_IN__BITS_14 */    
1155:.\Generated_Source\PSoC5/ADC_SOUND_IN.c ****         #if( (ADC_SOUND_IN_CFG1_RESOLUTION == ADC_SOUND_IN__BITS_15) || \
1156:.\Generated_Source\PSoC5/ADC_SOUND_IN.c ****              (ADC_SOUND_IN_CFG2_RESOLUTION == ADC_SOUND_IN__BITS_15) || \
1157:.\Generated_Source\PSoC5/ADC_SOUND_IN.c ****              (ADC_SOUND_IN_CFG3_RESOLUTION == ADC_SOUND_IN__BITS_15) || \
1158:.\Generated_Source\PSoC5/ADC_SOUND_IN.c ****              (ADC_SOUND_IN_CFG4_RESOLUTION == ADC_SOUND_IN__BITS_15) )
1159:.\Generated_Source\PSoC5/ADC_SOUND_IN.c ****             case (uint8)ADC_SOUND_IN__BITS_15:
1160:.\Generated_Source\PSoC5/ADC_SOUND_IN.c ****                 coefA = ADC_SOUND_IN_1UV_COUNTS / ADC_SOUND_IN_DIVISOR_16;
1161:.\Generated_Source\PSoC5/ADC_SOUND_IN.c ****                 coefB = ADC_SOUND_IN_DIVISOR_16;
1162:.\Generated_Source\PSoC5/ADC_SOUND_IN.c ****                 break;
1163:.\Generated_Source\PSoC5/ADC_SOUND_IN.c ****         #endif /* ADC_SOUND_IN__BITS_15 */    
1164:.\Generated_Source\PSoC5/ADC_SOUND_IN.c ****         #if( (ADC_SOUND_IN_CFG1_RESOLUTION == ADC_SOUND_IN__BITS_16) || \
1165:.\Generated_Source\PSoC5/ADC_SOUND_IN.c ****              (ADC_SOUND_IN_CFG2_RESOLUTION == ADC_SOUND_IN__BITS_16) || \
1166:.\Generated_Source\PSoC5/ADC_SOUND_IN.c ****              (ADC_SOUND_IN_CFG3_RESOLUTION == ADC_SOUND_IN__BITS_16) || \
1167:.\Generated_Source\PSoC5/ADC_SOUND_IN.c ****              (ADC_SOUND_IN_CFG4_RESOLUTION == ADC_SOUND_IN__BITS_16) )
1168:.\Generated_Source\PSoC5/ADC_SOUND_IN.c ****             case (uint8)ADC_SOUND_IN__BITS_16:
1169:.\Generated_Source\PSoC5/ADC_SOUND_IN.c ****                 coefA = ADC_SOUND_IN_1UV_COUNTS / ADC_SOUND_IN_DIVISOR_32;
1170:.\Generated_Source\PSoC5/ADC_SOUND_IN.c ****                 coefB = ADC_SOUND_IN_DIVISOR_32;
1171:.\Generated_Source\PSoC5/ADC_SOUND_IN.c ****                 break;
1172:.\Generated_Source\PSoC5/ADC_SOUND_IN.c ****         #endif /* ADC_SOUND_IN__BITS_16 */    
ARM GAS  C:\Users\YongY\AppData\Local\Temp\ccMwH7lk.s 			page 22


1173:.\Generated_Source\PSoC5/ADC_SOUND_IN.c ****         #if( (ADC_SOUND_IN_CFG1_RESOLUTION == ADC_SOUND_IN__BITS_17) || \
1174:.\Generated_Source\PSoC5/ADC_SOUND_IN.c ****              (ADC_SOUND_IN_CFG2_RESOLUTION == ADC_SOUND_IN__BITS_17) || \
1175:.\Generated_Source\PSoC5/ADC_SOUND_IN.c ****              (ADC_SOUND_IN_CFG3_RESOLUTION == ADC_SOUND_IN__BITS_17) || \
1176:.\Generated_Source\PSoC5/ADC_SOUND_IN.c ****              (ADC_SOUND_IN_CFG4_RESOLUTION == ADC_SOUND_IN__BITS_17) )
1177:.\Generated_Source\PSoC5/ADC_SOUND_IN.c ****             case (uint8)ADC_SOUND_IN__BITS_17:
1178:.\Generated_Source\PSoC5/ADC_SOUND_IN.c ****                 coefA = ADC_SOUND_IN_1UV_COUNTS / ADC_SOUND_IN_DIVISOR_64;
1179:.\Generated_Source\PSoC5/ADC_SOUND_IN.c ****                 coefB = ADC_SOUND_IN_DIVISOR_64;
1180:.\Generated_Source\PSoC5/ADC_SOUND_IN.c ****                 break;
1181:.\Generated_Source\PSoC5/ADC_SOUND_IN.c ****         #endif /* ADC_SOUND_IN__BITS_17 */    
1182:.\Generated_Source\PSoC5/ADC_SOUND_IN.c ****         #if( (ADC_SOUND_IN_CFG1_RESOLUTION == ADC_SOUND_IN__BITS_18) || \
1183:.\Generated_Source\PSoC5/ADC_SOUND_IN.c ****              (ADC_SOUND_IN_CFG2_RESOLUTION == ADC_SOUND_IN__BITS_18) || \
1184:.\Generated_Source\PSoC5/ADC_SOUND_IN.c ****              (ADC_SOUND_IN_CFG3_RESOLUTION == ADC_SOUND_IN__BITS_18) || \
1185:.\Generated_Source\PSoC5/ADC_SOUND_IN.c ****              (ADC_SOUND_IN_CFG4_RESOLUTION == ADC_SOUND_IN__BITS_18) )
1186:.\Generated_Source\PSoC5/ADC_SOUND_IN.c ****             case (uint8)ADC_SOUND_IN__BITS_18:
1187:.\Generated_Source\PSoC5/ADC_SOUND_IN.c ****                 coefA = ADC_SOUND_IN_1UV_COUNTS / ADC_SOUND_IN_DIVISOR_125;
1188:.\Generated_Source\PSoC5/ADC_SOUND_IN.c ****                 coefB = ADC_SOUND_IN_DIVISOR_125;
1189:.\Generated_Source\PSoC5/ADC_SOUND_IN.c ****                 break;
1190:.\Generated_Source\PSoC5/ADC_SOUND_IN.c ****         #endif /* ADC_SOUND_IN__BITS_18 */    
1191:.\Generated_Source\PSoC5/ADC_SOUND_IN.c ****         #if( (ADC_SOUND_IN_CFG1_RESOLUTION == ADC_SOUND_IN__BITS_19) || \
1192:.\Generated_Source\PSoC5/ADC_SOUND_IN.c ****              (ADC_SOUND_IN_CFG2_RESOLUTION == ADC_SOUND_IN__BITS_19) || \
1193:.\Generated_Source\PSoC5/ADC_SOUND_IN.c ****              (ADC_SOUND_IN_CFG3_RESOLUTION == ADC_SOUND_IN__BITS_19) || \
1194:.\Generated_Source\PSoC5/ADC_SOUND_IN.c ****              (ADC_SOUND_IN_CFG4_RESOLUTION == ADC_SOUND_IN__BITS_19) )
1195:.\Generated_Source\PSoC5/ADC_SOUND_IN.c ****             case (uint8)ADC_SOUND_IN__BITS_19:
1196:.\Generated_Source\PSoC5/ADC_SOUND_IN.c ****                 coefA = ADC_SOUND_IN_1UV_COUNTS / ADC_SOUND_IN_DIVISOR_250;
1197:.\Generated_Source\PSoC5/ADC_SOUND_IN.c ****                 coefB = ADC_SOUND_IN_DIVISOR_250;
1198:.\Generated_Source\PSoC5/ADC_SOUND_IN.c ****                 break;
1199:.\Generated_Source\PSoC5/ADC_SOUND_IN.c ****         #endif /* ADC_SOUND_IN__BITS_19 */    
1200:.\Generated_Source\PSoC5/ADC_SOUND_IN.c ****         #if( (ADC_SOUND_IN_CFG1_RESOLUTION == ADC_SOUND_IN__BITS_20) || \
1201:.\Generated_Source\PSoC5/ADC_SOUND_IN.c ****              (ADC_SOUND_IN_CFG2_RESOLUTION == ADC_SOUND_IN__BITS_20) || \
1202:.\Generated_Source\PSoC5/ADC_SOUND_IN.c ****              (ADC_SOUND_IN_CFG3_RESOLUTION == ADC_SOUND_IN__BITS_20) || \
1203:.\Generated_Source\PSoC5/ADC_SOUND_IN.c ****              (ADC_SOUND_IN_CFG4_RESOLUTION == ADC_SOUND_IN__BITS_20) )
1204:.\Generated_Source\PSoC5/ADC_SOUND_IN.c ****             case (uint8)ADC_SOUND_IN__BITS_20:
1205:.\Generated_Source\PSoC5/ADC_SOUND_IN.c ****                 coefA = ADC_SOUND_IN_1UV_COUNTS / ADC_SOUND_IN_DIVISOR_500;
1206:.\Generated_Source\PSoC5/ADC_SOUND_IN.c ****                 coefB = ADC_SOUND_IN_DIVISOR_500;
1207:.\Generated_Source\PSoC5/ADC_SOUND_IN.c ****                 break;
1208:.\Generated_Source\PSoC5/ADC_SOUND_IN.c ****         #endif /* ADC_SOUND_IN__BITS_20 */    
1209:.\Generated_Source\PSoC5/ADC_SOUND_IN.c ****         default:    /* resolution < 12 */
1210:.\Generated_Source\PSoC5/ADC_SOUND_IN.c ****             /* 11 bits ADC + 2^20(1048576) = 31 bits */
1211:.\Generated_Source\PSoC5/ADC_SOUND_IN.c ****             coefA = ADC_SOUND_IN_1UV_COUNTS;
1212:.\Generated_Source\PSoC5/ADC_SOUND_IN.c ****             coefB = ADC_SOUND_IN_DIVISOR_1;
1213:.\Generated_Source\PSoC5/ADC_SOUND_IN.c ****             break;
1214:.\Generated_Source\PSoC5/ADC_SOUND_IN.c ****     }
1215:.\Generated_Source\PSoC5/ADC_SOUND_IN.c ****     coefB = ADC_SOUND_IN_CountsPerVolt / coefB;
1216:.\Generated_Source\PSoC5/ADC_SOUND_IN.c ****     uVolts = ((coefA * adcCounts) / coefB) - ((coefA * ADC_SOUND_IN_Offset) / coefB);
1217:.\Generated_Source\PSoC5/ADC_SOUND_IN.c **** 
1218:.\Generated_Source\PSoC5/ADC_SOUND_IN.c ****     return( uVolts );
1219:.\Generated_Source\PSoC5/ADC_SOUND_IN.c **** }
1220:.\Generated_Source\PSoC5/ADC_SOUND_IN.c **** 
1221:.\Generated_Source\PSoC5/ADC_SOUND_IN.c **** 
1222:.\Generated_Source\PSoC5/ADC_SOUND_IN.c **** /*******************************************************************************
1223:.\Generated_Source\PSoC5/ADC_SOUND_IN.c **** * Function Name: ADC_SOUND_IN_InitConfig(uint8 config)
1224:.\Generated_Source\PSoC5/ADC_SOUND_IN.c **** ********************************************************************************
1225:.\Generated_Source\PSoC5/ADC_SOUND_IN.c **** *
1226:.\Generated_Source\PSoC5/ADC_SOUND_IN.c **** * Summary:
1227:.\Generated_Source\PSoC5/ADC_SOUND_IN.c **** *  Initializes all registers based on customizer settings
1228:.\Generated_Source\PSoC5/ADC_SOUND_IN.c **** *
1229:.\Generated_Source\PSoC5/ADC_SOUND_IN.c **** * Parameters:
ARM GAS  C:\Users\YongY\AppData\Local\Temp\ccMwH7lk.s 			page 23


1230:.\Generated_Source\PSoC5/ADC_SOUND_IN.c **** *   void
1231:.\Generated_Source\PSoC5/ADC_SOUND_IN.c **** *
1232:.\Generated_Source\PSoC5/ADC_SOUND_IN.c **** * Return:
1233:.\Generated_Source\PSoC5/ADC_SOUND_IN.c **** *  None
1234:.\Generated_Source\PSoC5/ADC_SOUND_IN.c **** *
1235:.\Generated_Source\PSoC5/ADC_SOUND_IN.c **** * Global variables:
1236:.\Generated_Source\PSoC5/ADC_SOUND_IN.c **** *  ADC_SOUND_IN_CountsPerVolt:  Used to set the default counts per volt.
1237:.\Generated_Source\PSoC5/ADC_SOUND_IN.c **** *
1238:.\Generated_Source\PSoC5/ADC_SOUND_IN.c **** * Side Effects: Rewrites the coherency set by ADC_SOUND_IN_SetCoherency()
1239:.\Generated_Source\PSoC5/ADC_SOUND_IN.c **** *   API to the default value.
1240:.\Generated_Source\PSoC5/ADC_SOUND_IN.c **** *
1241:.\Generated_Source\PSoC5/ADC_SOUND_IN.c **** *******************************************************************************/
1242:.\Generated_Source\PSoC5/ADC_SOUND_IN.c **** static void ADC_SOUND_IN_InitConfig(uint8 config) 
1243:.\Generated_Source\PSoC5/ADC_SOUND_IN.c **** {
1244:.\Generated_Source\PSoC5/ADC_SOUND_IN.c ****     ADC_SOUND_IN_stopConversion = 0u;
1245:.\Generated_Source\PSoC5/ADC_SOUND_IN.c **** 
1246:.\Generated_Source\PSoC5/ADC_SOUND_IN.c ****     if (config == 1u)
1247:.\Generated_Source\PSoC5/ADC_SOUND_IN.c ****     {
1248:.\Generated_Source\PSoC5/ADC_SOUND_IN.c ****         /* Default Config */
1249:.\Generated_Source\PSoC5/ADC_SOUND_IN.c ****         ADC_SOUND_IN_DEC_CR_REG      = ADC_SOUND_IN_CFG1_DEC_CR;
1250:.\Generated_Source\PSoC5/ADC_SOUND_IN.c ****         ADC_SOUND_IN_DEC_SHIFT1_REG  = ADC_SOUND_IN_CFG1_DEC_SHIFT1;
1251:.\Generated_Source\PSoC5/ADC_SOUND_IN.c ****         ADC_SOUND_IN_DEC_SHIFT2_REG  = ADC_SOUND_IN_CFG1_DEC_SHIFT2;
1252:.\Generated_Source\PSoC5/ADC_SOUND_IN.c ****         ADC_SOUND_IN_DEC_DR2_REG     = ADC_SOUND_IN_CFG1_DEC_DR2;
1253:.\Generated_Source\PSoC5/ADC_SOUND_IN.c ****         ADC_SOUND_IN_DEC_DR2H_REG    = ADC_SOUND_IN_CFG1_DEC_DR2H;
1254:.\Generated_Source\PSoC5/ADC_SOUND_IN.c ****         ADC_SOUND_IN_DEC_DR1_REG     = ADC_SOUND_IN_CFG1_DEC_DR1;
1255:.\Generated_Source\PSoC5/ADC_SOUND_IN.c ****         ADC_SOUND_IN_DEC_OCOR_REG    = ADC_SOUND_IN_CFG1_DEC_OCOR;
1256:.\Generated_Source\PSoC5/ADC_SOUND_IN.c ****         ADC_SOUND_IN_DEC_OCORM_REG   = ADC_SOUND_IN_CFG1_DEC_OCORM;
1257:.\Generated_Source\PSoC5/ADC_SOUND_IN.c ****         ADC_SOUND_IN_DEC_OCORH_REG   = ADC_SOUND_IN_CFG1_DEC_OCORH;
1258:.\Generated_Source\PSoC5/ADC_SOUND_IN.c ****         ADC_SOUND_IN_DEC_COHER_REG   = ADC_SOUND_IN_CFG1_DEC_COHER;
1259:.\Generated_Source\PSoC5/ADC_SOUND_IN.c **** 
1260:.\Generated_Source\PSoC5/ADC_SOUND_IN.c ****         ADC_SOUND_IN_DSM_CR4_REG     = ADC_SOUND_IN_CFG1_DSM_CR4;
1261:.\Generated_Source\PSoC5/ADC_SOUND_IN.c ****         ADC_SOUND_IN_DSM_CR5_REG     = ADC_SOUND_IN_CFG1_DSM_CR5;
1262:.\Generated_Source\PSoC5/ADC_SOUND_IN.c ****         ADC_SOUND_IN_DSM_CR6_REG     = ADC_SOUND_IN_CFG1_DSM_CR6;
1263:.\Generated_Source\PSoC5/ADC_SOUND_IN.c ****         ADC_SOUND_IN_DSM_CR7_REG     = ADC_SOUND_IN_CFG1_DSM_CR7;
1264:.\Generated_Source\PSoC5/ADC_SOUND_IN.c ****         ADC_SOUND_IN_DSM_CR10_REG    = ADC_SOUND_IN_CFG1_DSM_CR10;
1265:.\Generated_Source\PSoC5/ADC_SOUND_IN.c ****         ADC_SOUND_IN_DSM_CR11_REG    = ADC_SOUND_IN_CFG1_DSM_CR11;
1266:.\Generated_Source\PSoC5/ADC_SOUND_IN.c ****         ADC_SOUND_IN_DSM_CR12_REG    = ADC_SOUND_IN_CFG1_DSM_CR12;
1267:.\Generated_Source\PSoC5/ADC_SOUND_IN.c ****         ADC_SOUND_IN_DSM_CR14_REG    = ADC_SOUND_IN_CFG1_DSM_CR14;
1268:.\Generated_Source\PSoC5/ADC_SOUND_IN.c ****         ADC_SOUND_IN_DSM_CR15_REG    = ADC_SOUND_IN_CFG1_DSM_CR15;
1269:.\Generated_Source\PSoC5/ADC_SOUND_IN.c ****         ADC_SOUND_IN_DSM_CR16_REG    = ADC_SOUND_IN_CFG1_DSM_CR16;
1270:.\Generated_Source\PSoC5/ADC_SOUND_IN.c ****         ADC_SOUND_IN_DSM_CR17_REG    = ADC_SOUND_IN_CFG1_DSM_CR17;
1271:.\Generated_Source\PSoC5/ADC_SOUND_IN.c ****         /* Set DSM_REF0_REG by disabling and enabling the PRESS circuit */
1272:.\Generated_Source\PSoC5/ADC_SOUND_IN.c ****         ADC_SOUND_IN_SetDSMRef0Reg(ADC_SOUND_IN_CFG1_DSM_REF0);
1273:.\Generated_Source\PSoC5/ADC_SOUND_IN.c ****         ADC_SOUND_IN_DSM_REF2_REG    = ADC_SOUND_IN_CFG1_DSM_REF2;
1274:.\Generated_Source\PSoC5/ADC_SOUND_IN.c ****         ADC_SOUND_IN_DSM_REF3_REG    = ADC_SOUND_IN_CFG1_DSM_REF3;
1275:.\Generated_Source\PSoC5/ADC_SOUND_IN.c **** 
1276:.\Generated_Source\PSoC5/ADC_SOUND_IN.c ****         ADC_SOUND_IN_DSM_BUF0_REG    = ADC_SOUND_IN_CFG1_DSM_BUF0;
1277:.\Generated_Source\PSoC5/ADC_SOUND_IN.c ****         ADC_SOUND_IN_DSM_BUF1_REG    = ADC_SOUND_IN_CFG1_DSM_BUF1;
1278:.\Generated_Source\PSoC5/ADC_SOUND_IN.c ****         ADC_SOUND_IN_DSM_BUF2_REG    = ADC_SOUND_IN_CFG1_DSM_BUF2;
1279:.\Generated_Source\PSoC5/ADC_SOUND_IN.c ****         ADC_SOUND_IN_DSM_BUF3_REG    = ADC_SOUND_IN_CFG1_DSM_BUF3;
1280:.\Generated_Source\PSoC5/ADC_SOUND_IN.c **** 
1281:.\Generated_Source\PSoC5/ADC_SOUND_IN.c ****         /* To select either Vssa or Vref to -ve input of DSM depending on
1282:.\Generated_Source\PSoC5/ADC_SOUND_IN.c ****         *  the input  range selected.
1283:.\Generated_Source\PSoC5/ADC_SOUND_IN.c ****         */
1284:.\Generated_Source\PSoC5/ADC_SOUND_IN.c ****         #if(ADC_SOUND_IN_DEFAULT_INPUT_MODE)
1285:.\Generated_Source\PSoC5/ADC_SOUND_IN.c ****             #if (ADC_SOUND_IN_CFG1_INPUT_RANGE == ADC_SOUND_IN_IR_VSSA_TO_2VREF)
1286:.\Generated_Source\PSoC5/ADC_SOUND_IN.c ****                 ADC_SOUND_IN_AMux_Select(1u);
ARM GAS  C:\Users\YongY\AppData\Local\Temp\ccMwH7lk.s 			page 24


1287:.\Generated_Source\PSoC5/ADC_SOUND_IN.c ****             #else
1288:.\Generated_Source\PSoC5/ADC_SOUND_IN.c ****                 ADC_SOUND_IN_AMux_Select(0u);
1289:.\Generated_Source\PSoC5/ADC_SOUND_IN.c ****             #endif /* ADC_SOUND_IN_IR_VSSA_TO_2VREF) */
1290:.\Generated_Source\PSoC5/ADC_SOUND_IN.c ****         #endif /* ADC_SOUND_IN_DEFAULT_INPUT_MODE */
1291:.\Generated_Source\PSoC5/ADC_SOUND_IN.c **** 
1292:.\Generated_Source\PSoC5/ADC_SOUND_IN.c ****         /* Set the Conversion stop if resolution is above 16 bit and conversion
1293:.\Generated_Source\PSoC5/ADC_SOUND_IN.c ****         *   mode is Single sample
1294:.\Generated_Source\PSoC5/ADC_SOUND_IN.c ****         */
1295:.\Generated_Source\PSoC5/ADC_SOUND_IN.c ****         #if(ADC_SOUND_IN_CFG1_RESOLUTION > 16 && \
1296:.\Generated_Source\PSoC5/ADC_SOUND_IN.c ****             ADC_SOUND_IN_CFG1_CONV_MODE == ADC_SOUND_IN_MODE_SINGLE_SAMPLE)
1297:.\Generated_Source\PSoC5/ADC_SOUND_IN.c ****             ADC_SOUND_IN_stopConversion = 1u;
1298:.\Generated_Source\PSoC5/ADC_SOUND_IN.c ****         #endif /* Single sample with resolution above 16 bits. */
1299:.\Generated_Source\PSoC5/ADC_SOUND_IN.c **** 
1300:.\Generated_Source\PSoC5/ADC_SOUND_IN.c ****         ADC_SOUND_IN_CountsPerVolt = (int32)ADC_SOUND_IN_CFG1_COUNTS_PER_VOLT;
1301:.\Generated_Source\PSoC5/ADC_SOUND_IN.c **** 
1302:.\Generated_Source\PSoC5/ADC_SOUND_IN.c ****         ADC_SOUND_IN_Ext_CP_Clk_SetDividerRegister(ADC_SOUND_IN_CFG1_CP_CLK_DIVIDER, 1u);
1303:.\Generated_Source\PSoC5/ADC_SOUND_IN.c **** 
1304:.\Generated_Source\PSoC5/ADC_SOUND_IN.c ****         /* This is only valid if there is an internal clock */
1305:.\Generated_Source\PSoC5/ADC_SOUND_IN.c ****         #if(ADC_SOUND_IN_DEFAULT_INTERNAL_CLK)
1306:.\Generated_Source\PSoC5/ADC_SOUND_IN.c ****             ADC_SOUND_IN_theACLK_SetDividerRegister(ADC_SOUND_IN_CFG1_ADC_CLK_DIVIDER, 1u);
1307:.\Generated_Source\PSoC5/ADC_SOUND_IN.c ****         #endif /* ADC_SOUND_IN_DEFAULT_INTERNAL_CLK */
1308:.\Generated_Source\PSoC5/ADC_SOUND_IN.c **** 
1309:.\Generated_Source\PSoC5/ADC_SOUND_IN.c ****         #if(ADC_SOUND_IN_IRQ_REMOVE == 0u)
1310:.\Generated_Source\PSoC5/ADC_SOUND_IN.c ****             /* Set interrupt vector */
1311:.\Generated_Source\PSoC5/ADC_SOUND_IN.c ****             (void)CyIntSetVector(ADC_SOUND_IN_INTC_NUMBER, &ADC_SOUND_IN_ISR1);
1312:.\Generated_Source\PSoC5/ADC_SOUND_IN.c ****         #endif   /* End ADC_SOUND_IN_IRQ_REMOVE */
1313:.\Generated_Source\PSoC5/ADC_SOUND_IN.c ****     }
1314:.\Generated_Source\PSoC5/ADC_SOUND_IN.c **** 
1315:.\Generated_Source\PSoC5/ADC_SOUND_IN.c ****     #if(ADC_SOUND_IN_DEFAULT_NUM_CONFIGS > 1)
1316:.\Generated_Source\PSoC5/ADC_SOUND_IN.c ****         if(config == 2u)
1317:.\Generated_Source\PSoC5/ADC_SOUND_IN.c ****         {
1318:.\Generated_Source\PSoC5/ADC_SOUND_IN.c ****             /* Second Config */
1319:.\Generated_Source\PSoC5/ADC_SOUND_IN.c ****             ADC_SOUND_IN_DEC_CR_REG      = ADC_SOUND_IN_CFG2_DEC_CR;
1320:.\Generated_Source\PSoC5/ADC_SOUND_IN.c ****             ADC_SOUND_IN_DEC_SHIFT1_REG  = ADC_SOUND_IN_CFG2_DEC_SHIFT1;
1321:.\Generated_Source\PSoC5/ADC_SOUND_IN.c ****             ADC_SOUND_IN_DEC_SHIFT2_REG  = ADC_SOUND_IN_CFG2_DEC_SHIFT2;
1322:.\Generated_Source\PSoC5/ADC_SOUND_IN.c ****             ADC_SOUND_IN_DEC_DR2_REG     = ADC_SOUND_IN_CFG2_DEC_DR2;
1323:.\Generated_Source\PSoC5/ADC_SOUND_IN.c ****             ADC_SOUND_IN_DEC_DR2H_REG    = ADC_SOUND_IN_CFG2_DEC_DR2H;
1324:.\Generated_Source\PSoC5/ADC_SOUND_IN.c ****             ADC_SOUND_IN_DEC_DR1_REG     = ADC_SOUND_IN_CFG2_DEC_DR1;
1325:.\Generated_Source\PSoC5/ADC_SOUND_IN.c ****             ADC_SOUND_IN_DEC_OCOR_REG    = ADC_SOUND_IN_CFG2_DEC_OCOR;
1326:.\Generated_Source\PSoC5/ADC_SOUND_IN.c ****             ADC_SOUND_IN_DEC_OCORM_REG   = ADC_SOUND_IN_CFG2_DEC_OCORM;
1327:.\Generated_Source\PSoC5/ADC_SOUND_IN.c ****             ADC_SOUND_IN_DEC_OCORH_REG   = ADC_SOUND_IN_CFG2_DEC_OCORH;
1328:.\Generated_Source\PSoC5/ADC_SOUND_IN.c ****             ADC_SOUND_IN_DEC_COHER_REG   = ADC_SOUND_IN_CFG2_DEC_COHER;
1329:.\Generated_Source\PSoC5/ADC_SOUND_IN.c **** 
1330:.\Generated_Source\PSoC5/ADC_SOUND_IN.c ****             ADC_SOUND_IN_DSM_CR4_REG     = ADC_SOUND_IN_CFG2_DSM_CR4;
1331:.\Generated_Source\PSoC5/ADC_SOUND_IN.c ****             ADC_SOUND_IN_DSM_CR5_REG     = ADC_SOUND_IN_CFG2_DSM_CR5;
1332:.\Generated_Source\PSoC5/ADC_SOUND_IN.c ****             ADC_SOUND_IN_DSM_CR6_REG     = ADC_SOUND_IN_CFG2_DSM_CR6;
1333:.\Generated_Source\PSoC5/ADC_SOUND_IN.c ****             ADC_SOUND_IN_DSM_CR7_REG     = ADC_SOUND_IN_CFG2_DSM_CR7;
1334:.\Generated_Source\PSoC5/ADC_SOUND_IN.c ****             ADC_SOUND_IN_DSM_CR10_REG    = ADC_SOUND_IN_CFG2_DSM_CR10;
1335:.\Generated_Source\PSoC5/ADC_SOUND_IN.c ****             ADC_SOUND_IN_DSM_CR11_REG    = ADC_SOUND_IN_CFG2_DSM_CR11;
1336:.\Generated_Source\PSoC5/ADC_SOUND_IN.c ****             ADC_SOUND_IN_DSM_CR12_REG    = ADC_SOUND_IN_CFG2_DSM_CR12;
1337:.\Generated_Source\PSoC5/ADC_SOUND_IN.c ****             ADC_SOUND_IN_DSM_CR14_REG    = ADC_SOUND_IN_CFG2_DSM_CR14;
1338:.\Generated_Source\PSoC5/ADC_SOUND_IN.c ****             ADC_SOUND_IN_DSM_CR15_REG    = ADC_SOUND_IN_CFG2_DSM_CR15;
1339:.\Generated_Source\PSoC5/ADC_SOUND_IN.c ****             ADC_SOUND_IN_DSM_CR16_REG    = ADC_SOUND_IN_CFG2_DSM_CR16;
1340:.\Generated_Source\PSoC5/ADC_SOUND_IN.c ****             ADC_SOUND_IN_DSM_CR17_REG    = ADC_SOUND_IN_CFG2_DSM_CR17;
1341:.\Generated_Source\PSoC5/ADC_SOUND_IN.c ****             /* Set DSM_REF0_REG by disabling and enabling the PRESS cirucit */
1342:.\Generated_Source\PSoC5/ADC_SOUND_IN.c ****             ADC_SOUND_IN_SetDSMRef0Reg(ADC_SOUND_IN_CFG2_DSM_REF0);
1343:.\Generated_Source\PSoC5/ADC_SOUND_IN.c ****             ADC_SOUND_IN_DSM_REF2_REG    = ADC_SOUND_IN_CFG2_DSM_REF2;
ARM GAS  C:\Users\YongY\AppData\Local\Temp\ccMwH7lk.s 			page 25


1344:.\Generated_Source\PSoC5/ADC_SOUND_IN.c ****             ADC_SOUND_IN_DSM_REF3_REG    = ADC_SOUND_IN_CFG2_DSM_REF3;
1345:.\Generated_Source\PSoC5/ADC_SOUND_IN.c **** 
1346:.\Generated_Source\PSoC5/ADC_SOUND_IN.c ****             ADC_SOUND_IN_DSM_BUF0_REG    = ADC_SOUND_IN_CFG2_DSM_BUF0;
1347:.\Generated_Source\PSoC5/ADC_SOUND_IN.c ****             ADC_SOUND_IN_DSM_BUF1_REG    = ADC_SOUND_IN_CFG2_DSM_BUF1;
1348:.\Generated_Source\PSoC5/ADC_SOUND_IN.c ****             ADC_SOUND_IN_DSM_BUF2_REG    = ADC_SOUND_IN_CFG2_DSM_BUF2;
1349:.\Generated_Source\PSoC5/ADC_SOUND_IN.c ****             ADC_SOUND_IN_DSM_BUF3_REG    = ADC_SOUND_IN_CFG2_DSM_BUF3;
1350:.\Generated_Source\PSoC5/ADC_SOUND_IN.c **** 
1351:.\Generated_Source\PSoC5/ADC_SOUND_IN.c ****             /* To select either Vssa or Vref to -ve input of DSM depending on
1352:.\Generated_Source\PSoC5/ADC_SOUND_IN.c ****             *  the input range selected.
1353:.\Generated_Source\PSoC5/ADC_SOUND_IN.c ****             */
1354:.\Generated_Source\PSoC5/ADC_SOUND_IN.c **** 
1355:.\Generated_Source\PSoC5/ADC_SOUND_IN.c ****             #if(ADC_SOUND_IN_DEFAULT_INPUT_MODE)
1356:.\Generated_Source\PSoC5/ADC_SOUND_IN.c ****                 #if (ADC_SOUND_IN_CFG2_INPUT_RANGE == ADC_SOUND_IN_IR_VSSA_TO_2VREF)
1357:.\Generated_Source\PSoC5/ADC_SOUND_IN.c ****                     ADC_SOUND_IN_AMux_Select(1u);
1358:.\Generated_Source\PSoC5/ADC_SOUND_IN.c ****                 #else
1359:.\Generated_Source\PSoC5/ADC_SOUND_IN.c ****                     ADC_SOUND_IN_AMux_Select(0u);
1360:.\Generated_Source\PSoC5/ADC_SOUND_IN.c ****                 #endif /* ADC_SOUND_IN_IR_VSSA_TO_2VREF) */
1361:.\Generated_Source\PSoC5/ADC_SOUND_IN.c ****             #endif /* ADC_SOUND_IN_DEFAULT_INPUT_MODE */
1362:.\Generated_Source\PSoC5/ADC_SOUND_IN.c **** 
1363:.\Generated_Source\PSoC5/ADC_SOUND_IN.c ****             /* Set the Conversion stop if resolution is above 16 bit and
1364:.\Generated_Source\PSoC5/ADC_SOUND_IN.c ****             *   conversion mode is Single sample
1365:.\Generated_Source\PSoC5/ADC_SOUND_IN.c ****             */
1366:.\Generated_Source\PSoC5/ADC_SOUND_IN.c ****             #if(ADC_SOUND_IN_CFG2_RESOLUTION > 16 && \
1367:.\Generated_Source\PSoC5/ADC_SOUND_IN.c ****                 ADC_SOUND_IN_CFG2_CONV_MODE == ADC_SOUND_IN_MODE_SINGLE_SAMPLE)
1368:.\Generated_Source\PSoC5/ADC_SOUND_IN.c ****                 ADC_SOUND_IN_stopConversion = 1u;
1369:.\Generated_Source\PSoC5/ADC_SOUND_IN.c ****             #endif /* Single sample with resolution above 16 bits. */
1370:.\Generated_Source\PSoC5/ADC_SOUND_IN.c **** 
1371:.\Generated_Source\PSoC5/ADC_SOUND_IN.c ****             ADC_SOUND_IN_CountsPerVolt = (int32)ADC_SOUND_IN_CFG2_COUNTS_PER_VOLT;
1372:.\Generated_Source\PSoC5/ADC_SOUND_IN.c **** 
1373:.\Generated_Source\PSoC5/ADC_SOUND_IN.c ****             ADC_SOUND_IN_Ext_CP_Clk_SetDividerRegister(ADC_SOUND_IN_CFG2_CP_CLK_DIVIDER, 1u);
1374:.\Generated_Source\PSoC5/ADC_SOUND_IN.c **** 
1375:.\Generated_Source\PSoC5/ADC_SOUND_IN.c ****             /* This is only valid if there is an internal clock */
1376:.\Generated_Source\PSoC5/ADC_SOUND_IN.c ****             #if(ADC_SOUND_IN_DEFAULT_INTERNAL_CLK)
1377:.\Generated_Source\PSoC5/ADC_SOUND_IN.c ****                 ADC_SOUND_IN_theACLK_SetDividerRegister(ADC_SOUND_IN_CFG2_ADC_CLK_DIVIDER, 1u);
1378:.\Generated_Source\PSoC5/ADC_SOUND_IN.c ****             #endif /* ADC_SOUND_IN_DEFAULT_INTERNAL_CLK */
1379:.\Generated_Source\PSoC5/ADC_SOUND_IN.c **** 
1380:.\Generated_Source\PSoC5/ADC_SOUND_IN.c ****             #if(ADC_SOUND_IN_IRQ_REMOVE == 0u)
1381:.\Generated_Source\PSoC5/ADC_SOUND_IN.c ****                 /* Set interrupt vector */
1382:.\Generated_Source\PSoC5/ADC_SOUND_IN.c ****                 (void)CyIntSetVector(ADC_SOUND_IN_INTC_NUMBER, &ADC_SOUND_IN_ISR2);
1383:.\Generated_Source\PSoC5/ADC_SOUND_IN.c ****             #endif   /* End ADC_SOUND_IN_IRQ_REMOVE */
1384:.\Generated_Source\PSoC5/ADC_SOUND_IN.c ****         }
1385:.\Generated_Source\PSoC5/ADC_SOUND_IN.c ****     #endif /* ADC_SOUND_IN_DEFAULT_NUM_CONFIGS > 1 */
1386:.\Generated_Source\PSoC5/ADC_SOUND_IN.c **** 
1387:.\Generated_Source\PSoC5/ADC_SOUND_IN.c ****     #if(ADC_SOUND_IN_DEFAULT_NUM_CONFIGS > 2)
1388:.\Generated_Source\PSoC5/ADC_SOUND_IN.c ****         if(config == 3u)
1389:.\Generated_Source\PSoC5/ADC_SOUND_IN.c ****         {
1390:.\Generated_Source\PSoC5/ADC_SOUND_IN.c ****             /* Third Config */
1391:.\Generated_Source\PSoC5/ADC_SOUND_IN.c ****             ADC_SOUND_IN_DEC_CR_REG      = ADC_SOUND_IN_CFG3_DEC_CR;
1392:.\Generated_Source\PSoC5/ADC_SOUND_IN.c ****             ADC_SOUND_IN_DEC_SHIFT1_REG  = ADC_SOUND_IN_CFG3_DEC_SHIFT1;
1393:.\Generated_Source\PSoC5/ADC_SOUND_IN.c ****             ADC_SOUND_IN_DEC_SHIFT2_REG  = ADC_SOUND_IN_CFG3_DEC_SHIFT2;
1394:.\Generated_Source\PSoC5/ADC_SOUND_IN.c ****             ADC_SOUND_IN_DEC_DR2_REG     = ADC_SOUND_IN_CFG3_DEC_DR2;
1395:.\Generated_Source\PSoC5/ADC_SOUND_IN.c ****             ADC_SOUND_IN_DEC_DR2H_REG    = ADC_SOUND_IN_CFG3_DEC_DR2H;
1396:.\Generated_Source\PSoC5/ADC_SOUND_IN.c ****             ADC_SOUND_IN_DEC_DR1_REG     = ADC_SOUND_IN_CFG3_DEC_DR1;
1397:.\Generated_Source\PSoC5/ADC_SOUND_IN.c ****             ADC_SOUND_IN_DEC_OCOR_REG    = ADC_SOUND_IN_CFG3_DEC_OCOR;
1398:.\Generated_Source\PSoC5/ADC_SOUND_IN.c ****             ADC_SOUND_IN_DEC_OCORM_REG   = ADC_SOUND_IN_CFG3_DEC_OCORM;
1399:.\Generated_Source\PSoC5/ADC_SOUND_IN.c ****             ADC_SOUND_IN_DEC_OCORH_REG   = ADC_SOUND_IN_CFG3_DEC_OCORH;
1400:.\Generated_Source\PSoC5/ADC_SOUND_IN.c ****             ADC_SOUND_IN_DEC_COHER_REG   = ADC_SOUND_IN_CFG3_DEC_COHER;
ARM GAS  C:\Users\YongY\AppData\Local\Temp\ccMwH7lk.s 			page 26


1401:.\Generated_Source\PSoC5/ADC_SOUND_IN.c **** 
1402:.\Generated_Source\PSoC5/ADC_SOUND_IN.c ****             ADC_SOUND_IN_DSM_CR4_REG     = ADC_SOUND_IN_CFG3_DSM_CR4;
1403:.\Generated_Source\PSoC5/ADC_SOUND_IN.c ****             ADC_SOUND_IN_DSM_CR5_REG     = ADC_SOUND_IN_CFG3_DSM_CR5;
1404:.\Generated_Source\PSoC5/ADC_SOUND_IN.c ****             ADC_SOUND_IN_DSM_CR6_REG     = ADC_SOUND_IN_CFG3_DSM_CR6;
1405:.\Generated_Source\PSoC5/ADC_SOUND_IN.c ****             ADC_SOUND_IN_DSM_CR7_REG     = ADC_SOUND_IN_CFG3_DSM_CR7;
1406:.\Generated_Source\PSoC5/ADC_SOUND_IN.c ****             ADC_SOUND_IN_DSM_CR10_REG    = ADC_SOUND_IN_CFG3_DSM_CR10;
1407:.\Generated_Source\PSoC5/ADC_SOUND_IN.c ****             ADC_SOUND_IN_DSM_CR11_REG    = ADC_SOUND_IN_CFG3_DSM_CR11;
1408:.\Generated_Source\PSoC5/ADC_SOUND_IN.c ****             ADC_SOUND_IN_DSM_CR12_REG    = ADC_SOUND_IN_CFG3_DSM_CR12;
1409:.\Generated_Source\PSoC5/ADC_SOUND_IN.c ****             ADC_SOUND_IN_DSM_CR14_REG    = ADC_SOUND_IN_CFG3_DSM_CR14;
1410:.\Generated_Source\PSoC5/ADC_SOUND_IN.c ****             ADC_SOUND_IN_DSM_CR15_REG    = ADC_SOUND_IN_CFG3_DSM_CR15;
1411:.\Generated_Source\PSoC5/ADC_SOUND_IN.c ****             ADC_SOUND_IN_DSM_CR16_REG    = ADC_SOUND_IN_CFG3_DSM_CR16;
1412:.\Generated_Source\PSoC5/ADC_SOUND_IN.c ****             ADC_SOUND_IN_DSM_CR17_REG    = ADC_SOUND_IN_CFG3_DSM_CR17;
1413:.\Generated_Source\PSoC5/ADC_SOUND_IN.c ****             /* Set DSM_REF0_REG by disabling and enabling the PRESS circuit */
1414:.\Generated_Source\PSoC5/ADC_SOUND_IN.c ****             ADC_SOUND_IN_SetDSMRef0Reg(ADC_SOUND_IN_CFG3_DSM_REF0);
1415:.\Generated_Source\PSoC5/ADC_SOUND_IN.c ****             ADC_SOUND_IN_DSM_REF2_REG    = ADC_SOUND_IN_CFG3_DSM_REF2;
1416:.\Generated_Source\PSoC5/ADC_SOUND_IN.c ****             ADC_SOUND_IN_DSM_REF3_REG    = ADC_SOUND_IN_CFG3_DSM_REF3;
1417:.\Generated_Source\PSoC5/ADC_SOUND_IN.c **** 
1418:.\Generated_Source\PSoC5/ADC_SOUND_IN.c ****             ADC_SOUND_IN_DSM_BUF0_REG    = ADC_SOUND_IN_CFG3_DSM_BUF0;
1419:.\Generated_Source\PSoC5/ADC_SOUND_IN.c ****             ADC_SOUND_IN_DSM_BUF1_REG    = ADC_SOUND_IN_CFG3_DSM_BUF1;
1420:.\Generated_Source\PSoC5/ADC_SOUND_IN.c ****             ADC_SOUND_IN_DSM_BUF2_REG    = ADC_SOUND_IN_CFG3_DSM_BUF2;
1421:.\Generated_Source\PSoC5/ADC_SOUND_IN.c ****             ADC_SOUND_IN_DSM_BUF3_REG    = ADC_SOUND_IN_CFG3_DSM_BUF3;
1422:.\Generated_Source\PSoC5/ADC_SOUND_IN.c **** 
1423:.\Generated_Source\PSoC5/ADC_SOUND_IN.c ****             /* To select either Vssa or Vref to -ve input of DSM depending on
1424:.\Generated_Source\PSoC5/ADC_SOUND_IN.c ****             *  the input range selected.
1425:.\Generated_Source\PSoC5/ADC_SOUND_IN.c ****             */
1426:.\Generated_Source\PSoC5/ADC_SOUND_IN.c ****             #if(ADC_SOUND_IN_DEFAULT_INPUT_MODE)
1427:.\Generated_Source\PSoC5/ADC_SOUND_IN.c ****                 #if (ADC_SOUND_IN_CFG3_INPUT_RANGE == ADC_SOUND_IN_IR_VSSA_TO_2VREF)
1428:.\Generated_Source\PSoC5/ADC_SOUND_IN.c ****                     ADC_SOUND_IN_AMux_Select(1u);
1429:.\Generated_Source\PSoC5/ADC_SOUND_IN.c ****                 #else
1430:.\Generated_Source\PSoC5/ADC_SOUND_IN.c ****                     ADC_SOUND_IN_AMux_Select(0u);
1431:.\Generated_Source\PSoC5/ADC_SOUND_IN.c ****                 #endif /* ADC_SOUND_IN_IR_VSSA_TO_2VREF) */
1432:.\Generated_Source\PSoC5/ADC_SOUND_IN.c ****             #endif /* ADC_SOUND_IN_DEFAULT_INPUT_MODE */
1433:.\Generated_Source\PSoC5/ADC_SOUND_IN.c **** 
1434:.\Generated_Source\PSoC5/ADC_SOUND_IN.c ****             /* Set the Conversion stop if resolution is above 16 bit and
1435:.\Generated_Source\PSoC5/ADC_SOUND_IN.c ****                conversion  mode is Single sample */
1436:.\Generated_Source\PSoC5/ADC_SOUND_IN.c ****             #if(ADC_SOUND_IN_CFG3_RESOLUTION > 16 && \
1437:.\Generated_Source\PSoC5/ADC_SOUND_IN.c ****                 ADC_SOUND_IN_CFG3_CONV_MODE == ADC_SOUND_IN_MODE_SINGLE_SAMPLE)
1438:.\Generated_Source\PSoC5/ADC_SOUND_IN.c ****                 ADC_SOUND_IN_stopConversion = 1u;
1439:.\Generated_Source\PSoC5/ADC_SOUND_IN.c ****             #endif /* Single sample with resolution above 16 bits */
1440:.\Generated_Source\PSoC5/ADC_SOUND_IN.c **** 
1441:.\Generated_Source\PSoC5/ADC_SOUND_IN.c ****             ADC_SOUND_IN_CountsPerVolt = (int32)ADC_SOUND_IN_CFG3_COUNTS_PER_VOLT;
1442:.\Generated_Source\PSoC5/ADC_SOUND_IN.c **** 
1443:.\Generated_Source\PSoC5/ADC_SOUND_IN.c ****             ADC_SOUND_IN_Ext_CP_Clk_SetDividerRegister(ADC_SOUND_IN_CFG3_CP_CLK_DIVIDER, 1u);
1444:.\Generated_Source\PSoC5/ADC_SOUND_IN.c **** 
1445:.\Generated_Source\PSoC5/ADC_SOUND_IN.c ****             /* This is only valid if there is an internal clock */
1446:.\Generated_Source\PSoC5/ADC_SOUND_IN.c ****             #if(ADC_SOUND_IN_DEFAULT_INTERNAL_CLK)
1447:.\Generated_Source\PSoC5/ADC_SOUND_IN.c ****                 ADC_SOUND_IN_theACLK_SetDividerRegister(ADC_SOUND_IN_CFG3_ADC_CLK_DIVIDER, 1u);
1448:.\Generated_Source\PSoC5/ADC_SOUND_IN.c ****             #endif /* ADC_SOUND_IN_DEFAULT_INTERNAL_CLK */
1449:.\Generated_Source\PSoC5/ADC_SOUND_IN.c **** 
1450:.\Generated_Source\PSoC5/ADC_SOUND_IN.c ****             #if(ADC_SOUND_IN_IRQ_REMOVE == 0u)
1451:.\Generated_Source\PSoC5/ADC_SOUND_IN.c ****                 /* Set interrupt vector */
1452:.\Generated_Source\PSoC5/ADC_SOUND_IN.c ****                 (void)CyIntSetVector(ADC_SOUND_IN_INTC_NUMBER, &ADC_SOUND_IN_ISR3);
1453:.\Generated_Source\PSoC5/ADC_SOUND_IN.c ****             #endif   /* End ADC_SOUND_IN_IRQ_REMOVE */
1454:.\Generated_Source\PSoC5/ADC_SOUND_IN.c ****         }
1455:.\Generated_Source\PSoC5/ADC_SOUND_IN.c ****     #endif /* ADC_SOUND_IN_DEFAULT_NUM_CONFIGS > 2 */
1456:.\Generated_Source\PSoC5/ADC_SOUND_IN.c **** 
1457:.\Generated_Source\PSoC5/ADC_SOUND_IN.c ****     #if(ADC_SOUND_IN_DEFAULT_NUM_CONFIGS > 3)
ARM GAS  C:\Users\YongY\AppData\Local\Temp\ccMwH7lk.s 			page 27


1458:.\Generated_Source\PSoC5/ADC_SOUND_IN.c ****         if (config == 4u)
1459:.\Generated_Source\PSoC5/ADC_SOUND_IN.c ****         {
1460:.\Generated_Source\PSoC5/ADC_SOUND_IN.c ****             /* Fourth Config */
1461:.\Generated_Source\PSoC5/ADC_SOUND_IN.c ****             ADC_SOUND_IN_DEC_CR_REG      = ADC_SOUND_IN_CFG4_DEC_CR;
1462:.\Generated_Source\PSoC5/ADC_SOUND_IN.c ****             ADC_SOUND_IN_DEC_SHIFT1_REG  = ADC_SOUND_IN_CFG4_DEC_SHIFT1;
1463:.\Generated_Source\PSoC5/ADC_SOUND_IN.c ****             ADC_SOUND_IN_DEC_SHIFT2_REG  = ADC_SOUND_IN_CFG4_DEC_SHIFT2;
1464:.\Generated_Source\PSoC5/ADC_SOUND_IN.c ****             ADC_SOUND_IN_DEC_DR2_REG     = ADC_SOUND_IN_CFG4_DEC_DR2;
1465:.\Generated_Source\PSoC5/ADC_SOUND_IN.c ****             ADC_SOUND_IN_DEC_DR2H_REG    = ADC_SOUND_IN_CFG4_DEC_DR2H;
1466:.\Generated_Source\PSoC5/ADC_SOUND_IN.c ****             ADC_SOUND_IN_DEC_DR1_REG     = ADC_SOUND_IN_CFG4_DEC_DR1;
1467:.\Generated_Source\PSoC5/ADC_SOUND_IN.c ****             ADC_SOUND_IN_DEC_OCOR_REG    = ADC_SOUND_IN_CFG4_DEC_OCOR;
1468:.\Generated_Source\PSoC5/ADC_SOUND_IN.c ****             ADC_SOUND_IN_DEC_OCORM_REG   = ADC_SOUND_IN_CFG4_DEC_OCORM;
1469:.\Generated_Source\PSoC5/ADC_SOUND_IN.c ****             ADC_SOUND_IN_DEC_OCORH_REG   = ADC_SOUND_IN_CFG4_DEC_OCORH;
1470:.\Generated_Source\PSoC5/ADC_SOUND_IN.c ****             ADC_SOUND_IN_DEC_COHER_REG   = ADC_SOUND_IN_CFG4_DEC_COHER;
1471:.\Generated_Source\PSoC5/ADC_SOUND_IN.c **** 
1472:.\Generated_Source\PSoC5/ADC_SOUND_IN.c ****             ADC_SOUND_IN_DSM_CR4_REG     = ADC_SOUND_IN_CFG4_DSM_CR4;
1473:.\Generated_Source\PSoC5/ADC_SOUND_IN.c ****             ADC_SOUND_IN_DSM_CR5_REG     = ADC_SOUND_IN_CFG4_DSM_CR5;
1474:.\Generated_Source\PSoC5/ADC_SOUND_IN.c ****             ADC_SOUND_IN_DSM_CR6_REG     = ADC_SOUND_IN_CFG4_DSM_CR6;
1475:.\Generated_Source\PSoC5/ADC_SOUND_IN.c ****             ADC_SOUND_IN_DSM_CR7_REG     = ADC_SOUND_IN_CFG4_DSM_CR7;
1476:.\Generated_Source\PSoC5/ADC_SOUND_IN.c ****             ADC_SOUND_IN_DSM_CR10_REG    = ADC_SOUND_IN_CFG4_DSM_CR10;
1477:.\Generated_Source\PSoC5/ADC_SOUND_IN.c ****             ADC_SOUND_IN_DSM_CR11_REG    = ADC_SOUND_IN_CFG4_DSM_CR11;
1478:.\Generated_Source\PSoC5/ADC_SOUND_IN.c ****             ADC_SOUND_IN_DSM_CR12_REG    = ADC_SOUND_IN_CFG4_DSM_CR12;
1479:.\Generated_Source\PSoC5/ADC_SOUND_IN.c ****             ADC_SOUND_IN_DSM_CR14_REG    = ADC_SOUND_IN_CFG4_DSM_CR14;
1480:.\Generated_Source\PSoC5/ADC_SOUND_IN.c ****             ADC_SOUND_IN_DSM_CR15_REG    = ADC_SOUND_IN_CFG4_DSM_CR15;
1481:.\Generated_Source\PSoC5/ADC_SOUND_IN.c ****             ADC_SOUND_IN_DSM_CR16_REG    = ADC_SOUND_IN_CFG4_DSM_CR16;
1482:.\Generated_Source\PSoC5/ADC_SOUND_IN.c ****             ADC_SOUND_IN_DSM_CR17_REG    = ADC_SOUND_IN_CFG4_DSM_CR17;
1483:.\Generated_Source\PSoC5/ADC_SOUND_IN.c ****             /* Set DSM_REF0_REG by disabling and enabling the PRESS circuit */
1484:.\Generated_Source\PSoC5/ADC_SOUND_IN.c ****             ADC_SOUND_IN_SetDSMRef0Reg(ADC_SOUND_IN_CFG4_DSM_REF0);
1485:.\Generated_Source\PSoC5/ADC_SOUND_IN.c ****             ADC_SOUND_IN_DSM_REF2_REG    = ADC_SOUND_IN_CFG4_DSM_REF2;
1486:.\Generated_Source\PSoC5/ADC_SOUND_IN.c ****             ADC_SOUND_IN_DSM_REF3_REG    = ADC_SOUND_IN_CFG4_DSM_REF3;
1487:.\Generated_Source\PSoC5/ADC_SOUND_IN.c **** 
1488:.\Generated_Source\PSoC5/ADC_SOUND_IN.c ****             ADC_SOUND_IN_DSM_BUF0_REG    = ADC_SOUND_IN_CFG4_DSM_BUF0;
1489:.\Generated_Source\PSoC5/ADC_SOUND_IN.c ****             ADC_SOUND_IN_DSM_BUF1_REG    = ADC_SOUND_IN_CFG4_DSM_BUF1;
1490:.\Generated_Source\PSoC5/ADC_SOUND_IN.c ****             ADC_SOUND_IN_DSM_BUF2_REG    = ADC_SOUND_IN_CFG4_DSM_BUF2;
1491:.\Generated_Source\PSoC5/ADC_SOUND_IN.c ****             ADC_SOUND_IN_DSM_BUF3_REG    = ADC_SOUND_IN_CFG4_DSM_BUF3;
1492:.\Generated_Source\PSoC5/ADC_SOUND_IN.c **** 
1493:.\Generated_Source\PSoC5/ADC_SOUND_IN.c ****             /* To select either Vssa or Vref to -ve input of DSM depending on
1494:.\Generated_Source\PSoC5/ADC_SOUND_IN.c ****             *  the input range selected.
1495:.\Generated_Source\PSoC5/ADC_SOUND_IN.c ****             */
1496:.\Generated_Source\PSoC5/ADC_SOUND_IN.c ****             #if(ADC_SOUND_IN_DEFAULT_INPUT_MODE)
1497:.\Generated_Source\PSoC5/ADC_SOUND_IN.c ****                 #if (ADC_SOUND_IN_CFG4_INPUT_RANGE == ADC_SOUND_IN_IR_VSSA_TO_2VREF)
1498:.\Generated_Source\PSoC5/ADC_SOUND_IN.c ****                     ADC_SOUND_IN_AMux_Select(1u);
1499:.\Generated_Source\PSoC5/ADC_SOUND_IN.c ****                 #else
1500:.\Generated_Source\PSoC5/ADC_SOUND_IN.c ****                     ADC_SOUND_IN_AMux_Select(0u);
1501:.\Generated_Source\PSoC5/ADC_SOUND_IN.c ****                 #endif /* ADC_SOUND_IN_IR_VSSA_TO_2VREF) */
1502:.\Generated_Source\PSoC5/ADC_SOUND_IN.c ****             #endif /* ADC_SOUND_IN_DEFAULT_INPUT_MODE */
1503:.\Generated_Source\PSoC5/ADC_SOUND_IN.c **** 
1504:.\Generated_Source\PSoC5/ADC_SOUND_IN.c ****             /* Set the Conversion stop if resolution is above 16 bit and
1505:.\Generated_Source\PSoC5/ADC_SOUND_IN.c ****                conversion mode is Single sample */
1506:.\Generated_Source\PSoC5/ADC_SOUND_IN.c ****             #if(ADC_SOUND_IN_CFG4_RESOLUTION > 16 && \
1507:.\Generated_Source\PSoC5/ADC_SOUND_IN.c ****                 ADC_SOUND_IN_CFG4_CONV_MODE == ADC_SOUND_IN_MODE_SINGLE_SAMPLE)
1508:.\Generated_Source\PSoC5/ADC_SOUND_IN.c ****                 ADC_SOUND_IN_stopConversion = 1u;
1509:.\Generated_Source\PSoC5/ADC_SOUND_IN.c ****             #endif /* Single sample with resolution above 16 bits */
1510:.\Generated_Source\PSoC5/ADC_SOUND_IN.c **** 
1511:.\Generated_Source\PSoC5/ADC_SOUND_IN.c ****             ADC_SOUND_IN_CountsPerVolt = (int32)ADC_SOUND_IN_CFG4_COUNTS_PER_VOLT;
1512:.\Generated_Source\PSoC5/ADC_SOUND_IN.c **** 
1513:.\Generated_Source\PSoC5/ADC_SOUND_IN.c ****             ADC_SOUND_IN_Ext_CP_Clk_SetDividerRegister(ADC_SOUND_IN_CFG4_CP_CLK_DIVIDER, 1u);
1514:.\Generated_Source\PSoC5/ADC_SOUND_IN.c **** 
ARM GAS  C:\Users\YongY\AppData\Local\Temp\ccMwH7lk.s 			page 28


1515:.\Generated_Source\PSoC5/ADC_SOUND_IN.c ****             /* This is only valid if there is an internal clock */
1516:.\Generated_Source\PSoC5/ADC_SOUND_IN.c ****             #if(ADC_SOUND_IN_DEFAULT_INTERNAL_CLK)
1517:.\Generated_Source\PSoC5/ADC_SOUND_IN.c ****                 ADC_SOUND_IN_theACLK_SetDividerRegister(ADC_SOUND_IN_CFG4_ADC_CLK_DIVIDER, 1u);
1518:.\Generated_Source\PSoC5/ADC_SOUND_IN.c ****             #endif /* ADC_SOUND_IN_DEFAULT_INTERNAL_CLK */
1519:.\Generated_Source\PSoC5/ADC_SOUND_IN.c **** 
1520:.\Generated_Source\PSoC5/ADC_SOUND_IN.c ****             #if(ADC_SOUND_IN_IRQ_REMOVE == 0u)
1521:.\Generated_Source\PSoC5/ADC_SOUND_IN.c ****                 /* Set interrupt vector */
1522:.\Generated_Source\PSoC5/ADC_SOUND_IN.c ****                 (void)CyIntSetVector(ADC_SOUND_IN_INTC_NUMBER, &ADC_SOUND_IN_ISR4);
1523:.\Generated_Source\PSoC5/ADC_SOUND_IN.c ****             #endif   /* End ADC_SOUND_IN_IRQ_REMOVE */
1524:.\Generated_Source\PSoC5/ADC_SOUND_IN.c ****         }
1525:.\Generated_Source\PSoC5/ADC_SOUND_IN.c ****     #endif /* ADC_SOUND_IN_DEFAULT_NUM_CONFIGS > 3 */
1526:.\Generated_Source\PSoC5/ADC_SOUND_IN.c **** }
1527:.\Generated_Source\PSoC5/ADC_SOUND_IN.c **** 
1528:.\Generated_Source\PSoC5/ADC_SOUND_IN.c **** 
1529:.\Generated_Source\PSoC5/ADC_SOUND_IN.c **** /*******************************************************************************
1530:.\Generated_Source\PSoC5/ADC_SOUND_IN.c **** * Function Name: ADC_SOUND_IN_SelectCofiguration
1531:.\Generated_Source\PSoC5/ADC_SOUND_IN.c **** ********************************************************************************
1532:.\Generated_Source\PSoC5/ADC_SOUND_IN.c **** *
1533:.\Generated_Source\PSoC5/ADC_SOUND_IN.c **** * Summary:
1534:.\Generated_Source\PSoC5/ADC_SOUND_IN.c **** *  Sets one of up to four ADC configurations. Before setting the new
1535:.\Generated_Source\PSoC5/ADC_SOUND_IN.c **** *  configuration, the ADC is stopped and powered down. After setting
1536:.\Generated_Source\PSoC5/ADC_SOUND_IN.c **** *  the new configuration, the ADC can be powered and conversion
1537:.\Generated_Source\PSoC5/ADC_SOUND_IN.c **** *  can be restarted depending up on the value of second parameter
1538:.\Generated_Source\PSoC5/ADC_SOUND_IN.c **** *  restart. If the value of this parameter is 1, then ADC will be
1539:.\Generated_Source\PSoC5/ADC_SOUND_IN.c **** *  restarted. If this value is zero, then user must call ADC_SOUND_IN_Start
1540:.\Generated_Source\PSoC5/ADC_SOUND_IN.c **** *  and ADC_SOUND_IN_StartConvert() to restart the conversion.
1541:.\Generated_Source\PSoC5/ADC_SOUND_IN.c **** *
1542:.\Generated_Source\PSoC5/ADC_SOUND_IN.c **** * Parameters:
1543:.\Generated_Source\PSoC5/ADC_SOUND_IN.c **** *  config:  configuration user wants to select.
1544:.\Generated_Source\PSoC5/ADC_SOUND_IN.c **** *           Valid range: 1..4
1545:.\Generated_Source\PSoC5/ADC_SOUND_IN.c **** *  restart:  Restart option. 1 means start the ADC and restart the conversion.
1546:.\Generated_Source\PSoC5/ADC_SOUND_IN.c **** *                            0 means do not start the ADC and conversion.
1547:.\Generated_Source\PSoC5/ADC_SOUND_IN.c **** *
1548:.\Generated_Source\PSoC5/ADC_SOUND_IN.c **** * Return:
1549:.\Generated_Source\PSoC5/ADC_SOUND_IN.c **** *  None
1550:.\Generated_Source\PSoC5/ADC_SOUND_IN.c **** *
1551:.\Generated_Source\PSoC5/ADC_SOUND_IN.c **** *******************************************************************************/
1552:.\Generated_Source\PSoC5/ADC_SOUND_IN.c **** void ADC_SOUND_IN_SelectConfiguration(uint8 config, uint8 restart)
1553:.\Generated_Source\PSoC5/ADC_SOUND_IN.c ****                                               
1554:.\Generated_Source\PSoC5/ADC_SOUND_IN.c **** {
1555:.\Generated_Source\PSoC5/ADC_SOUND_IN.c ****     /* Check whether the configuration number is valid or not */
1556:.\Generated_Source\PSoC5/ADC_SOUND_IN.c ****     if((config > 0u) && (config <= ADC_SOUND_IN_DEFAULT_NUM_CONFIGS))
1557:.\Generated_Source\PSoC5/ADC_SOUND_IN.c ****     {
1558:.\Generated_Source\PSoC5/ADC_SOUND_IN.c ****         /* Set the flag to ensure Start() API doesn't override the 
1559:.\Generated_Source\PSoC5/ADC_SOUND_IN.c **** 		*  selected configuration
1560:.\Generated_Source\PSoC5/ADC_SOUND_IN.c **** 		*/
1561:.\Generated_Source\PSoC5/ADC_SOUND_IN.c ****         if(ADC_SOUND_IN_initVar == 0u)
1562:.\Generated_Source\PSoC5/ADC_SOUND_IN.c ****         {
1563:.\Generated_Source\PSoC5/ADC_SOUND_IN.c ****             ADC_SOUND_IN_started = 1u;
1564:.\Generated_Source\PSoC5/ADC_SOUND_IN.c ****         }
1565:.\Generated_Source\PSoC5/ADC_SOUND_IN.c **** 
1566:.\Generated_Source\PSoC5/ADC_SOUND_IN.c ****         /* Update the config flag */
1567:.\Generated_Source\PSoC5/ADC_SOUND_IN.c ****         ADC_SOUND_IN_Config = config;
1568:.\Generated_Source\PSoC5/ADC_SOUND_IN.c **** 
1569:.\Generated_Source\PSoC5/ADC_SOUND_IN.c ****         /* Stop the ADC  */
1570:.\Generated_Source\PSoC5/ADC_SOUND_IN.c ****         ADC_SOUND_IN_Stop();
1571:.\Generated_Source\PSoC5/ADC_SOUND_IN.c **** 
ARM GAS  C:\Users\YongY\AppData\Local\Temp\ccMwH7lk.s 			page 29


1572:.\Generated_Source\PSoC5/ADC_SOUND_IN.c ****         /* Set the  ADC registers based on the configuration */
1573:.\Generated_Source\PSoC5/ADC_SOUND_IN.c ****         ADC_SOUND_IN_InitConfig(config);
1574:.\Generated_Source\PSoC5/ADC_SOUND_IN.c **** 
1575:.\Generated_Source\PSoC5/ADC_SOUND_IN.c ****         /* Compensate the gain */
1576:.\Generated_Source\PSoC5/ADC_SOUND_IN.c ****         ADC_SOUND_IN_DEC_GVAL_REG = ADC_SOUND_IN_gcor[config - 1u].gval;
1577:.\Generated_Source\PSoC5/ADC_SOUND_IN.c ****         CY_SET_REG16(ADC_SOUND_IN_DEC_GCOR_16B_PTR, ADC_SOUND_IN_gcor[config - 1u].gcor);
1578:.\Generated_Source\PSoC5/ADC_SOUND_IN.c **** 
1579:.\Generated_Source\PSoC5/ADC_SOUND_IN.c ****         if(restart == 1u)
1580:.\Generated_Source\PSoC5/ADC_SOUND_IN.c ****         {
1581:.\Generated_Source\PSoC5/ADC_SOUND_IN.c ****             /* Restart the ADC */
1582:.\Generated_Source\PSoC5/ADC_SOUND_IN.c ****             ADC_SOUND_IN_Start();
1583:.\Generated_Source\PSoC5/ADC_SOUND_IN.c **** 
1584:.\Generated_Source\PSoC5/ADC_SOUND_IN.c ****             /* Restart the ADC conversion */
1585:.\Generated_Source\PSoC5/ADC_SOUND_IN.c ****             ADC_SOUND_IN_StartConvert();
1586:.\Generated_Source\PSoC5/ADC_SOUND_IN.c ****         }
1587:.\Generated_Source\PSoC5/ADC_SOUND_IN.c ****     }
1588:.\Generated_Source\PSoC5/ADC_SOUND_IN.c ****     else
1589:.\Generated_Source\PSoC5/ADC_SOUND_IN.c ****     {
1590:.\Generated_Source\PSoC5/ADC_SOUND_IN.c ****         /* Halt CPU in debug mode if config is out of valid range */
1591:.\Generated_Source\PSoC5/ADC_SOUND_IN.c ****         CYASSERT(0u != 0u);
1592:.\Generated_Source\PSoC5/ADC_SOUND_IN.c ****     }
1593:.\Generated_Source\PSoC5/ADC_SOUND_IN.c **** }
1594:.\Generated_Source\PSoC5/ADC_SOUND_IN.c **** 
1595:.\Generated_Source\PSoC5/ADC_SOUND_IN.c **** 
1596:.\Generated_Source\PSoC5/ADC_SOUND_IN.c **** /*******************************************************************************
1597:.\Generated_Source\PSoC5/ADC_SOUND_IN.c **** * Function Name: ADC_SOUND_IN_GainCompensation
1598:.\Generated_Source\PSoC5/ADC_SOUND_IN.c **** ********************************************************************************
1599:.\Generated_Source\PSoC5/ADC_SOUND_IN.c **** *
1600:.\Generated_Source\PSoC5/ADC_SOUND_IN.c **** * Summary:
1601:.\Generated_Source\PSoC5/ADC_SOUND_IN.c **** *  This API calculates the trim value and then store this to gcor structure.
1602:.\Generated_Source\PSoC5/ADC_SOUND_IN.c **** *
1603:.\Generated_Source\PSoC5/ADC_SOUND_IN.c **** * Parameters:
1604:.\Generated_Source\PSoC5/ADC_SOUND_IN.c **** *  inputRange:  input range for which trim value is to be calculated.
1605:.\Generated_Source\PSoC5/ADC_SOUND_IN.c **** *  IdealDecGain:  Ideal Decimator gain for the selected resolution and
1606:.\Generated_Source\PSoC5/ADC_SOUND_IN.c **** *                 conversion  mode.
1607:.\Generated_Source\PSoC5/ADC_SOUND_IN.c **** *  IdealOddDecGain:  Ideal odd decimation gain for the selected resolution and
1608:.\Generated_Source\PSoC5/ADC_SOUND_IN.c ****                      conversion mode.
1609:.\Generated_Source\PSoC5/ADC_SOUND_IN.c **** *  resolution:  Resolution to select the proper flash location for trim value.
1610:.\Generated_Source\PSoC5/ADC_SOUND_IN.c **** *  config:      Specifies the configuration number
1611:.\Generated_Source\PSoC5/ADC_SOUND_IN.c **** *               Valid range: 1..4
1612:.\Generated_Source\PSoC5/ADC_SOUND_IN.c **** *
1613:.\Generated_Source\PSoC5/ADC_SOUND_IN.c **** * Return:
1614:.\Generated_Source\PSoC5/ADC_SOUND_IN.c **** *  None
1615:.\Generated_Source\PSoC5/ADC_SOUND_IN.c **** *
1616:.\Generated_Source\PSoC5/ADC_SOUND_IN.c **** *******************************************************************************/
1617:.\Generated_Source\PSoC5/ADC_SOUND_IN.c **** static void ADC_SOUND_IN_GainCompensation(uint8 inputRange, uint16 idealDecGain, uint16 idealOddDec
1618:.\Generated_Source\PSoC5/ADC_SOUND_IN.c ****                               uint8 resolution, uint8 config) 
1619:.\Generated_Source\PSoC5/ADC_SOUND_IN.c **** {
  26              		.loc 1 1619 0
  27              		.cfi_startproc
  28              		@ args = 4, pretend = 0, frame = 0
  29              		@ frame_needed = 0, uses_anonymous_args = 0
  30              	.LVL0:
  31 0000 10B5     		push	{r4, lr}
  32              		.cfi_def_cfa_offset 8
  33              		.cfi_offset 4, -8
  34              		.cfi_offset 14, -4
ARM GAS  C:\Users\YongY\AppData\Local\Temp\ccMwH7lk.s 			page 30


  35 0002 9DF80840 		ldrb	r4, [sp, #8]	@ zero_extendqisi2
1620:.\Generated_Source\PSoC5/ADC_SOUND_IN.c ****     int8 flash;
1621:.\Generated_Source\PSoC5/ADC_SOUND_IN.c **** 	int32 normalised;
1622:.\Generated_Source\PSoC5/ADC_SOUND_IN.c **** 	uint16 gcorValue;
1623:.\Generated_Source\PSoC5/ADC_SOUND_IN.c ****     uint32 gcorTmp;
1624:.\Generated_Source\PSoC5/ADC_SOUND_IN.c **** 
1625:.\Generated_Source\PSoC5/ADC_SOUND_IN.c ****     if((config > 0u) && (config <= ADC_SOUND_IN_DEFAULT_NUM_CONFIGS))
  36              		.loc 1 1625 0
  37 0006 012C     		cmp	r4, #1
  38 0008 4AD1     		bne	.L2
1626:.\Generated_Source\PSoC5/ADC_SOUND_IN.c ****     {
1627:.\Generated_Source\PSoC5/ADC_SOUND_IN.c ****         switch(inputRange)
  39              		.loc 1 1627 0
  40 000a 0138     		subs	r0, r0, #1
  41              	.LVL1:
  42 000c 0928     		cmp	r0, #9
  43 000e 26D8     		bhi	.L16
  44 0010 DFE800F0 		tbb	[pc, r0]
  45              	.L5:
  46 0014 05       		.byte	(.L4-.L5)/2
  47 0015 25       		.byte	(.L16-.L5)/2
  48 0016 25       		.byte	(.L16-.L5)/2
  49 0017 05       		.byte	(.L4-.L5)/2
  50 0018 25       		.byte	(.L16-.L5)/2
  51 0019 25       		.byte	(.L16-.L5)/2
  52 001a 0D       		.byte	(.L6-.L5)/2
  53 001b 15       		.byte	(.L7-.L5)/2
  54 001c 25       		.byte	(.L16-.L5)/2
  55 001d 1D       		.byte	(.L8-.L5)/2
  56              		.p2align 1
  57              	.L4:
1628:.\Generated_Source\PSoC5/ADC_SOUND_IN.c ****         {
1629:.\Generated_Source\PSoC5/ADC_SOUND_IN.c ****             case ADC_SOUND_IN_IR_VNEG_VREF_DIFF:
1630:.\Generated_Source\PSoC5/ADC_SOUND_IN.c ****             case ADC_SOUND_IN_IR_VSSA_TO_2VREF:
1631:.\Generated_Source\PSoC5/ADC_SOUND_IN.c ****                 /* Normalize the flash Value */
1632:.\Generated_Source\PSoC5/ADC_SOUND_IN.c ****                 if(resolution > 15u)
  58              		.loc 1 1632 0
  59 001e 0F2B     		cmp	r3, #15
  60 0020 02D9     		bls	.L9
1633:.\Generated_Source\PSoC5/ADC_SOUND_IN.c ****                 {
1634:.\Generated_Source\PSoC5/ADC_SOUND_IN.c ****                     flash = ADC_SOUND_IN_DEC_TRIM_VREF_DIFF_16_20;
  61              		.loc 1 1634 0
  62 0022 2148     		ldr	r0, .L18
  63 0024 0078     		ldrb	r0, [r0]	@ zero_extendqisi2
  64              	.LVL2:
  65 0026 1BE0     		b	.L3
  66              	.LVL3:
  67              	.L9:
1635:.\Generated_Source\PSoC5/ADC_SOUND_IN.c ****                 }
1636:.\Generated_Source\PSoC5/ADC_SOUND_IN.c ****                 else
1637:.\Generated_Source\PSoC5/ADC_SOUND_IN.c ****                 {
1638:.\Generated_Source\PSoC5/ADC_SOUND_IN.c ****                     flash = ADC_SOUND_IN_DEC_TRIM_VREF_DIFF_8_15;
  68              		.loc 1 1638 0
  69 0028 2048     		ldr	r0, .L18+4
  70 002a 0078     		ldrb	r0, [r0]	@ zero_extendqisi2
  71              	.LVL4:
  72 002c 18E0     		b	.L3
ARM GAS  C:\Users\YongY\AppData\Local\Temp\ccMwH7lk.s 			page 31


  73              	.LVL5:
  74              	.L6:
1639:.\Generated_Source\PSoC5/ADC_SOUND_IN.c ****                 }
1640:.\Generated_Source\PSoC5/ADC_SOUND_IN.c ****                 break;
1641:.\Generated_Source\PSoC5/ADC_SOUND_IN.c **** 
1642:.\Generated_Source\PSoC5/ADC_SOUND_IN.c ****             case ADC_SOUND_IN_IR_VNEG_VREF_2_DIFF:
1643:.\Generated_Source\PSoC5/ADC_SOUND_IN.c ****                 /* Normalize the flash Value */
1644:.\Generated_Source\PSoC5/ADC_SOUND_IN.c ****                 if(resolution > 15u)
  75              		.loc 1 1644 0
  76 002e 0F2B     		cmp	r3, #15
  77 0030 02D9     		bls	.L10
1645:.\Generated_Source\PSoC5/ADC_SOUND_IN.c ****                 {
1646:.\Generated_Source\PSoC5/ADC_SOUND_IN.c ****                     flash = ADC_SOUND_IN_DEC_TRIM_VREF_2_DIFF_16_20;
  78              		.loc 1 1646 0
  79 0032 1F48     		ldr	r0, .L18+8
  80 0034 0078     		ldrb	r0, [r0]	@ zero_extendqisi2
  81              	.LVL6:
  82 0036 13E0     		b	.L3
  83              	.LVL7:
  84              	.L10:
1647:.\Generated_Source\PSoC5/ADC_SOUND_IN.c ****                 }
1648:.\Generated_Source\PSoC5/ADC_SOUND_IN.c ****                 else
1649:.\Generated_Source\PSoC5/ADC_SOUND_IN.c ****                 {
1650:.\Generated_Source\PSoC5/ADC_SOUND_IN.c ****                     flash = ADC_SOUND_IN_DEC_TRIM_VREF_2_DIFF_8_15;
  85              		.loc 1 1650 0
  86 0038 1E48     		ldr	r0, .L18+12
  87 003a 0078     		ldrb	r0, [r0]	@ zero_extendqisi2
  88              	.LVL8:
  89 003c 10E0     		b	.L3
  90              	.LVL9:
  91              	.L7:
1651:.\Generated_Source\PSoC5/ADC_SOUND_IN.c ****                 }
1652:.\Generated_Source\PSoC5/ADC_SOUND_IN.c ****                 break;
1653:.\Generated_Source\PSoC5/ADC_SOUND_IN.c **** 
1654:.\Generated_Source\PSoC5/ADC_SOUND_IN.c ****             case ADC_SOUND_IN_IR_VNEG_VREF_4_DIFF:
1655:.\Generated_Source\PSoC5/ADC_SOUND_IN.c ****                 /* Normalize the flash Value */
1656:.\Generated_Source\PSoC5/ADC_SOUND_IN.c ****                 if(resolution > 15u)
  92              		.loc 1 1656 0
  93 003e 0F2B     		cmp	r3, #15
  94 0040 02D9     		bls	.L11
1657:.\Generated_Source\PSoC5/ADC_SOUND_IN.c ****                 {
1658:.\Generated_Source\PSoC5/ADC_SOUND_IN.c ****                     flash = ADC_SOUND_IN_DEC_TRIM_VREF_4_DIFF_16_20;
  95              		.loc 1 1658 0
  96 0042 1D48     		ldr	r0, .L18+16
  97 0044 0078     		ldrb	r0, [r0]	@ zero_extendqisi2
  98              	.LVL10:
  99 0046 0BE0     		b	.L3
 100              	.LVL11:
 101              	.L11:
1659:.\Generated_Source\PSoC5/ADC_SOUND_IN.c ****                 }
1660:.\Generated_Source\PSoC5/ADC_SOUND_IN.c ****                 else
1661:.\Generated_Source\PSoC5/ADC_SOUND_IN.c ****                 {
1662:.\Generated_Source\PSoC5/ADC_SOUND_IN.c ****                     flash = ADC_SOUND_IN_DEC_TRIM_VREF_4_DIFF_8_15;
 102              		.loc 1 1662 0
 103 0048 1C48     		ldr	r0, .L18+20
 104 004a 0078     		ldrb	r0, [r0]	@ zero_extendqisi2
 105              	.LVL12:
ARM GAS  C:\Users\YongY\AppData\Local\Temp\ccMwH7lk.s 			page 32


 106 004c 08E0     		b	.L3
 107              	.LVL13:
 108              	.L8:
1663:.\Generated_Source\PSoC5/ADC_SOUND_IN.c ****                 }
1664:.\Generated_Source\PSoC5/ADC_SOUND_IN.c ****                 break;
1665:.\Generated_Source\PSoC5/ADC_SOUND_IN.c **** 
1666:.\Generated_Source\PSoC5/ADC_SOUND_IN.c ****             case ADC_SOUND_IN_IR_VNEG_VREF_16_DIFF:
1667:.\Generated_Source\PSoC5/ADC_SOUND_IN.c ****                 /* Normalize the flash Value */
1668:.\Generated_Source\PSoC5/ADC_SOUND_IN.c ****                 if(resolution > 15u)
 109              		.loc 1 1668 0
 110 004e 0F2B     		cmp	r3, #15
 111 0050 02D9     		bls	.L12
1669:.\Generated_Source\PSoC5/ADC_SOUND_IN.c ****                 {
1670:.\Generated_Source\PSoC5/ADC_SOUND_IN.c ****                     flash = ADC_SOUND_IN_DEC_TRIM_VREF_16_DIFF_16_20;
 112              		.loc 1 1670 0
 113 0052 1B48     		ldr	r0, .L18+24
 114 0054 0078     		ldrb	r0, [r0]	@ zero_extendqisi2
 115              	.LVL14:
 116 0056 03E0     		b	.L3
 117              	.LVL15:
 118              	.L12:
1671:.\Generated_Source\PSoC5/ADC_SOUND_IN.c ****                 }
1672:.\Generated_Source\PSoC5/ADC_SOUND_IN.c ****                 else
1673:.\Generated_Source\PSoC5/ADC_SOUND_IN.c ****                 {
1674:.\Generated_Source\PSoC5/ADC_SOUND_IN.c ****                     flash = ADC_SOUND_IN_DEC_TRIM_VREF_16_DIFF_8_15;
 119              		.loc 1 1674 0
 120 0058 1A48     		ldr	r0, .L18+28
 121 005a 0078     		ldrb	r0, [r0]	@ zero_extendqisi2
 122              	.LVL16:
 123 005c 00E0     		b	.L3
 124              	.LVL17:
 125              	.L16:
1675:.\Generated_Source\PSoC5/ADC_SOUND_IN.c ****                 }
1676:.\Generated_Source\PSoC5/ADC_SOUND_IN.c ****                 break;
1677:.\Generated_Source\PSoC5/ADC_SOUND_IN.c **** 
1678:.\Generated_Source\PSoC5/ADC_SOUND_IN.c ****             default:
1679:.\Generated_Source\PSoC5/ADC_SOUND_IN.c ****                 flash = 0;
 126              		.loc 1 1679 0
 127 005e 0020     		movs	r0, #0
 128              	.L3:
 129              	.LVL18:
1680:.\Generated_Source\PSoC5/ADC_SOUND_IN.c ****                 break;
1681:.\Generated_Source\PSoC5/ADC_SOUND_IN.c ****         }
1682:.\Generated_Source\PSoC5/ADC_SOUND_IN.c **** 
1683:.\Generated_Source\PSoC5/ADC_SOUND_IN.c ****         /* Add two values */
1684:.\Generated_Source\PSoC5/ADC_SOUND_IN.c **** 		normalised = (int32)idealDecGain + ((int32)flash * 32);
 130              		.loc 1 1684 0
 131 0060 40B2     		sxtb	r0, r0
 132 0062 01EB4011 		add	r1, r1, r0, lsl #5
 133              	.LVL19:
1685:.\Generated_Source\PSoC5/ADC_SOUND_IN.c ****         gcorTmp = (uint32)normalised * (uint32)idealOddDecGain;
 134              		.loc 1 1685 0
 135 0066 01FB02F1 		mul	r1, r1, r2
 136              	.LVL20:
1686:.\Generated_Source\PSoC5/ADC_SOUND_IN.c ****         gcorValue = (uint16)(gcorTmp / ADC_SOUND_IN_IDEAL_GAIN_CONST);
 137              		.loc 1 1686 0
 138 006a C90B     		lsrs	r1, r1, #15
ARM GAS  C:\Users\YongY\AppData\Local\Temp\ccMwH7lk.s 			page 33


 139              	.LVL21:
 140 006c 8AB2     		uxth	r2, r1
 141              	.LVL22:
1687:.\Generated_Source\PSoC5/ADC_SOUND_IN.c **** 
1688:.\Generated_Source\PSoC5/ADC_SOUND_IN.c ****         if (resolution < (ADC_SOUND_IN_MAX_GVAL - 1u))
 142              		.loc 1 1688 0
 143 006e 0D2B     		cmp	r3, #13
 144 0070 0BD8     		bhi	.L13
1689:.\Generated_Source\PSoC5/ADC_SOUND_IN.c ****         {
1690:.\Generated_Source\PSoC5/ADC_SOUND_IN.c ****             gcorValue = (gcorValue >> (ADC_SOUND_IN_MAX_GVAL - (resolution + 1u)));
 145              		.loc 1 1690 0
 146 0072 C3F10E02 		rsb	r2, r3, #14
 147              	.LVL23:
 148 0076 89B2     		uxth	r1, r1
 149 0078 1141     		asrs	r1, r1, r2
 150              	.LVL24:
 151 007a 8AB2     		uxth	r2, r1
 152              	.LVL25:
1691:.\Generated_Source\PSoC5/ADC_SOUND_IN.c ****             ADC_SOUND_IN_gcor[config - 1u].gval = (resolution + 1u);
 153              		.loc 1 1691 0
 154 007c 1249     		ldr	r1, .L18+32
 155 007e 01EB8401 		add	r1, r1, r4, lsl #2
 156 0082 0133     		adds	r3, r3, #1
 157              	.LVL26:
 158 0084 01F8023C 		strb	r3, [r1, #-2]
 159 0088 05E0     		b	.L14
 160              	.LVL27:
 161              	.L13:
1692:.\Generated_Source\PSoC5/ADC_SOUND_IN.c ****         }
1693:.\Generated_Source\PSoC5/ADC_SOUND_IN.c ****         else
1694:.\Generated_Source\PSoC5/ADC_SOUND_IN.c ****         {
1695:.\Generated_Source\PSoC5/ADC_SOUND_IN.c ****             /* Use all 16 bits */
1696:.\Generated_Source\PSoC5/ADC_SOUND_IN.c ****             ADC_SOUND_IN_gcor[config - 1u].gval = ADC_SOUND_IN_MAX_GVAL;
 162              		.loc 1 1696 0
 163 008a 0F4B     		ldr	r3, .L18+32
 164              	.LVL28:
 165 008c 03EB8403 		add	r3, r3, r4, lsl #2
 166 0090 0F21     		movs	r1, #15
 167 0092 03F8021C 		strb	r1, [r3, #-2]
 168              	.L14:
1697:.\Generated_Source\PSoC5/ADC_SOUND_IN.c ****         }
1698:.\Generated_Source\PSoC5/ADC_SOUND_IN.c **** 
1699:.\Generated_Source\PSoC5/ADC_SOUND_IN.c ****         /* Save the gain correction register value */
1700:.\Generated_Source\PSoC5/ADC_SOUND_IN.c ****         ADC_SOUND_IN_gcor[config - 1u].gcor = gcorValue;
 169              		.loc 1 1700 0
 170 0096 013C     		subs	r4, r4, #1
 171 0098 0B4B     		ldr	r3, .L18+32
 172 009a 23F82420 		strh	r2, [r3, r4, lsl #2]	@ movhi
 173 009e 10BD     		pop	{r4, pc}
 174              	.LVL29:
 175              	.L2:
1701:.\Generated_Source\PSoC5/ADC_SOUND_IN.c ****     }
1702:.\Generated_Source\PSoC5/ADC_SOUND_IN.c ****     else
1703:.\Generated_Source\PSoC5/ADC_SOUND_IN.c ****     {
1704:.\Generated_Source\PSoC5/ADC_SOUND_IN.c ****         /* Halt CPU in debug mode if config is out of valid range */
1705:.\Generated_Source\PSoC5/ADC_SOUND_IN.c ****         CYASSERT(0u != 0u);
 176              		.loc 1 1705 0 discriminator 1
ARM GAS  C:\Users\YongY\AppData\Local\Temp\ccMwH7lk.s 			page 34


 177 00a0 0020     		movs	r0, #0
 178              	.LVL30:
 179 00a2 FFF7FEFF 		bl	CyHalt
 180              	.LVL31:
 181 00a6 10BD     		pop	{r4, pc}
 182              	.LVL32:
 183              	.L19:
 184              		.align	2
 185              	.L18:
 186 00a8 18010049 		.word	1224737048
 187 00ac 1C010049 		.word	1224737052
 188 00b0 19010049 		.word	1224737049
 189 00b4 1D010049 		.word	1224737053
 190 00b8 1A010049 		.word	1224737050
 191 00bc 1E010049 		.word	1224737054
 192 00c0 1B010049 		.word	1224737051
 193 00c4 1F010049 		.word	1224737055
 194 00c8 00000000 		.word	.LANCHOR0
 195              		.cfi_endproc
 196              	.LFE21:
 197              		.size	ADC_SOUND_IN_GainCompensation, .-ADC_SOUND_IN_GainCompensation
 198              		.section	.text.ADC_SOUND_IN_SetDSMRef0Reg,"ax",%progbits
 199              		.align	2
 200              		.thumb
 201              		.thumb_func
 202              		.type	ADC_SOUND_IN_SetDSMRef0Reg, %function
 203              	ADC_SOUND_IN_SetDSMRef0Reg:
 204              	.LFB22:
1706:.\Generated_Source\PSoC5/ADC_SOUND_IN.c ****     }
1707:.\Generated_Source\PSoC5/ADC_SOUND_IN.c **** }
1708:.\Generated_Source\PSoC5/ADC_SOUND_IN.c **** 
1709:.\Generated_Source\PSoC5/ADC_SOUND_IN.c **** 
1710:.\Generated_Source\PSoC5/ADC_SOUND_IN.c **** /******************************************************************************
1711:.\Generated_Source\PSoC5/ADC_SOUND_IN.c **** * Function Name: ADC_SOUND_IN_SetDSMRef0Reg(uint8)
1712:.\Generated_Source\PSoC5/ADC_SOUND_IN.c **** ******************************************************************************
1713:.\Generated_Source\PSoC5/ADC_SOUND_IN.c **** *
1714:.\Generated_Source\PSoC5/ADC_SOUND_IN.c **** * Summary:
1715:.\Generated_Source\PSoC5/ADC_SOUND_IN.c **** *  This API sets the DSM_REF0 register. This is written for internal use.
1716:.\Generated_Source\PSoC5/ADC_SOUND_IN.c **** *
1717:.\Generated_Source\PSoC5/ADC_SOUND_IN.c **** * Parameters:
1718:.\Generated_Source\PSoC5/ADC_SOUND_IN.c **** *  value:  Value to be written to DSM_REF0 register.
1719:.\Generated_Source\PSoC5/ADC_SOUND_IN.c **** *
1720:.\Generated_Source\PSoC5/ADC_SOUND_IN.c **** * Return:
1721:.\Generated_Source\PSoC5/ADC_SOUND_IN.c **** *  None
1722:.\Generated_Source\PSoC5/ADC_SOUND_IN.c **** *
1723:.\Generated_Source\PSoC5/ADC_SOUND_IN.c **** ******************************************************************************/
1724:.\Generated_Source\PSoC5/ADC_SOUND_IN.c **** static void ADC_SOUND_IN_SetDSMRef0Reg(uint8 value) 
1725:.\Generated_Source\PSoC5/ADC_SOUND_IN.c **** {
 205              		.loc 1 1725 0
 206              		.cfi_startproc
 207              		@ args = 0, pretend = 0, frame = 0
 208              		@ frame_needed = 0, uses_anonymous_args = 0
 209              	.LVL33:
 210 0000 F8B5     		push	{r3, r4, r5, r6, r7, lr}
 211              		.cfi_def_cfa_offset 24
 212              		.cfi_offset 3, -24
 213              		.cfi_offset 4, -20
ARM GAS  C:\Users\YongY\AppData\Local\Temp\ccMwH7lk.s 			page 35


 214              		.cfi_offset 5, -16
 215              		.cfi_offset 6, -12
 216              		.cfi_offset 7, -8
 217              		.cfi_offset 14, -4
 218 0002 0746     		mov	r7, r0
1726:.\Generated_Source\PSoC5/ADC_SOUND_IN.c ****     uint8 enableInterrupts;
1727:.\Generated_Source\PSoC5/ADC_SOUND_IN.c ****     enableInterrupts = CyEnterCriticalSection();
 219              		.loc 1 1727 0
 220 0004 FFF7FEFF 		bl	CyEnterCriticalSection
 221              	.LVL34:
 222 0008 0646     		mov	r6, r0
 223              	.LVL35:
1728:.\Generated_Source\PSoC5/ADC_SOUND_IN.c **** 
1729:.\Generated_Source\PSoC5/ADC_SOUND_IN.c ****     /* Disable PRES, Enable power to VCMBUF0, REFBUF0 and REFBUF1, enable PRES */
1730:.\Generated_Source\PSoC5/ADC_SOUND_IN.c ****     ADC_SOUND_IN_RESET_CR4_REG |= (ADC_SOUND_IN_IGNORE_PRESA1 | ADC_SOUND_IN_IGNORE_PRESD1);
 224              		.loc 1 1730 0
 225 000a 0D4D     		ldr	r5, .L22
 226 000c 2B78     		ldrb	r3, [r5]	@ zero_extendqisi2
 227 000e 43F00303 		orr	r3, r3, #3
 228 0012 2B70     		strb	r3, [r5]
1731:.\Generated_Source\PSoC5/ADC_SOUND_IN.c ****     ADC_SOUND_IN_RESET_CR5_REG |= (ADC_SOUND_IN_IGNORE_PRESA2 | ADC_SOUND_IN_IGNORE_PRESD2);
 229              		.loc 1 1731 0
 230 0014 0B4C     		ldr	r4, .L22+4
 231 0016 2378     		ldrb	r3, [r4]	@ zero_extendqisi2
 232 0018 43F00303 		orr	r3, r3, #3
 233 001c 2370     		strb	r3, [r4]
1732:.\Generated_Source\PSoC5/ADC_SOUND_IN.c ****     ADC_SOUND_IN_DSM_REF0_REG = value;
 234              		.loc 1 1732 0
 235 001e 0A4B     		ldr	r3, .L22+8
 236 0020 1F70     		strb	r7, [r3]
1733:.\Generated_Source\PSoC5/ADC_SOUND_IN.c **** 
1734:.\Generated_Source\PSoC5/ADC_SOUND_IN.c ****     /* Wait for 3 microseconds */
1735:.\Generated_Source\PSoC5/ADC_SOUND_IN.c ****     CyDelayUs(ADC_SOUND_IN_PRES_DELAY_TIME);
 237              		.loc 1 1735 0
 238 0022 0320     		movs	r0, #3
 239 0024 FFF7FEFF 		bl	CyDelayUs
 240              	.LVL36:
1736:.\Generated_Source\PSoC5/ADC_SOUND_IN.c ****     /* Enable the press circuit */
1737:.\Generated_Source\PSoC5/ADC_SOUND_IN.c ****     ADC_SOUND_IN_RESET_CR4_REG &= (uint8)~(ADC_SOUND_IN_IGNORE_PRESA1 | ADC_SOUND_IN_IGNORE_PRESD1)
 241              		.loc 1 1737 0
 242 0028 2B78     		ldrb	r3, [r5]	@ zero_extendqisi2
 243 002a 03F0FC03 		and	r3, r3, #252
 244 002e 2B70     		strb	r3, [r5]
1738:.\Generated_Source\PSoC5/ADC_SOUND_IN.c ****     ADC_SOUND_IN_RESET_CR5_REG &= (uint8)~(ADC_SOUND_IN_IGNORE_PRESA2 | ADC_SOUND_IN_IGNORE_PRESD2)
 245              		.loc 1 1738 0
 246 0030 2378     		ldrb	r3, [r4]	@ zero_extendqisi2
 247 0032 03F0FC03 		and	r3, r3, #252
 248 0036 2370     		strb	r3, [r4]
1739:.\Generated_Source\PSoC5/ADC_SOUND_IN.c **** 
1740:.\Generated_Source\PSoC5/ADC_SOUND_IN.c ****     CyExitCriticalSection(enableInterrupts);
 249              		.loc 1 1740 0
 250 0038 3046     		mov	r0, r6
 251 003a FFF7FEFF 		bl	CyExitCriticalSection
 252              	.LVL37:
 253 003e F8BD     		pop	{r3, r4, r5, r6, r7, pc}
 254              	.LVL38:
 255              	.L23:
ARM GAS  C:\Users\YongY\AppData\Local\Temp\ccMwH7lk.s 			page 36


 256              		.align	2
 257              	.L22:
 258 0040 F8460040 		.word	1073759992
 259 0044 F9460040 		.word	1073759993
 260 0048 92580040 		.word	1073764498
 261              		.cfi_endproc
 262              	.LFE22:
 263              		.size	ADC_SOUND_IN_SetDSMRef0Reg, .-ADC_SOUND_IN_SetDSMRef0Reg
 264              		.section	.text.ADC_SOUND_IN_InitConfig,"ax",%progbits
 265              		.align	2
 266              		.thumb
 267              		.thumb_func
 268              		.type	ADC_SOUND_IN_InitConfig, %function
 269              	ADC_SOUND_IN_InitConfig:
 270              	.LFB19:
1243:.\Generated_Source\PSoC5/ADC_SOUND_IN.c ****     ADC_SOUND_IN_stopConversion = 0u;
 271              		.loc 1 1243 0
 272              		.cfi_startproc
 273              		@ args = 0, pretend = 0, frame = 0
 274              		@ frame_needed = 0, uses_anonymous_args = 0
 275              	.LVL39:
 276 0000 38B5     		push	{r3, r4, r5, lr}
 277              		.cfi_def_cfa_offset 16
 278              		.cfi_offset 3, -16
 279              		.cfi_offset 4, -12
 280              		.cfi_offset 5, -8
 281              		.cfi_offset 14, -4
1244:.\Generated_Source\PSoC5/ADC_SOUND_IN.c **** 
 282              		.loc 1 1244 0
 283 0002 0022     		movs	r2, #0
 284 0004 304B     		ldr	r3, .L27
 285 0006 1A71     		strb	r2, [r3, #4]
1246:.\Generated_Source\PSoC5/ADC_SOUND_IN.c ****     {
 286              		.loc 1 1246 0
 287 0008 0128     		cmp	r0, #1
 288 000a 5BD1     		bne	.L24
1249:.\Generated_Source\PSoC5/ADC_SOUND_IN.c ****         ADC_SOUND_IN_DEC_SHIFT1_REG  = ADC_SOUND_IN_CFG1_DEC_SHIFT1;
 289              		.loc 1 1249 0
 290 000c 3422     		movs	r2, #52
 291 000e 2F4B     		ldr	r3, .L27+4
 292 0010 1A70     		strb	r2, [r3]
1250:.\Generated_Source\PSoC5/ADC_SOUND_IN.c ****         ADC_SOUND_IN_DEC_SHIFT2_REG  = ADC_SOUND_IN_CFG1_DEC_SHIFT2;
 293              		.loc 1 1250 0
 294 0012 0622     		movs	r2, #6
 295 0014 0233     		adds	r3, r3, #2
 296 0016 1A70     		strb	r2, [r3]
1251:.\Generated_Source\PSoC5/ADC_SOUND_IN.c ****         ADC_SOUND_IN_DEC_DR2_REG     = ADC_SOUND_IN_CFG1_DEC_DR2;
 297              		.loc 1 1251 0
 298 0018 0822     		movs	r2, #8
 299 001a 0133     		adds	r3, r3, #1
 300 001c 1A70     		strb	r2, [r3]
1252:.\Generated_Source\PSoC5/ADC_SOUND_IN.c ****         ADC_SOUND_IN_DEC_DR2H_REG    = ADC_SOUND_IN_CFG1_DEC_DR2H;
 301              		.loc 1 1252 0
 302 001e 0024     		movs	r4, #0
 303 0020 0133     		adds	r3, r3, #1
 304 0022 1C70     		strb	r4, [r3]
1253:.\Generated_Source\PSoC5/ADC_SOUND_IN.c ****         ADC_SOUND_IN_DEC_DR1_REG     = ADC_SOUND_IN_CFG1_DEC_DR1;
ARM GAS  C:\Users\YongY\AppData\Local\Temp\ccMwH7lk.s 			page 37


 305              		.loc 1 1253 0
 306 0024 0133     		adds	r3, r3, #1
 307 0026 1C70     		strb	r4, [r3]
1254:.\Generated_Source\PSoC5/ADC_SOUND_IN.c ****         ADC_SOUND_IN_DEC_OCOR_REG    = ADC_SOUND_IN_CFG1_DEC_OCOR;
 308              		.loc 1 1254 0
 309 0028 1F22     		movs	r2, #31
 310 002a 0133     		adds	r3, r3, #1
 311 002c 1A70     		strb	r2, [r3]
1255:.\Generated_Source\PSoC5/ADC_SOUND_IN.c ****         ADC_SOUND_IN_DEC_OCORM_REG   = ADC_SOUND_IN_CFG1_DEC_OCORM;
 312              		.loc 1 1255 0
 313 002e 0233     		adds	r3, r3, #2
 314 0030 1C70     		strb	r4, [r3]
1256:.\Generated_Source\PSoC5/ADC_SOUND_IN.c ****         ADC_SOUND_IN_DEC_OCORH_REG   = ADC_SOUND_IN_CFG1_DEC_OCORH;
 315              		.loc 1 1256 0
 316 0032 0133     		adds	r3, r3, #1
 317 0034 1C70     		strb	r4, [r3]
1257:.\Generated_Source\PSoC5/ADC_SOUND_IN.c ****         ADC_SOUND_IN_DEC_COHER_REG   = ADC_SOUND_IN_CFG1_DEC_COHER;
 318              		.loc 1 1257 0
 319 0036 0133     		adds	r3, r3, #1
 320 0038 1C70     		strb	r4, [r3]
1258:.\Generated_Source\PSoC5/ADC_SOUND_IN.c **** 
 321              		.loc 1 1258 0
 322 003a 0125     		movs	r5, #1
 323 003c 0A33     		adds	r3, r3, #10
 324 003e 1D70     		strb	r5, [r3]
1260:.\Generated_Source\PSoC5/ADC_SOUND_IN.c ****         ADC_SOUND_IN_DSM_CR5_REG     = ADC_SOUND_IN_CFG1_DSM_CR5;
 325              		.loc 1 1260 0
 326 0040 1422     		movs	r2, #20
 327 0042 03F52763 		add	r3, r3, #2672
 328 0046 1A70     		strb	r2, [r3]
1261:.\Generated_Source\PSoC5/ADC_SOUND_IN.c ****         ADC_SOUND_IN_DSM_CR6_REG     = ADC_SOUND_IN_CFG1_DSM_CR6;
 329              		.loc 1 1261 0
 330 0048 0922     		movs	r2, #9
 331 004a 0133     		adds	r3, r3, #1
 332 004c 1A70     		strb	r2, [r3]
1262:.\Generated_Source\PSoC5/ADC_SOUND_IN.c ****         ADC_SOUND_IN_DSM_CR7_REG     = ADC_SOUND_IN_CFG1_DSM_CR7;
 333              		.loc 1 1262 0
 334 004e 0A23     		movs	r3, #10
 335 0050 1F4A     		ldr	r2, .L27+8
 336 0052 1370     		strb	r3, [r2]
1263:.\Generated_Source\PSoC5/ADC_SOUND_IN.c ****         ADC_SOUND_IN_DSM_CR10_REG    = ADC_SOUND_IN_CFG1_DSM_CR10;
 337              		.loc 1 1263 0
 338 0054 0132     		adds	r2, r2, #1
 339 0056 1470     		strb	r4, [r2]
1264:.\Generated_Source\PSoC5/ADC_SOUND_IN.c ****         ADC_SOUND_IN_DSM_CR11_REG    = ADC_SOUND_IN_CFG1_DSM_CR11;
 340              		.loc 1 1264 0
 341 0058 1121     		movs	r1, #17
 342 005a 0332     		adds	r2, r2, #3
 343 005c 1170     		strb	r1, [r2]
1265:.\Generated_Source\PSoC5/ADC_SOUND_IN.c ****         ADC_SOUND_IN_DSM_CR12_REG    = ADC_SOUND_IN_CFG1_DSM_CR12;
 344              		.loc 1 1265 0
 345 005e 1221     		movs	r1, #18
 346 0060 0132     		adds	r2, r2, #1
 347 0062 1170     		strb	r1, [r2]
1266:.\Generated_Source\PSoC5/ADC_SOUND_IN.c ****         ADC_SOUND_IN_DSM_CR14_REG    = ADC_SOUND_IN_CFG1_DSM_CR14;
 348              		.loc 1 1266 0
 349 0064 0132     		adds	r2, r2, #1
ARM GAS  C:\Users\YongY\AppData\Local\Temp\ccMwH7lk.s 			page 38


 350 0066 1570     		strb	r5, [r2]
1267:.\Generated_Source\PSoC5/ADC_SOUND_IN.c ****         ADC_SOUND_IN_DSM_CR15_REG    = ADC_SOUND_IN_CFG1_DSM_CR15;
 351              		.loc 1 1267 0
 352 0068 0232     		adds	r2, r2, #2
 353 006a 1470     		strb	r4, [r2]
1268:.\Generated_Source\PSoC5/ADC_SOUND_IN.c ****         ADC_SOUND_IN_DSM_CR16_REG    = ADC_SOUND_IN_CFG1_DSM_CR16;
 354              		.loc 1 1268 0
 355 006c 0132     		adds	r2, r2, #1
 356 006e 1470     		strb	r4, [r2]
1269:.\Generated_Source\PSoC5/ADC_SOUND_IN.c ****         ADC_SOUND_IN_DSM_CR17_REG    = ADC_SOUND_IN_CFG1_DSM_CR17;
 357              		.loc 1 1269 0
 358 0070 0132     		adds	r2, r2, #1
 359 0072 1370     		strb	r3, [r2]
1270:.\Generated_Source\PSoC5/ADC_SOUND_IN.c ****         /* Set DSM_REF0_REG by disabling and enabling the PRESS circuit */
 360              		.loc 1 1270 0
 361 0074 4322     		movs	r2, #67
 362 0076 174B     		ldr	r3, .L27+12
 363 0078 1A70     		strb	r2, [r3]
1272:.\Generated_Source\PSoC5/ADC_SOUND_IN.c ****         ADC_SOUND_IN_DSM_REF2_REG    = ADC_SOUND_IN_CFG1_DSM_REF2;
 364              		.loc 1 1272 0
 365 007a 4420     		movs	r0, #68
 366              	.LVL40:
 367 007c FFF7FEFF 		bl	ADC_SOUND_IN_SetDSMRef0Reg
 368              	.LVL41:
1273:.\Generated_Source\PSoC5/ADC_SOUND_IN.c ****         ADC_SOUND_IN_DSM_REF3_REG    = ADC_SOUND_IN_CFG1_DSM_REF3;
 369              		.loc 1 1273 0
 370 0080 5822     		movs	r2, #88
 371 0082 154B     		ldr	r3, .L27+16
 372 0084 1A70     		strb	r2, [r3]
1274:.\Generated_Source\PSoC5/ADC_SOUND_IN.c **** 
 373              		.loc 1 1274 0
 374 0086 0133     		adds	r3, r3, #1
 375 0088 1C70     		strb	r4, [r3]
1276:.\Generated_Source\PSoC5/ADC_SOUND_IN.c ****         ADC_SOUND_IN_DSM_BUF1_REG    = ADC_SOUND_IN_CFG1_DSM_BUF1;
 376              		.loc 1 1276 0
 377 008a 0522     		movs	r2, #5
 378 008c 0533     		adds	r3, r3, #5
 379 008e 1A70     		strb	r2, [r3]
1277:.\Generated_Source\PSoC5/ADC_SOUND_IN.c ****         ADC_SOUND_IN_DSM_BUF2_REG    = ADC_SOUND_IN_CFG1_DSM_BUF2;
 380              		.loc 1 1277 0
 381 0090 0222     		movs	r2, #2
 382 0092 0133     		adds	r3, r3, #1
 383 0094 1A70     		strb	r2, [r3]
1278:.\Generated_Source\PSoC5/ADC_SOUND_IN.c ****         ADC_SOUND_IN_DSM_BUF3_REG    = ADC_SOUND_IN_CFG1_DSM_BUF3;
 384              		.loc 1 1278 0
 385 0096 0133     		adds	r3, r3, #1
 386 0098 1C70     		strb	r4, [r3]
1279:.\Generated_Source\PSoC5/ADC_SOUND_IN.c **** 
 387              		.loc 1 1279 0
 388 009a 0133     		adds	r3, r3, #1
 389 009c 1C70     		strb	r4, [r3]
1288:.\Generated_Source\PSoC5/ADC_SOUND_IN.c ****             #endif /* ADC_SOUND_IN_IR_VSSA_TO_2VREF) */
 390              		.loc 1 1288 0
 391 009e 2046     		mov	r0, r4
 392 00a0 FFF7FEFF 		bl	ADC_SOUND_IN_AMux_Select
 393              	.LVL42:
1300:.\Generated_Source\PSoC5/ADC_SOUND_IN.c **** 
ARM GAS  C:\Users\YongY\AppData\Local\Temp\ccMwH7lk.s 			page 39


 394              		.loc 1 1300 0
 395 00a4 4FF47A62 		mov	r2, #4000
 396 00a8 0C4B     		ldr	r3, .L27+20
 397 00aa 1A60     		str	r2, [r3]
1302:.\Generated_Source\PSoC5/ADC_SOUND_IN.c **** 
 398              		.loc 1 1302 0
 399 00ac 2C20     		movs	r0, #44
 400 00ae 2946     		mov	r1, r5
 401 00b0 FFF7FEFF 		bl	ADC_SOUND_IN_Ext_CP_Clk_SetDividerRegister
 402              	.LVL43:
1306:.\Generated_Source\PSoC5/ADC_SOUND_IN.c ****         #endif /* ADC_SOUND_IN_DEFAULT_INTERNAL_CLK */
 403              		.loc 1 1306 0
 404 00b4 B620     		movs	r0, #182
 405 00b6 2946     		mov	r1, r5
 406 00b8 FFF7FEFF 		bl	ADC_SOUND_IN_theACLK_SetDividerRegister
 407              	.LVL44:
1311:.\Generated_Source\PSoC5/ADC_SOUND_IN.c ****         #endif   /* End ADC_SOUND_IN_IRQ_REMOVE */
 408              		.loc 1 1311 0
 409 00bc 1D20     		movs	r0, #29
 410 00be 0849     		ldr	r1, .L27+24
 411 00c0 FFF7FEFF 		bl	CyIntSetVector
 412              	.LVL45:
 413              	.L24:
 414 00c4 38BD     		pop	{r3, r4, r5, pc}
 415              	.L28:
 416 00c6 00BF     		.align	2
 417              	.L27:
 418 00c8 00000000 		.word	.LANCHOR0
 419 00cc 004E0040 		.word	1073761792
 420 00d0 86580040 		.word	1073764486
 421 00d4 91580040 		.word	1073764497
 422 00d8 94580040 		.word	1073764500
 423 00dc 00000000 		.word	ADC_SOUND_IN_CountsPerVolt
 424 00e0 00000000 		.word	ADC_SOUND_IN_ISR1
 425              		.cfi_endproc
 426              	.LFE19:
 427              		.size	ADC_SOUND_IN_InitConfig, .-ADC_SOUND_IN_InitConfig
 428              		.section	.text.ADC_SOUND_IN_Init,"ax",%progbits
 429              		.align	2
 430              		.global	ADC_SOUND_IN_Init
 431              		.thumb
 432              		.thumb_func
 433              		.type	ADC_SOUND_IN_Init, %function
 434              	ADC_SOUND_IN_Init:
 435              	.LFB0:
  92:.\Generated_Source\PSoC5/ADC_SOUND_IN.c **** 
 436              		.loc 1 92 0
 437              		.cfi_startproc
 438              		@ args = 0, pretend = 0, frame = 0
 439              		@ frame_needed = 0, uses_anonymous_args = 0
 440 0000 F0B5     		push	{r4, r5, r6, r7, lr}
 441              		.cfi_def_cfa_offset 20
 442              		.cfi_offset 4, -20
 443              		.cfi_offset 5, -16
 444              		.cfi_offset 6, -12
 445              		.cfi_offset 7, -8
 446              		.cfi_offset 14, -4
ARM GAS  C:\Users\YongY\AppData\Local\Temp\ccMwH7lk.s 			page 40


 447 0002 83B0     		sub	sp, sp, #12
 448              		.cfi_def_cfa_offset 32
  94:.\Generated_Source\PSoC5/ADC_SOUND_IN.c ****     ADC_SOUND_IN_convDone = 0u;
 449              		.loc 1 94 0
 450 0004 284D     		ldr	r5, .L31
 451 0006 0127     		movs	r7, #1
 452 0008 2F70     		strb	r7, [r5]
  95:.\Generated_Source\PSoC5/ADC_SOUND_IN.c **** 
 453              		.loc 1 95 0
 454 000a 284E     		ldr	r6, .L31+4
 455 000c 0024     		movs	r4, #0
 456 000e 7471     		strb	r4, [r6, #5]
  97:.\Generated_Source\PSoC5/ADC_SOUND_IN.c **** 
 457              		.loc 1 97 0
 458 0010 1020     		movs	r0, #16
 459 0012 FFF7FEFF 		bl	ADC_SOUND_IN_Ext_CP_Clk_SetModeRegister
 460              	.LVL46:
 101:.\Generated_Source\PSoC5/ADC_SOUND_IN.c ****     #endif /* ADC_SOUND_IN_DEFAULT_INTERNAL_CLK */
 461              		.loc 1 101 0
 462 0016 1020     		movs	r0, #16
 463 0018 FFF7FEFF 		bl	ADC_SOUND_IN_theACLK_SetModeRegister
 464              	.LVL47:
 106:.\Generated_Source\PSoC5/ADC_SOUND_IN.c ****     #endif   /* End ADC_SOUND_IN_IRQ_REMOVE */
 465              		.loc 1 106 0
 466 001c 1D20     		movs	r0, #29
 467 001e 0721     		movs	r1, #7
 468 0020 FFF7FEFF 		bl	CyIntSetPriority
 469              	.LVL48:
 110:.\Generated_Source\PSoC5/ADC_SOUND_IN.c ****     ADC_SOUND_IN_DSM_DEM1_REG    = ADC_SOUND_IN_CFG1_DSM_DEM1;
 470              		.loc 1 110 0
 471 0024 0422     		movs	r2, #4
 472 0026 224B     		ldr	r3, .L31+8
 473 0028 1A70     		strb	r2, [r3]
 111:.\Generated_Source\PSoC5/ADC_SOUND_IN.c ****     ADC_SOUND_IN_DSM_MISC_REG    = ADC_SOUND_IN_CFG1_DSM_MISC;
 474              		.loc 1 111 0
 475 002a 0133     		adds	r3, r3, #1
 476 002c 1C70     		strb	r4, [r3]
 112:.\Generated_Source\PSoC5/ADC_SOUND_IN.c ****     ADC_SOUND_IN_DSM_CLK_REG    |= ADC_SOUND_IN_CFG1_DSM_CLK;
 477              		.loc 1 112 0
 478 002e 0733     		adds	r3, r3, #7
 479 0030 1C70     		strb	r4, [r3]
 113:.\Generated_Source\PSoC5/ADC_SOUND_IN.c ****     ADC_SOUND_IN_DSM_REF1_REG    = ADC_SOUND_IN_CFG1_DSM_REF1;
 480              		.loc 1 113 0
 481 0032 204A     		ldr	r2, .L31+12
 482 0034 1378     		ldrb	r3, [r2]	@ zero_extendqisi2
 483 0036 43F01803 		orr	r3, r3, #24
 484 003a 1370     		strb	r3, [r2]
 114:.\Generated_Source\PSoC5/ADC_SOUND_IN.c **** 
 485              		.loc 1 114 0
 486 003c 1E4B     		ldr	r3, .L31+16
 487 003e 1C70     		strb	r4, [r3]
 116:.\Generated_Source\PSoC5/ADC_SOUND_IN.c ****     ADC_SOUND_IN_DSM_OUT1_REG    = ADC_SOUND_IN_CFG1_DSM_OUT1;
 488              		.loc 1 116 0
 489 0040 03F2F523 		addw	r3, r3, #757
 490 0044 1C70     		strb	r4, [r3]
 117:.\Generated_Source\PSoC5/ADC_SOUND_IN.c **** 
 491              		.loc 1 117 0
ARM GAS  C:\Users\YongY\AppData\Local\Temp\ccMwH7lk.s 			page 41


 492 0046 0133     		adds	r3, r3, #1
 493 0048 1C70     		strb	r4, [r3]
 119:.\Generated_Source\PSoC5/ADC_SOUND_IN.c ****     ADC_SOUND_IN_DSM_CR1_REG     = ADC_SOUND_IN_CFG1_DSM_CR1;
 494              		.loc 1 119 0
 495 004a 0A22     		movs	r2, #10
 496 004c A3F20933 		subw	r3, r3, #777
 497 0050 1A70     		strb	r2, [r3]
 120:.\Generated_Source\PSoC5/ADC_SOUND_IN.c **** #if(ADC_SOUND_IN_MI_ENABLE != 0u) /* Enable Modulator Input */
 498              		.loc 1 120 0
 499 0052 0133     		adds	r3, r3, #1
 500 0054 1C70     		strb	r4, [r3]
 124:.\Generated_Source\PSoC5/ADC_SOUND_IN.c **** #endif /* ADC_SOUND_IN_MI_ENABLE != 0u*/    
 501              		.loc 1 124 0
 502 0056 0233     		adds	r3, r3, #2
 503 0058 1C70     		strb	r4, [r3]
 126:.\Generated_Source\PSoC5/ADC_SOUND_IN.c ****     ADC_SOUND_IN_DSM_CR9_REG     = ADC_SOUND_IN_CFG1_DSM_CR9;
 504              		.loc 1 126 0
 505 005a 1222     		movs	r2, #18
 506 005c 0533     		adds	r3, r3, #5
 507 005e 1A70     		strb	r2, [r3]
 127:.\Generated_Source\PSoC5/ADC_SOUND_IN.c ****     ADC_SOUND_IN_DSM_CR13_REG    = ADC_SOUND_IN_CFG1_DSM_CR13;
 508              		.loc 1 127 0
 509 0060 1322     		movs	r2, #19
 510 0062 0133     		adds	r3, r3, #1
 511 0064 1A70     		strb	r2, [r3]
 128:.\Generated_Source\PSoC5/ADC_SOUND_IN.c **** 
 512              		.loc 1 128 0
 513 0066 0433     		adds	r3, r3, #4
 514 0068 1C70     		strb	r4, [r3]
 130:.\Generated_Source\PSoC5/ADC_SOUND_IN.c **** 
 515              		.loc 1 130 0
 516 006a 1422     		movs	r2, #20
 517 006c A3F68C23 		subw	r3, r3, #2700
 518 0070 1A70     		strb	r2, [r3]
 133:.\Generated_Source\PSoC5/ADC_SOUND_IN.c ****                                       ADC_SOUND_IN_CFG1_IDEAL_DEC_GAIN,
 519              		.loc 1 133 0
 520 0072 0097     		str	r7, [sp]
 521 0074 2046     		mov	r0, r4
 522 0076 48F6B651 		movw	r1, #36278
 523 007a 4FF40042 		mov	r2, #32768
 524 007e 0C23     		movs	r3, #12
 525 0080 FFF7FEFF 		bl	ADC_SOUND_IN_GainCompensation
 526              	.LVL49:
 161:.\Generated_Source\PSoC5/ADC_SOUND_IN.c ****     CY_SET_REG16(ADC_SOUND_IN_DEC_GCOR_16B_PTR, ADC_SOUND_IN_gcor[ADC_SOUND_IN_Config - 1u].gcor);
 527              		.loc 1 161 0
 528 0084 2B78     		ldrb	r3, [r5]	@ zero_extendqisi2
 529 0086 06EB8303 		add	r3, r6, r3, lsl #2
 530 008a 13F8022C 		ldrb	r2, [r3, #-2]	@ zero_extendqisi2
 531 008e 0B4B     		ldr	r3, .L31+20
 532 0090 1A70     		strb	r2, [r3]
 162:.\Generated_Source\PSoC5/ADC_SOUND_IN.c **** 
 533              		.loc 1 162 0
 534 0092 2B78     		ldrb	r3, [r5]	@ zero_extendqisi2
 535 0094 013B     		subs	r3, r3, #1
 536 0096 36F82320 		ldrh	r2, [r6, r3, lsl #2]
 537 009a 094B     		ldr	r3, .L31+24
 538 009c 1A80     		strh	r2, [r3]	@ movhi
ARM GAS  C:\Users\YongY\AppData\Local\Temp\ccMwH7lk.s 			page 42


 165:.\Generated_Source\PSoC5/ADC_SOUND_IN.c **** }
 539              		.loc 1 165 0
 540 009e 2878     		ldrb	r0, [r5]	@ zero_extendqisi2
 541 00a0 FFF7FEFF 		bl	ADC_SOUND_IN_InitConfig
 542              	.LVL50:
 166:.\Generated_Source\PSoC5/ADC_SOUND_IN.c **** 
 543              		.loc 1 166 0
 544 00a4 03B0     		add	sp, sp, #12
 545              		.cfi_def_cfa_offset 20
 546              		@ sp needed
 547 00a6 F0BD     		pop	{r4, r5, r6, r7, pc}
 548              	.L32:
 549              		.align	2
 550              	.L31:
 551 00a8 00000000 		.word	.LANCHOR1
 552 00ac 00000000 		.word	.LANCHOR0
 553 00b0 96580040 		.word	1073764502
 554 00b4 075B0040 		.word	1073765127
 555 00b8 93580040 		.word	1073764499
 556 00bc 0E4E0040 		.word	1073761806
 557 00c0 0C4E0040 		.word	1073761804
 558              		.cfi_endproc
 559              	.LFE0:
 560              		.size	ADC_SOUND_IN_Init, .-ADC_SOUND_IN_Init
 561              		.section	.text.ADC_SOUND_IN_Enable,"ax",%progbits
 562              		.align	2
 563              		.global	ADC_SOUND_IN_Enable
 564              		.thumb
 565              		.thumb_func
 566              		.type	ADC_SOUND_IN_Enable, %function
 567              	ADC_SOUND_IN_Enable:
 568              	.LFB1:
 185:.\Generated_Source\PSoC5/ADC_SOUND_IN.c **** 	uint8 config;
 569              		.loc 1 185 0
 570              		.cfi_startproc
 571              		@ args = 0, pretend = 0, frame = 0
 572              		@ frame_needed = 0, uses_anonymous_args = 0
 573 0000 70B5     		push	{r4, r5, r6, lr}
 574              		.cfi_def_cfa_offset 16
 575              		.cfi_offset 4, -16
 576              		.cfi_offset 5, -12
 577              		.cfi_offset 6, -8
 578              		.cfi_offset 14, -4
 188:.\Generated_Source\PSoC5/ADC_SOUND_IN.c **** 
 579              		.loc 1 188 0
 580 0002 FFF7FEFF 		bl	CyEnterCriticalSection
 581              	.LVL51:
 582 0006 0646     		mov	r6, r0
 583              	.LVL52:
 191:.\Generated_Source\PSoC5/ADC_SOUND_IN.c ****     
 584              		.loc 1 191 0
 585 0008 2A4B     		ldr	r3, .L35
 586 000a 1B78     		ldrb	r3, [r3]	@ zero_extendqisi2
 587              	.LVL53:
 194:.\Generated_Source\PSoC5/ADC_SOUND_IN.c ****     ADC_SOUND_IN_PWRMGR_DSM_REG |= ADC_SOUND_IN_ACT_PWR_DSM_EN;
 588              		.loc 1 194 0
 589 000c 2A4B     		ldr	r3, .L35+4
ARM GAS  C:\Users\YongY\AppData\Local\Temp\ccMwH7lk.s 			page 43


 590 000e 1A78     		ldrb	r2, [r3]	@ zero_extendqisi2
 591 0010 42F00102 		orr	r2, r2, #1
 592 0014 1A70     		strb	r2, [r3]
 195:.\Generated_Source\PSoC5/ADC_SOUND_IN.c **** 
 593              		.loc 1 195 0
 594 0016 1A78     		ldrb	r2, [r3]	@ zero_extendqisi2
 595 0018 42F01002 		orr	r2, r2, #16
 596 001c 1A70     		strb	r2, [r3]
 198:.\Generated_Source\PSoC5/ADC_SOUND_IN.c ****     ADC_SOUND_IN_STBY_PWRMGR_DSM_REG |= ADC_SOUND_IN_STBY_PWR_DSM_EN;
 597              		.loc 1 198 0
 598 001e 1033     		adds	r3, r3, #16
 599 0020 1A78     		ldrb	r2, [r3]	@ zero_extendqisi2
 600 0022 42F00102 		orr	r2, r2, #1
 601 0026 1A70     		strb	r2, [r3]
 199:.\Generated_Source\PSoC5/ADC_SOUND_IN.c **** 
 602              		.loc 1 199 0
 603 0028 1A78     		ldrb	r2, [r3]	@ zero_extendqisi2
 604 002a 42F01002 		orr	r2, r2, #16
 605 002e 1A70     		strb	r2, [r3]
 202:.\Generated_Source\PSoC5/ADC_SOUND_IN.c ****     ADC_SOUND_IN_RESET_CR5_REG |= ADC_SOUND_IN_IGNORE_PRESA2;
 606              		.loc 1 202 0
 607 0030 224D     		ldr	r5, .L35+8
 608 0032 2B78     		ldrb	r3, [r5]	@ zero_extendqisi2
 609 0034 43F00203 		orr	r3, r3, #2
 610 0038 2B70     		strb	r3, [r5]
 203:.\Generated_Source\PSoC5/ADC_SOUND_IN.c **** 
 611              		.loc 1 203 0
 612 003a 214C     		ldr	r4, .L35+12
 613 003c 2378     		ldrb	r3, [r4]	@ zero_extendqisi2
 614 003e 43F00203 		orr	r3, r3, #2
 615 0042 2370     		strb	r3, [r4]
 205:.\Generated_Source\PSoC5/ADC_SOUND_IN.c **** 
 616              		.loc 1 205 0
 617 0044 1F4A     		ldr	r2, .L35+16
 618 0046 1378     		ldrb	r3, [r2]	@ zero_extendqisi2
 619 0048 43F00303 		orr	r3, r3, #3
 620 004c 1370     		strb	r3, [r2]
 271:.\Generated_Source\PSoC5/ADC_SOUND_IN.c **** 
 621              		.loc 1 271 0
 622 004e 0320     		movs	r0, #3
 623 0050 FFF7FEFF 		bl	CyDelayUs
 624              	.LVL54:
 274:.\Generated_Source\PSoC5/ADC_SOUND_IN.c ****     ADC_SOUND_IN_RESET_CR5_REG &= (uint8)~ADC_SOUND_IN_IGNORE_PRESA2;
 625              		.loc 1 274 0
 626 0054 2B78     		ldrb	r3, [r5]	@ zero_extendqisi2
 627 0056 03F0FD03 		and	r3, r3, #253
 628 005a 2B70     		strb	r3, [r5]
 275:.\Generated_Source\PSoC5/ADC_SOUND_IN.c **** 
 629              		.loc 1 275 0
 630 005c 2378     		ldrb	r3, [r4]	@ zero_extendqisi2
 631 005e 03F0FD03 		and	r3, r3, #253
 632 0062 2370     		strb	r3, [r4]
 278:.\Generated_Source\PSoC5/ADC_SOUND_IN.c **** 
 633              		.loc 1 278 0
 634 0064 184A     		ldr	r2, .L35+20
 635 0066 1378     		ldrb	r3, [r2]	@ zero_extendqisi2
 636 0068 43F00603 		orr	r3, r3, #6
ARM GAS  C:\Users\YongY\AppData\Local\Temp\ccMwH7lk.s 			page 44


 637 006c 1370     		strb	r3, [r2]
 281:.\Generated_Source\PSoC5/ADC_SOUND_IN.c **** 
 638              		.loc 1 281 0
 639 006e 7A22     		movs	r2, #122
 640 0070 164B     		ldr	r3, .L35+24
 641 0072 1A70     		strb	r2, [r3]
 285:.\Generated_Source\PSoC5/ADC_SOUND_IN.c ****         ADC_SOUND_IN_STBY_PWRMGR_CLK_REG |= ADC_SOUND_IN_STBY_PWR_CLK_EN;
 642              		.loc 1 285 0
 643 0074 164A     		ldr	r2, .L35+28
 644 0076 1378     		ldrb	r3, [r2]	@ zero_extendqisi2
 645 0078 43F00103 		orr	r3, r3, #1
 646 007c 1370     		strb	r3, [r2]
 286:.\Generated_Source\PSoC5/ADC_SOUND_IN.c ****     #endif /* ADC_SOUND_IN_DEFAULT_INTERNAL_CLK */
 647              		.loc 1 286 0
 648 007e 1032     		adds	r2, r2, #16
 649 0080 1378     		ldrb	r3, [r2]	@ zero_extendqisi2
 650 0082 43F00103 		orr	r3, r3, #1
 651 0086 1370     		strb	r3, [r2]
 290:.\Generated_Source\PSoC5/ADC_SOUND_IN.c ****     ADC_SOUND_IN_STBY_PWRMGR_CHARGE_PUMP_CLK_REG |= ADC_SOUND_IN_STBY_PWR_CHARGE_PUMP_CLK_EN;
 652              		.loc 1 290 0
 653 0088 0F3A     		subs	r2, r2, #15
 654 008a 1378     		ldrb	r3, [r2]	@ zero_extendqisi2
 655 008c 43F00103 		orr	r3, r3, #1
 656 0090 1370     		strb	r3, [r2]
 291:.\Generated_Source\PSoC5/ADC_SOUND_IN.c **** 
 657              		.loc 1 291 0
 658 0092 1032     		adds	r2, r2, #16
 659 0094 1378     		ldrb	r3, [r2]	@ zero_extendqisi2
 660 0096 43F00103 		orr	r3, r3, #1
 661 009a 1370     		strb	r3, [r2]
 295:.\Generated_Source\PSoC5/ADC_SOUND_IN.c ****         /* Enable interrupt */
 662              		.loc 1 295 0
 663 009c 4FF00053 		mov	r3, #536870912
 664 00a0 0C4A     		ldr	r2, .L35+32
 665 00a2 1360     		str	r3, [r2]
 297:.\Generated_Source\PSoC5/ADC_SOUND_IN.c ****     #endif   /* End ADC_SOUND_IN_IRQ_REMOVE */
 666              		.loc 1 297 0
 667 00a4 A2F5C072 		sub	r2, r2, #384
 668 00a8 1360     		str	r3, [r2]
 300:.\Generated_Source\PSoC5/ADC_SOUND_IN.c **** 
 669              		.loc 1 300 0
 670 00aa 3046     		mov	r0, r6
 671 00ac FFF7FEFF 		bl	CyExitCriticalSection
 672              	.LVL55:
 673 00b0 70BD     		pop	{r4, r5, r6, pc}
 674              	.LVL56:
 675              	.L36:
 676 00b2 00BF     		.align	2
 677              	.L35:
 678 00b4 00000000 		.word	.LANCHOR1
 679 00b8 AA430040 		.word	1073759146
 680 00bc F8460040 		.word	1073759992
 681 00c0 F9460040 		.word	1073759993
 682 00c4 91580040 		.word	1073764497
 683 00c8 77580040 		.word	1073764471
 684 00cc 82580040 		.word	1073764482
 685 00d0 A1430040 		.word	1073759137
ARM GAS  C:\Users\YongY\AppData\Local\Temp\ccMwH7lk.s 			page 45


 686 00d4 80E200E0 		.word	-536812928
 687              		.cfi_endproc
 688              	.LFE1:
 689              		.size	ADC_SOUND_IN_Enable, .-ADC_SOUND_IN_Enable
 690              		.section	.text.ADC_SOUND_IN_Start,"ax",%progbits
 691              		.align	2
 692              		.global	ADC_SOUND_IN_Start
 693              		.thumb
 694              		.thumb_func
 695              		.type	ADC_SOUND_IN_Start, %function
 696              	ADC_SOUND_IN_Start:
 697              	.LFB2:
 330:.\Generated_Source\PSoC5/ADC_SOUND_IN.c ****     if(ADC_SOUND_IN_initVar == 0u)
 698              		.loc 1 330 0
 699              		.cfi_startproc
 700              		@ args = 0, pretend = 0, frame = 0
 701              		@ frame_needed = 0, uses_anonymous_args = 0
 702 0000 08B5     		push	{r3, lr}
 703              		.cfi_def_cfa_offset 8
 704              		.cfi_offset 3, -8
 705              		.cfi_offset 14, -4
 331:.\Generated_Source\PSoC5/ADC_SOUND_IN.c ****     {
 706              		.loc 1 331 0
 707 0002 084B     		ldr	r3, .L41
 708 0004 9B79     		ldrb	r3, [r3, #6]	@ zero_extendqisi2
 709 0006 4BB9     		cbnz	r3, .L38
 333:.\Generated_Source\PSoC5/ADC_SOUND_IN.c ****         {
 710              		.loc 1 333 0
 711 0008 064B     		ldr	r3, .L41
 712 000a DB79     		ldrb	r3, [r3, #7]	@ zero_extendqisi2
 713 000c 13F0FF0F 		tst	r3, #255
 714 0010 01D1     		bne	.L39
 335:.\Generated_Source\PSoC5/ADC_SOUND_IN.c ****         }
 715              		.loc 1 335 0
 716 0012 FFF7FEFF 		bl	ADC_SOUND_IN_Init
 717              	.LVL57:
 718              	.L39:
 337:.\Generated_Source\PSoC5/ADC_SOUND_IN.c ****     }
 719              		.loc 1 337 0
 720 0016 0122     		movs	r2, #1
 721 0018 024B     		ldr	r3, .L41
 722 001a 9A71     		strb	r2, [r3, #6]
 723              	.L38:
 341:.\Generated_Source\PSoC5/ADC_SOUND_IN.c **** }
 724              		.loc 1 341 0
 725 001c FFF7FEFF 		bl	ADC_SOUND_IN_Enable
 726              	.LVL58:
 727 0020 08BD     		pop	{r3, pc}
 728              	.L42:
 729 0022 00BF     		.align	2
 730              	.L41:
 731 0024 00000000 		.word	.LANCHOR0
 732              		.cfi_endproc
 733              	.LFE2:
 734              		.size	ADC_SOUND_IN_Start, .-ADC_SOUND_IN_Start
 735              		.section	.text.ADC_SOUND_IN_Stop,"ax",%progbits
 736              		.align	2
ARM GAS  C:\Users\YongY\AppData\Local\Temp\ccMwH7lk.s 			page 46


 737              		.global	ADC_SOUND_IN_Stop
 738              		.thumb
 739              		.thumb_func
 740              		.type	ADC_SOUND_IN_Stop, %function
 741              	ADC_SOUND_IN_Stop:
 742              	.LFB3:
 363:.\Generated_Source\PSoC5/ADC_SOUND_IN.c ****     uint8 enableInterrupts;
 743              		.loc 1 363 0
 744              		.cfi_startproc
 745              		@ args = 0, pretend = 0, frame = 0
 746              		@ frame_needed = 0, uses_anonymous_args = 0
 747 0000 70B5     		push	{r4, r5, r6, lr}
 748              		.cfi_def_cfa_offset 16
 749              		.cfi_offset 4, -16
 750              		.cfi_offset 5, -12
 751              		.cfi_offset 6, -8
 752              		.cfi_offset 14, -4
 365:.\Generated_Source\PSoC5/ADC_SOUND_IN.c **** 
 753              		.loc 1 365 0
 754 0002 FFF7FEFF 		bl	CyEnterCriticalSection
 755              	.LVL59:
 756 0006 0646     		mov	r6, r0
 757              	.LVL60:
 368:.\Generated_Source\PSoC5/ADC_SOUND_IN.c ****     ADC_SOUND_IN_DEC_SR_REG |=  ADC_SOUND_IN_DEC_INTR_CLEAR;
 758              		.loc 1 368 0
 759 0008 314A     		ldr	r2, .L45
 760 000a 1378     		ldrb	r3, [r2]	@ zero_extendqisi2
 761 000c 03F0FE03 		and	r3, r3, #254
 762 0010 1370     		strb	r3, [r2]
 369:.\Generated_Source\PSoC5/ADC_SOUND_IN.c **** 
 763              		.loc 1 369 0
 764 0012 0132     		adds	r2, r2, #1
 765 0014 1378     		ldrb	r3, [r2]	@ zero_extendqisi2
 766 0016 43F00403 		orr	r3, r3, #4
 767 001a 1370     		strb	r3, [r2]
 373:.\Generated_Source\PSoC5/ADC_SOUND_IN.c ****     ADC_SOUND_IN_RESET_CR5_REG |= ADC_SOUND_IN_IGNORE_PRESA2;
 768              		.loc 1 373 0
 769 001c 2D4D     		ldr	r5, .L45+4
 770 001e 2B78     		ldrb	r3, [r5]	@ zero_extendqisi2
 771 0020 43F00203 		orr	r3, r3, #2
 772 0024 2B70     		strb	r3, [r5]
 374:.\Generated_Source\PSoC5/ADC_SOUND_IN.c **** 
 773              		.loc 1 374 0
 774 0026 2C4C     		ldr	r4, .L45+8
 775 0028 2378     		ldrb	r3, [r4]	@ zero_extendqisi2
 776 002a 43F00203 		orr	r3, r3, #2
 777 002e 2370     		strb	r3, [r4]
 376:.\Generated_Source\PSoC5/ADC_SOUND_IN.c ****     ADC_SOUND_IN_DSM_REF0_REG &= (uint8)~ADC_SOUND_IN_DSM_EN_BUF_VREF_INN;
 778              		.loc 1 376 0
 779 0030 02F52962 		add	r2, r2, #2704
 780 0034 1378     		ldrb	r3, [r2]	@ zero_extendqisi2
 781 0036 03F0FC03 		and	r3, r3, #252
 782 003a 1370     		strb	r3, [r2]
 377:.\Generated_Source\PSoC5/ADC_SOUND_IN.c **** 
 783              		.loc 1 377 0
 784 003c 0132     		adds	r2, r2, #1
 785 003e 1378     		ldrb	r3, [r2]	@ zero_extendqisi2
ARM GAS  C:\Users\YongY\AppData\Local\Temp\ccMwH7lk.s 			page 47


 786 0040 03F0F703 		and	r3, r3, #247
 787 0044 1370     		strb	r3, [r2]
 380:.\Generated_Source\PSoC5/ADC_SOUND_IN.c **** 
 788              		.loc 1 380 0
 789 0046 0320     		movs	r0, #3
 790 0048 FFF7FEFF 		bl	CyDelayUs
 791              	.LVL61:
 383:.\Generated_Source\PSoC5/ADC_SOUND_IN.c ****     ADC_SOUND_IN_RESET_CR5_REG &= (uint8)~ADC_SOUND_IN_IGNORE_PRESA2;
 792              		.loc 1 383 0
 793 004c 2B78     		ldrb	r3, [r5]	@ zero_extendqisi2
 794 004e 03F0FD03 		and	r3, r3, #253
 795 0052 2B70     		strb	r3, [r5]
 384:.\Generated_Source\PSoC5/ADC_SOUND_IN.c **** 
 796              		.loc 1 384 0
 797 0054 2378     		ldrb	r3, [r4]	@ zero_extendqisi2
 798 0056 03F0FD03 		and	r3, r3, #253
 799 005a 2370     		strb	r3, [r4]
 387:.\Generated_Source\PSoC5/ADC_SOUND_IN.c **** 
 800              		.loc 1 387 0
 801 005c 1F4B     		ldr	r3, .L45+12
 802 005e 1A78     		ldrb	r2, [r3]	@ zero_extendqisi2
 803 0060 02F0EF02 		and	r2, r2, #239
 804 0064 1A70     		strb	r2, [r3]
 390:.\Generated_Source\PSoC5/ADC_SOUND_IN.c **** 
 805              		.loc 1 390 0
 806 0066 1A78     		ldrb	r2, [r3]	@ zero_extendqisi2
 807 0068 02F0FE02 		and	r2, r2, #254
 808 006c 1A70     		strb	r2, [r3]
 393:.\Generated_Source\PSoC5/ADC_SOUND_IN.c ****     ADC_SOUND_IN_STBY_PWRMGR_DSM_REG &= (uint8)~ADC_SOUND_IN_STBY_PWR_DSM_EN;
 809              		.loc 1 393 0
 810 006e 1033     		adds	r3, r3, #16
 811 0070 1A78     		ldrb	r2, [r3]	@ zero_extendqisi2
 812 0072 02F0FE02 		and	r2, r2, #254
 813 0076 1A70     		strb	r2, [r3]
 394:.\Generated_Source\PSoC5/ADC_SOUND_IN.c **** 
 814              		.loc 1 394 0
 815 0078 1A78     		ldrb	r2, [r3]	@ zero_extendqisi2
 816 007a 02F0EF02 		and	r2, r2, #239
 817 007e 1A70     		strb	r2, [r3]
 397:.\Generated_Source\PSoC5/ADC_SOUND_IN.c **** 
 818              		.loc 1 397 0
 819 0080 174A     		ldr	r2, .L45+16
 820 0082 1378     		ldrb	r3, [r2]	@ zero_extendqisi2
 821 0084 03F0F903 		and	r3, r3, #249
 822 0088 1370     		strb	r3, [r2]
 401:.\Generated_Source\PSoC5/ADC_SOUND_IN.c ****         ADC_SOUND_IN_STBY_PWRMGR_CLK_REG &= (uint8)~ADC_SOUND_IN_STBY_PWR_CLK_EN;
 823              		.loc 1 401 0
 824 008a A2F5A652 		sub	r2, r2, #5312
 825 008e 163A     		subs	r2, r2, #22
 826 0090 1378     		ldrb	r3, [r2]	@ zero_extendqisi2
 827 0092 03F0FE03 		and	r3, r3, #254
 828 0096 1370     		strb	r3, [r2]
 402:.\Generated_Source\PSoC5/ADC_SOUND_IN.c ****     #endif /* ADC_SOUND_IN_DEFAULT_INTERNAL_CLK */
 829              		.loc 1 402 0
 830 0098 1032     		adds	r2, r2, #16
 831 009a 1378     		ldrb	r3, [r2]	@ zero_extendqisi2
 832 009c 03F0FE03 		and	r3, r3, #254
ARM GAS  C:\Users\YongY\AppData\Local\Temp\ccMwH7lk.s 			page 48


 833 00a0 1370     		strb	r3, [r2]
 406:.\Generated_Source\PSoC5/ADC_SOUND_IN.c ****     /* Disable power to charge pump clock */
 834              		.loc 1 406 0
 835 00a2 02F5A652 		add	r2, r2, #5312
 836 00a6 1132     		adds	r2, r2, #17
 837 00a8 1378     		ldrb	r3, [r2]	@ zero_extendqisi2
 838 00aa 03F0F703 		and	r3, r3, #247
 839 00ae 1370     		strb	r3, [r2]
 408:.\Generated_Source\PSoC5/ADC_SOUND_IN.c ****     ADC_SOUND_IN_STBY_PWRMGR_CHARGE_PUMP_CLK_REG &= (uint8)~ADC_SOUND_IN_STBY_PWR_CHARGE_PUMP_CLK_E
 840              		.loc 1 408 0
 841 00b0 A2F5A752 		sub	r2, r2, #5344
 842 00b4 1378     		ldrb	r3, [r2]	@ zero_extendqisi2
 843 00b6 03F0FE03 		and	r3, r3, #254
 844 00ba 1370     		strb	r3, [r2]
 409:.\Generated_Source\PSoC5/ADC_SOUND_IN.c ****     
 845              		.loc 1 409 0
 846 00bc 1032     		adds	r2, r2, #16
 847 00be 1378     		ldrb	r3, [r2]	@ zero_extendqisi2
 848 00c0 03F0FE03 		and	r3, r3, #254
 849 00c4 1370     		strb	r3, [r2]
 411:.\Generated_Source\PSoC5/ADC_SOUND_IN.c **** }
 850              		.loc 1 411 0
 851 00c6 3046     		mov	r0, r6
 852 00c8 FFF7FEFF 		bl	CyExitCriticalSection
 853              	.LVL62:
 854 00cc 70BD     		pop	{r4, r5, r6, pc}
 855              	.LVL63:
 856              	.L46:
 857 00ce 00BF     		.align	2
 858              	.L45:
 859 00d0 004E0040 		.word	1073761792
 860 00d4 F8460040 		.word	1073759992
 861 00d8 F9460040 		.word	1073759993
 862 00dc AA430040 		.word	1073759146
 863 00e0 77580040 		.word	1073764471
 864              		.cfi_endproc
 865              	.LFE3:
 866              		.size	ADC_SOUND_IN_Stop, .-ADC_SOUND_IN_Stop
 867              		.section	.text.ADC_SOUND_IN_SetBufferGain,"ax",%progbits
 868              		.align	2
 869              		.global	ADC_SOUND_IN_SetBufferGain
 870              		.thumb
 871              		.thumb_func
 872              		.type	ADC_SOUND_IN_SetBufferGain, %function
 873              	ADC_SOUND_IN_SetBufferGain:
 874              	.LFB4:
 430:.\Generated_Source\PSoC5/ADC_SOUND_IN.c ****     uint8 tmpReg;
 875              		.loc 1 430 0
 876              		.cfi_startproc
 877              		@ args = 0, pretend = 0, frame = 0
 878              		@ frame_needed = 0, uses_anonymous_args = 0
 879              		@ link register save eliminated.
 880              	.LVL64:
 432:.\Generated_Source\PSoC5/ADC_SOUND_IN.c ****     tmpReg |= (uint8)(gain << ADC_SOUND_IN_DSM_GAIN_SHIFT) & ADC_SOUND_IN_DSM_GAIN_MASK;
 881              		.loc 1 432 0
 882 0000 044A     		ldr	r2, .L48
 883 0002 1378     		ldrb	r3, [r2]	@ zero_extendqisi2
ARM GAS  C:\Users\YongY\AppData\Local\Temp\ccMwH7lk.s 			page 49


 884 0004 03F0F303 		and	r3, r3, #243
 885              	.LVL65:
 433:.\Generated_Source\PSoC5/ADC_SOUND_IN.c ****     ADC_SOUND_IN_DSM_BUF1_REG = tmpReg;
 886              		.loc 1 433 0
 887 0008 8000     		lsls	r0, r0, #2
 888              	.LVL66:
 889 000a 00F00C00 		and	r0, r0, #12
 890 000e 1843     		orrs	r0, r0, r3
 891              	.LVL67:
 434:.\Generated_Source\PSoC5/ADC_SOUND_IN.c **** }
 892              		.loc 1 434 0
 893 0010 1070     		strb	r0, [r2]
 894 0012 7047     		bx	lr
 895              	.L49:
 896              		.align	2
 897              	.L48:
 898 0014 9B580040 		.word	1073764507
 899              		.cfi_endproc
 900              	.LFE4:
 901              		.size	ADC_SOUND_IN_SetBufferGain, .-ADC_SOUND_IN_SetBufferGain
 902              		.section	.text.ADC_SOUND_IN_SetCoherency,"ax",%progbits
 903              		.align	2
 904              		.global	ADC_SOUND_IN_SetCoherency
 905              		.thumb
 906              		.thumb_func
 907              		.type	ADC_SOUND_IN_SetCoherency, %function
 908              	ADC_SOUND_IN_SetCoherency:
 909              	.LFB5:
 466:.\Generated_Source\PSoC5/ADC_SOUND_IN.c ****     uint8 tmpReg;
 910              		.loc 1 466 0
 911              		.cfi_startproc
 912              		@ args = 0, pretend = 0, frame = 0
 913              		@ frame_needed = 0, uses_anonymous_args = 0
 914              		@ link register save eliminated.
 915              	.LVL68:
 469:.\Generated_Source\PSoC5/ADC_SOUND_IN.c ****     tmpReg |= coherency & ADC_SOUND_IN_DEC_SAMP_KEY_MASK;
 916              		.loc 1 469 0
 917 0000 044A     		ldr	r2, .L51
 918 0002 1378     		ldrb	r3, [r2]	@ zero_extendqisi2
 919 0004 03F0FC03 		and	r3, r3, #252
 920              	.LVL69:
 470:.\Generated_Source\PSoC5/ADC_SOUND_IN.c ****     ADC_SOUND_IN_DEC_COHER_REG = tmpReg;
 921              		.loc 1 470 0
 922 0008 00F00300 		and	r0, r0, #3
 923              	.LVL70:
 924 000c 1843     		orrs	r0, r0, r3
 925              	.LVL71:
 471:.\Generated_Source\PSoC5/ADC_SOUND_IN.c **** }
 926              		.loc 1 471 0
 927 000e 1070     		strb	r0, [r2]
 928 0010 7047     		bx	lr
 929              	.L52:
 930 0012 00BF     		.align	2
 931              	.L51:
 932 0014 144E0040 		.word	1073761812
 933              		.cfi_endproc
 934              	.LFE5:
ARM GAS  C:\Users\YongY\AppData\Local\Temp\ccMwH7lk.s 			page 50


 935              		.size	ADC_SOUND_IN_SetCoherency, .-ADC_SOUND_IN_SetCoherency
 936              		.global	__aeabi_ui2f
 937              		.global	__aeabi_fmul
 938              		.global	__aeabi_f2d
 939              		.global	__aeabi_dcmpgt
 940              		.global	__aeabi_f2uiz
 941              		.section	.text.ADC_SOUND_IN_SetGCOR,"ax",%progbits
 942              		.align	2
 943              		.global	ADC_SOUND_IN_SetGCOR
 944              		.thumb
 945              		.thumb_func
 946              		.type	ADC_SOUND_IN_SetGCOR, %function
 947              	ADC_SOUND_IN_SetGCOR:
 948              	.LFB6:
 506:.\Generated_Source\PSoC5/ADC_SOUND_IN.c ****     uint16 tmpReg;
 949              		.loc 1 506 0
 950              		.cfi_startproc
 951              		@ args = 0, pretend = 0, frame = 0
 952              		@ frame_needed = 0, uses_anonymous_args = 0
 953              	.LVL72:
 954 0000 10B5     		push	{r4, lr}
 955              		.cfi_def_cfa_offset 8
 956              		.cfi_offset 4, -8
 957              		.cfi_offset 14, -4
 958 0002 0446     		mov	r4, r0
 511:.\Generated_Source\PSoC5/ADC_SOUND_IN.c ****     tmpValue = ((float32)tmpReg / (float32)ADC_SOUND_IN_IDEAL_GAIN_CONST);
 959              		.loc 1 511 0
 960 0004 184B     		ldr	r3, .L57+8
 961 0006 1B78     		ldrb	r3, [r3]	@ zero_extendqisi2
 962 0008 013B     		subs	r3, r3, #1
 963              	.LVL73:
 512:.\Generated_Source\PSoC5/ADC_SOUND_IN.c ****     tmpValue = tmpValue * gainAdjust;
 964              		.loc 1 512 0
 965 000a 184A     		ldr	r2, .L57+12
 966 000c 32F82300 		ldrh	r0, [r2, r3, lsl #2]
 967              	.LVL74:
 968 0010 FFF7FEFF 		bl	__aeabi_ui2f
 969              	.LVL75:
 970 0014 4FF06051 		mov	r1, #939524096
 971 0018 FFF7FEFF 		bl	__aeabi_fmul
 972              	.LVL76:
 513:.\Generated_Source\PSoC5/ADC_SOUND_IN.c **** 
 973              		.loc 1 513 0
 974 001c 2146     		mov	r1, r4
 975 001e FFF7FEFF 		bl	__aeabi_fmul
 976              	.LVL77:
 977 0022 0446     		mov	r4, r0
 978              	.LVL78:
 515:.\Generated_Source\PSoC5/ADC_SOUND_IN.c ****     {
 979              		.loc 1 515 0
 980 0024 FFF7FEFF 		bl	__aeabi_f2d
 981              	.LVL79:
 982 0028 0DA3     		adr	r3, .L57
 983 002a D3E90023 		ldrd	r2, [r3]
 984 002e FFF7FEFF 		bl	__aeabi_dcmpgt
 985              	.LVL80:
 986 0032 88B9     		cbnz	r0, .L55
ARM GAS  C:\Users\YongY\AppData\Local\Temp\ccMwH7lk.s 			page 51


 521:.\Generated_Source\PSoC5/ADC_SOUND_IN.c **** 		tmpReg = (uint16)tmpValue;
 987              		.loc 1 521 0
 988 0034 2046     		mov	r0, r4
 989 0036 4FF08E41 		mov	r1, #1191182336
 990 003a FFF7FEFF 		bl	__aeabi_fmul
 991              	.LVL81:
 522:.\Generated_Source\PSoC5/ADC_SOUND_IN.c ****         CY_SET_REG16(ADC_SOUND_IN_DEC_GCOR_16B_PTR, tmpReg);
 992              		.loc 1 522 0
 993 003e FFF7FEFF 		bl	__aeabi_f2uiz
 994              	.LVL82:
 995 0042 80B2     		uxth	r0, r0
 996              	.LVL83:
 523:.\Generated_Source\PSoC5/ADC_SOUND_IN.c ****         /* Update gain array to be used by SelectConfiguration() API */
 997              		.loc 1 523 0
 998 0044 0A4B     		ldr	r3, .L57+16
 999 0046 1880     		strh	r0, [r3]	@ movhi
 525:.\Generated_Source\PSoC5/ADC_SOUND_IN.c **** 
 1000              		.loc 1 525 0
 1001 0048 074B     		ldr	r3, .L57+8
 1002 004a 1B78     		ldrb	r3, [r3]	@ zero_extendqisi2
 1003 004c 013B     		subs	r3, r3, #1
 1004 004e 074A     		ldr	r2, .L57+12
 1005 0050 22F82300 		strh	r0, [r2, r3, lsl #2]	@ movhi
 1006              	.LVL84:
 527:.\Generated_Source\PSoC5/ADC_SOUND_IN.c **** 
 1007              		.loc 1 527 0
 1008 0054 0020     		movs	r0, #0
 1009              	.LVL85:
 1010 0056 10BD     		pop	{r4, pc}
 1011              	.LVL86:
 1012              	.L55:
 517:.\Generated_Source\PSoC5/ADC_SOUND_IN.c ****     }
 1013              		.loc 1 517 0
 1014 0058 0120     		movs	r0, #1
 1015              	.LVL87:
 531:.\Generated_Source\PSoC5/ADC_SOUND_IN.c **** 
 1016              		.loc 1 531 0
 1017 005a 10BD     		pop	{r4, pc}
 1018              	.LVL88:
 1019              	.L58:
 1020 005c AFF30080 		.align	3
 1021              	.L57:
 1022 0060 8F537424 		.word	611603343
 1023 0064 97FFFF3F 		.word	1073741719
 1024 0068 00000000 		.word	.LANCHOR1
 1025 006c 00000000 		.word	.LANCHOR0
 1026 0070 0C4E0040 		.word	1073761804
 1027              		.cfi_endproc
 1028              	.LFE6:
 1029              		.size	ADC_SOUND_IN_SetGCOR, .-ADC_SOUND_IN_SetGCOR
 1030 0074 AFF30080 		.section	.text.ADC_SOUND_IN_ReadGCOR,"ax",%progbits
 1031              		.align	2
 1032              		.global	ADC_SOUND_IN_ReadGCOR
 1033              		.thumb
 1034              		.thumb_func
 1035              		.type	ADC_SOUND_IN_ReadGCOR, %function
 1036              	ADC_SOUND_IN_ReadGCOR:
ARM GAS  C:\Users\YongY\AppData\Local\Temp\ccMwH7lk.s 			page 52


 1037              	.LFB7:
 553:.\Generated_Source\PSoC5/ADC_SOUND_IN.c ****     uint8 gValue;
 1038              		.loc 1 553 0
 1039              		.cfi_startproc
 1040              		@ args = 0, pretend = 0, frame = 0
 1041              		@ frame_needed = 0, uses_anonymous_args = 0
 1042              		@ link register save eliminated.
 557:.\Generated_Source\PSoC5/ADC_SOUND_IN.c ****     gcorValue = CY_GET_REG16(ADC_SOUND_IN_DEC_GCOR_16B_PTR);
 1043              		.loc 1 557 0
 1044 0000 064B     		ldr	r3, .L61
 1045 0002 1B78     		ldrb	r3, [r3]	@ zero_extendqisi2
 1046 0004 DBB2     		uxtb	r3, r3
 1047              	.LVL89:
 558:.\Generated_Source\PSoC5/ADC_SOUND_IN.c **** 
 1048              		.loc 1 558 0
 1049 0006 064A     		ldr	r2, .L61+4
 1050 0008 1088     		ldrh	r0, [r2]
 1051 000a 80B2     		uxth	r0, r0
 1052              	.LVL90:
 560:.\Generated_Source\PSoC5/ADC_SOUND_IN.c ****     {
 1053              		.loc 1 560 0
 1054 000c 0E2B     		cmp	r3, #14
 1055 000e 03D8     		bhi	.L60
 562:.\Generated_Source\PSoC5/ADC_SOUND_IN.c ****     }
 1056              		.loc 1 562 0
 1057 0010 C3F10F03 		rsb	r3, r3, #15
 1058              	.LVL91:
 1059 0014 9840     		lsls	r0, r0, r3
 1060              	.LVL92:
 1061 0016 80B2     		uxth	r0, r0
 1062              	.LVL93:
 1063              	.L60:
 566:.\Generated_Source\PSoC5/ADC_SOUND_IN.c **** 
 1064              		.loc 1 566 0
 1065 0018 7047     		bx	lr
 1066              	.L62:
 1067 001a 00BF     		.align	2
 1068              	.L61:
 1069 001c 0E4E0040 		.word	1073761806
 1070 0020 0C4E0040 		.word	1073761804
 1071              		.cfi_endproc
 1072              	.LFE7:
 1073              		.size	ADC_SOUND_IN_ReadGCOR, .-ADC_SOUND_IN_ReadGCOR
 1074              		.section	.text.ADC_SOUND_IN_StartConvert,"ax",%progbits
 1075              		.align	2
 1076              		.global	ADC_SOUND_IN_StartConvert
 1077              		.thumb
 1078              		.thumb_func
 1079              		.type	ADC_SOUND_IN_StartConvert, %function
 1080              	ADC_SOUND_IN_StartConvert:
 1081              	.LFB8:
 587:.\Generated_Source\PSoC5/ADC_SOUND_IN.c ****     /* Start the conversion */
 1082              		.loc 1 587 0
 1083              		.cfi_startproc
 1084              		@ args = 0, pretend = 0, frame = 0
 1085              		@ frame_needed = 0, uses_anonymous_args = 0
 1086              		@ link register save eliminated.
ARM GAS  C:\Users\YongY\AppData\Local\Temp\ccMwH7lk.s 			page 53


 589:.\Generated_Source\PSoC5/ADC_SOUND_IN.c **** }
 1087              		.loc 1 589 0
 1088 0000 024A     		ldr	r2, .L64
 1089 0002 1378     		ldrb	r3, [r2]	@ zero_extendqisi2
 1090 0004 43F00103 		orr	r3, r3, #1
 1091 0008 1370     		strb	r3, [r2]
 1092 000a 7047     		bx	lr
 1093              	.L65:
 1094              		.align	2
 1095              	.L64:
 1096 000c 004E0040 		.word	1073761792
 1097              		.cfi_endproc
 1098              	.LFE8:
 1099              		.size	ADC_SOUND_IN_StartConvert, .-ADC_SOUND_IN_StartConvert
 1100              		.section	.text.ADC_SOUND_IN_StopConvert,"ax",%progbits
 1101              		.align	2
 1102              		.global	ADC_SOUND_IN_StopConvert
 1103              		.thumb
 1104              		.thumb_func
 1105              		.type	ADC_SOUND_IN_StopConvert, %function
 1106              	ADC_SOUND_IN_StopConvert:
 1107              	.LFB9:
 610:.\Generated_Source\PSoC5/ADC_SOUND_IN.c ****     /* Stop all conversions */
 1108              		.loc 1 610 0
 1109              		.cfi_startproc
 1110              		@ args = 0, pretend = 0, frame = 0
 1111              		@ frame_needed = 0, uses_anonymous_args = 0
 1112              		@ link register save eliminated.
 612:.\Generated_Source\PSoC5/ADC_SOUND_IN.c **** }
 1113              		.loc 1 612 0
 1114 0000 024A     		ldr	r2, .L67
 1115 0002 1378     		ldrb	r3, [r2]	@ zero_extendqisi2
 1116 0004 03F0FE03 		and	r3, r3, #254
 1117 0008 1370     		strb	r3, [r2]
 1118 000a 7047     		bx	lr
 1119              	.L68:
 1120              		.align	2
 1121              	.L67:
 1122 000c 004E0040 		.word	1073761792
 1123              		.cfi_endproc
 1124              	.LFE9:
 1125              		.size	ADC_SOUND_IN_StopConvert, .-ADC_SOUND_IN_StopConvert
 1126              		.section	.text.ADC_SOUND_IN_IsEndConversion,"ax",%progbits
 1127              		.align	2
 1128              		.global	ADC_SOUND_IN_IsEndConversion
 1129              		.thumb
 1130              		.thumb_func
 1131              		.type	ADC_SOUND_IN_IsEndConversion, %function
 1132              	ADC_SOUND_IN_IsEndConversion:
 1133              	.LFB10:
 645:.\Generated_Source\PSoC5/ADC_SOUND_IN.c ****     uint8 status;
 1134              		.loc 1 645 0
 1135              		.cfi_startproc
 1136              		@ args = 0, pretend = 0, frame = 0
 1137              		@ frame_needed = 0, uses_anonymous_args = 0
 1138              		@ link register save eliminated.
 1139              	.LVL94:
ARM GAS  C:\Users\YongY\AppData\Local\Temp\ccMwH7lk.s 			page 54


 1140              	.L73:
 653:.\Generated_Source\PSoC5/ADC_SOUND_IN.c ****         {
 1141              		.loc 1 653 0
 1142 0000 094B     		ldr	r3, .L74
 1143 0002 1B79     		ldrb	r3, [r3, #4]	@ zero_extendqisi2
 1144 0004 13F0FF0F 		tst	r3, #255
 1145 0008 03D0     		beq	.L70
 655:.\Generated_Source\PSoC5/ADC_SOUND_IN.c ****         }
 1146              		.loc 1 655 0
 1147 000a 074B     		ldr	r3, .L74
 1148 000c 5B79     		ldrb	r3, [r3, #5]	@ zero_extendqisi2
 1149 000e DBB2     		uxtb	r3, r3
 1150              	.LVL95:
 1151 0010 03E0     		b	.L71
 1152              	.LVL96:
 1153              	.L70:
 659:.\Generated_Source\PSoC5/ADC_SOUND_IN.c ****         }
 1154              		.loc 1 659 0
 1155 0012 064B     		ldr	r3, .L74+4
 1156 0014 1B78     		ldrb	r3, [r3]	@ zero_extendqisi2
 1157 0016 03F00103 		and	r3, r3, #1
 1158              	.LVL97:
 1159              	.L71:
 661:.\Generated_Source\PSoC5/ADC_SOUND_IN.c **** 
 1160              		.loc 1 661 0
 1161 001a 012B     		cmp	r3, #1
 1162 001c 01D0     		beq	.L72
 661:.\Generated_Source\PSoC5/ADC_SOUND_IN.c **** 
 1163              		.loc 1 661 0 is_stmt 0 discriminator 1
 1164 001e 0028     		cmp	r0, #0
 1165 0020 EED0     		beq	.L73
 1166              	.L72:
 664:.\Generated_Source\PSoC5/ADC_SOUND_IN.c **** 
 1167              		.loc 1 664 0 is_stmt 1
 1168 0022 1846     		mov	r0, r3
 1169              	.LVL98:
 1170 0024 7047     		bx	lr
 1171              	.L75:
 1172 0026 00BF     		.align	2
 1173              	.L74:
 1174 0028 00000000 		.word	.LANCHOR0
 1175 002c 014E0040 		.word	1073761793
 1176              		.cfi_endproc
 1177              	.LFE10:
 1178              		.size	ADC_SOUND_IN_IsEndConversion, .-ADC_SOUND_IN_IsEndConversion
 1179              		.section	.text.ADC_SOUND_IN_GetResult8,"ax",%progbits
 1180              		.align	2
 1181              		.global	ADC_SOUND_IN_GetResult8
 1182              		.thumb
 1183              		.thumb_func
 1184              		.type	ADC_SOUND_IN_GetResult8, %function
 1185              	ADC_SOUND_IN_GetResult8:
 1186              	.LFB11:
 692:.\Generated_Source\PSoC5/ADC_SOUND_IN.c ****     int8 result;
 1187              		.loc 1 692 0
 1188              		.cfi_startproc
 1189              		@ args = 0, pretend = 0, frame = 0
ARM GAS  C:\Users\YongY\AppData\Local\Temp\ccMwH7lk.s 			page 55


 1190              		@ frame_needed = 0, uses_anonymous_args = 0
 1191              		@ link register save eliminated.
 697:.\Generated_Source\PSoC5/ADC_SOUND_IN.c **** 
 1192              		.loc 1 697 0
 1193 0000 0C4B     		ldr	r3, .L80
 1194 0002 1B78     		ldrb	r3, [r3]	@ zero_extendqisi2
 1195 0004 03F00303 		and	r3, r3, #3
 1196              	.LVL99:
 699:.\Generated_Source\PSoC5/ADC_SOUND_IN.c **** 
 1197              		.loc 1 699 0
 1198 0008 0B4A     		ldr	r2, .L80+4
 1199 000a 1078     		ldrb	r0, [r2]	@ zero_extendqisi2
 1200              	.LVL100:
 701:.\Generated_Source\PSoC5/ADC_SOUND_IN.c ****     {   /* Dummy read of the middle byte to unlock the coherency */
 1201              		.loc 1 701 0
 1202 000c 022B     		cmp	r3, #2
 1203 000e 02D1     		bne	.L77
 703:.\Generated_Source\PSoC5/ADC_SOUND_IN.c ****     }
 1204              		.loc 1 703 0
 1205 0010 0A4B     		ldr	r3, .L80+8
 1206              	.LVL101:
 1207 0012 1B78     		ldrb	r3, [r3]	@ zero_extendqisi2
 1208 0014 03E0     		b	.L78
 1209              	.LVL102:
 1210              	.L77:
 705:.\Generated_Source\PSoC5/ADC_SOUND_IN.c ****     {   /* Dummy read of the MSB byte to unlock the coherency */
 1211              		.loc 1 705 0
 1212 0016 032B     		cmp	r3, #3
 1213 0018 01D1     		bne	.L78
 707:.\Generated_Source\PSoC5/ADC_SOUND_IN.c ****     }
 1214              		.loc 1 707 0
 1215 001a 094B     		ldr	r3, .L80+12
 1216              	.LVL103:
 1217 001c 1B78     		ldrb	r3, [r3]	@ zero_extendqisi2
 1218              	.L78:
 713:.\Generated_Source\PSoC5/ADC_SOUND_IN.c ****     {
 1219              		.loc 1 713 0
 1220 001e 094B     		ldr	r3, .L80+16
 1221 0020 1B79     		ldrb	r3, [r3, #4]	@ zero_extendqisi2
 1222 0022 13F0FF0F 		tst	r3, #255
 1223 0026 02D0     		beq	.L79
 715:.\Generated_Source\PSoC5/ADC_SOUND_IN.c ****     }
 1224              		.loc 1 715 0
 1225 0028 0022     		movs	r2, #0
 1226 002a 064B     		ldr	r3, .L80+16
 1227 002c 5A71     		strb	r2, [r3, #5]
 1228              	.L79:
 718:.\Generated_Source\PSoC5/ADC_SOUND_IN.c **** 
 1229              		.loc 1 718 0
 1230 002e 40B2     		sxtb	r0, r0
 1231 0030 7047     		bx	lr
 1232              	.L81:
 1233 0032 00BF     		.align	2
 1234              	.L80:
 1235 0034 144E0040 		.word	1073761812
 1236 0038 104E0040 		.word	1073761808
 1237 003c 114E0040 		.word	1073761809
ARM GAS  C:\Users\YongY\AppData\Local\Temp\ccMwH7lk.s 			page 56


 1238 0040 124E0040 		.word	1073761810
 1239 0044 00000000 		.word	.LANCHOR0
 1240              		.cfi_endproc
 1241              	.LFE11:
 1242              		.size	ADC_SOUND_IN_GetResult8, .-ADC_SOUND_IN_GetResult8
 1243              		.section	.text.ADC_SOUND_IN_GetResult16,"ax",%progbits
 1244              		.align	2
 1245              		.global	ADC_SOUND_IN_GetResult16
 1246              		.thumb
 1247              		.thumb_func
 1248              		.type	ADC_SOUND_IN_GetResult16, %function
 1249              	ADC_SOUND_IN_GetResult16:
 1250              	.LFB12:
 746:.\Generated_Source\PSoC5/ADC_SOUND_IN.c ****     uint16 result;
 1251              		.loc 1 746 0
 1252              		.cfi_startproc
 1253              		@ args = 0, pretend = 0, frame = 0
 1254              		@ frame_needed = 0, uses_anonymous_args = 0
 1255              		@ link register save eliminated.
 751:.\Generated_Source\PSoC5/ADC_SOUND_IN.c **** 
 1256              		.loc 1 751 0
 1257 0000 0E4B     		ldr	r3, .L86
 1258 0002 1B78     		ldrb	r3, [r3]	@ zero_extendqisi2
 1259 0004 03F00303 		and	r3, r3, #3
 1260              	.LVL104:
 753:.\Generated_Source\PSoC5/ADC_SOUND_IN.c ****     {   /*  Use default method to read result registers i.e. LSB byte read at the end*/
 1261              		.loc 1 753 0
 1262 0008 012B     		cmp	r3, #1
 1263 000a 03D8     		bhi	.L83
 759:.\Generated_Source\PSoC5/ADC_SOUND_IN.c ****         #endif /* CY_PSOC3 */
 1264              		.loc 1 759 0
 1265 000c 0C4B     		ldr	r3, .L86+4
 1266              	.LVL105:
 1267 000e 1888     		ldrh	r0, [r3]
 1268 0010 80B2     		uxth	r0, r0
 1269              	.LVL106:
 1270 0012 09E0     		b	.L84
 1271              	.LVL107:
 1272              	.L83:
 767:.\Generated_Source\PSoC5/ADC_SOUND_IN.c ****             result |=  (uint16)((uint16)ADC_SOUND_IN_DEC_SAMPM_REG << 8u);
 1273              		.loc 1 767 0
 1274 0014 0A4A     		ldr	r2, .L86+4
 1275 0016 1278     		ldrb	r2, [r2]	@ zero_extendqisi2
 1276              	.LVL108:
 768:.\Generated_Source\PSoC5/ADC_SOUND_IN.c ****         #endif /* CY_PSOC3 */
 1277              		.loc 1 768 0
 1278 0018 0A49     		ldr	r1, .L86+8
 1279 001a 0878     		ldrb	r0, [r1]	@ zero_extendqisi2
 1280 001c 42EA0020 		orr	r0, r2, r0, lsl #8
 1281              	.LVL109:
 770:.\Generated_Source\PSoC5/ADC_SOUND_IN.c ****         {   /* Dummy read of the MSB byte to unlock the coherency */
 1282              		.loc 1 770 0
 1283 0020 032B     		cmp	r3, #3
 1284 0022 01D1     		bne	.L84
 772:.\Generated_Source\PSoC5/ADC_SOUND_IN.c ****         }
 1285              		.loc 1 772 0
 1286 0024 084B     		ldr	r3, .L86+12
ARM GAS  C:\Users\YongY\AppData\Local\Temp\ccMwH7lk.s 			page 57


 1287              	.LVL110:
 1288 0026 1B78     		ldrb	r3, [r3]	@ zero_extendqisi2
 1289              	.L84:
 776:.\Generated_Source\PSoC5/ADC_SOUND_IN.c ****     {
 1290              		.loc 1 776 0
 1291 0028 084B     		ldr	r3, .L86+16
 1292 002a 1B79     		ldrb	r3, [r3, #4]	@ zero_extendqisi2
 1293 002c 13F0FF0F 		tst	r3, #255
 1294 0030 02D0     		beq	.L85
 778:.\Generated_Source\PSoC5/ADC_SOUND_IN.c ****     }
 1295              		.loc 1 778 0
 1296 0032 0022     		movs	r2, #0
 1297 0034 054B     		ldr	r3, .L86+16
 1298 0036 5A71     		strb	r2, [r3, #5]
 1299              	.L85:
 782:.\Generated_Source\PSoC5/ADC_SOUND_IN.c **** 
 1300              		.loc 1 782 0
 1301 0038 00B2     		sxth	r0, r0
 1302 003a 7047     		bx	lr
 1303              	.L87:
 1304              		.align	2
 1305              	.L86:
 1306 003c 144E0040 		.word	1073761812
 1307 0040 104E0040 		.word	1073761808
 1308 0044 114E0040 		.word	1073761809
 1309 0048 124E0040 		.word	1073761810
 1310 004c 00000000 		.word	.LANCHOR0
 1311              		.cfi_endproc
 1312              	.LFE12:
 1313              		.size	ADC_SOUND_IN_GetResult16, .-ADC_SOUND_IN_GetResult16
 1314              		.section	.text.ADC_SOUND_IN_GetResult32,"ax",%progbits
 1315              		.align	2
 1316              		.global	ADC_SOUND_IN_GetResult32
 1317              		.thumb
 1318              		.thumb_func
 1319              		.type	ADC_SOUND_IN_GetResult32, %function
 1320              	ADC_SOUND_IN_GetResult32:
 1321              	.LFB13:
 806:.\Generated_Source\PSoC5/ADC_SOUND_IN.c ****     uint32 result;
 1322              		.loc 1 806 0
 1323              		.cfi_startproc
 1324              		@ args = 0, pretend = 0, frame = 0
 1325              		@ frame_needed = 0, uses_anonymous_args = 0
 1326              		@ link register save eliminated.
 814:.\Generated_Source\PSoC5/ADC_SOUND_IN.c **** 
 1327              		.loc 1 814 0
 1328 0000 154B     		ldr	r3, .L93
 1329 0002 1B78     		ldrb	r3, [r3]	@ zero_extendqisi2
 1330 0004 03F00303 		and	r3, r3, #3
 1331              	.LVL111:
 816:.\Generated_Source\PSoC5/ADC_SOUND_IN.c ****     {   /*  Use default method to read result registers i.e. LSB byte read at the end*/
 1332              		.loc 1 816 0
 1333 0008 012B     		cmp	r3, #1
 1334 000a 07D8     		bhi	.L89
 827:.\Generated_Source\PSoC5/ADC_SOUND_IN.c ****             result = (result << 16u) | (CY_GET_REG16(ADC_SOUND_IN_DEC_SAMP_16B_PTR));
 1335              		.loc 1 827 0
 1336 000c 134B     		ldr	r3, .L93+4
ARM GAS  C:\Users\YongY\AppData\Local\Temp\ccMwH7lk.s 			page 58


 1337              	.LVL112:
 1338 000e 1888     		ldrh	r0, [r3]
 1339              	.LVL113:
 828:.\Generated_Source\PSoC5/ADC_SOUND_IN.c ****         #endif /* CY_PSOC3 */
 1340              		.loc 1 828 0
 1341 0010 023B     		subs	r3, r3, #2
 1342 0012 1B88     		ldrh	r3, [r3]
 1343 0014 9BB2     		uxth	r3, r3
 1344 0016 43EA0040 		orr	r0, r3, r0, lsl #16
 1345              	.LVL114:
 1346 001a 13E0     		b	.L90
 1347              	.LVL115:
 1348              	.L89:
 831:.\Generated_Source\PSoC5/ADC_SOUND_IN.c ****     {   /* Read middle byte at the end */
 1349              		.loc 1 831 0
 1350 001c 022B     		cmp	r3, #2
 1351 001e 0AD1     		bne	.L91
 841:.\Generated_Source\PSoC5/ADC_SOUND_IN.c ****             result = (result << 16u) | ADC_SOUND_IN_DEC_SAMP_REG;
 1352              		.loc 1 841 0
 1353 0020 0E4B     		ldr	r3, .L93+4
 1354              	.LVL116:
 1355 0022 1888     		ldrh	r0, [r3]
 1356              	.LVL117:
 842:.\Generated_Source\PSoC5/ADC_SOUND_IN.c ****             result |=  (uint32)((uint32)ADC_SOUND_IN_DEC_SAMPM_REG << 8u);
 1357              		.loc 1 842 0
 1358 0024 023B     		subs	r3, r3, #2
 1359 0026 1B78     		ldrb	r3, [r3]	@ zero_extendqisi2
 1360 0028 43EA0043 		orr	r3, r3, r0, lsl #16
 1361              	.LVL118:
 843:.\Generated_Source\PSoC5/ADC_SOUND_IN.c ****         #endif /* CY_PSOC3 */
 1362              		.loc 1 843 0
 1363 002c 0C4A     		ldr	r2, .L93+8
 1364 002e 1078     		ldrb	r0, [r2]	@ zero_extendqisi2
 1365 0030 43EA0020 		orr	r0, r3, r0, lsl #8
 1366              	.LVL119:
 1367 0034 06E0     		b	.L90
 1368              	.LVL120:
 1369              	.L91:
 858:.\Generated_Source\PSoC5/ADC_SOUND_IN.c ****             result |= (uint32)((uint32)CY_GET_REG16(ADC_SOUND_IN_DEC_SAMPH_16B_PTR) << 16u);
 1370              		.loc 1 858 0
 1371 0036 0B4B     		ldr	r3, .L93+12
 1372              	.LVL121:
 1373 0038 1888     		ldrh	r0, [r3]
 1374 003a 83B2     		uxth	r3, r0
 1375              	.LVL122:
 859:.\Generated_Source\PSoC5/ADC_SOUND_IN.c ****         #endif /* CY_PSOC3 */
 1376              		.loc 1 859 0
 1377 003c 074A     		ldr	r2, .L93+4
 1378 003e 1088     		ldrh	r0, [r2]
 1379 0040 43EA0040 		orr	r0, r3, r0, lsl #16
 1380              	.LVL123:
 1381              	.L90:
 863:.\Generated_Source\PSoC5/ADC_SOUND_IN.c ****     {
 1382              		.loc 1 863 0
 1383 0044 084B     		ldr	r3, .L93+16
 1384 0046 1B79     		ldrb	r3, [r3, #4]	@ zero_extendqisi2
 1385 0048 13F0FF0F 		tst	r3, #255
ARM GAS  C:\Users\YongY\AppData\Local\Temp\ccMwH7lk.s 			page 59


 1386 004c 02D0     		beq	.L92
 865:.\Generated_Source\PSoC5/ADC_SOUND_IN.c ****     }
 1387              		.loc 1 865 0
 1388 004e 0022     		movs	r2, #0
 1389 0050 054B     		ldr	r3, .L93+16
 1390 0052 5A71     		strb	r2, [r3, #5]
 1391              	.L92:
 869:.\Generated_Source\PSoC5/ADC_SOUND_IN.c **** 
 1392              		.loc 1 869 0
 1393 0054 7047     		bx	lr
 1394              	.L94:
 1395 0056 00BF     		.align	2
 1396              	.L93:
 1397 0058 144E0040 		.word	1073761812
 1398 005c 124E0040 		.word	1073761810
 1399 0060 114E0040 		.word	1073761809
 1400 0064 104E0040 		.word	1073761808
 1401 0068 00000000 		.word	.LANCHOR0
 1402              		.cfi_endproc
 1403              	.LFE13:
 1404              		.size	ADC_SOUND_IN_GetResult32, .-ADC_SOUND_IN_GetResult32
 1405              		.section	.text.ADC_SOUND_IN_SetOffset,"ax",%progbits
 1406              		.align	2
 1407              		.global	ADC_SOUND_IN_SetOffset
 1408              		.thumb
 1409              		.thumb_func
 1410              		.type	ADC_SOUND_IN_SetOffset, %function
 1411              	ADC_SOUND_IN_SetOffset:
 1412              	.LFB14:
 899:.\Generated_Source\PSoC5/ADC_SOUND_IN.c **** 
 1413              		.loc 1 899 0
 1414              		.cfi_startproc
 1415              		@ args = 0, pretend = 0, frame = 0
 1416              		@ frame_needed = 0, uses_anonymous_args = 0
 1417              		@ link register save eliminated.
 1418              	.LVL124:
 901:.\Generated_Source\PSoC5/ADC_SOUND_IN.c **** }
 1419              		.loc 1 901 0
 1420 0000 014B     		ldr	r3, .L96
 1421 0002 1860     		str	r0, [r3]
 1422 0004 7047     		bx	lr
 1423              	.L97:
 1424 0006 00BF     		.align	2
 1425              	.L96:
 1426 0008 00000000 		.word	ADC_SOUND_IN_Offset
 1427              		.cfi_endproc
 1428              	.LFE14:
 1429              		.size	ADC_SOUND_IN_SetOffset, .-ADC_SOUND_IN_SetOffset
 1430              		.section	.text.ADC_SOUND_IN_SetGain,"ax",%progbits
 1431              		.align	2
 1432              		.global	ADC_SOUND_IN_SetGain
 1433              		.thumb
 1434              		.thumb_func
 1435              		.type	ADC_SOUND_IN_SetGain, %function
 1436              	ADC_SOUND_IN_SetGain:
 1437              	.LFB15:
 934:.\Generated_Source\PSoC5/ADC_SOUND_IN.c ****     ADC_SOUND_IN_CountsPerVolt = adcGain;
ARM GAS  C:\Users\YongY\AppData\Local\Temp\ccMwH7lk.s 			page 60


 1438              		.loc 1 934 0
 1439              		.cfi_startproc
 1440              		@ args = 0, pretend = 0, frame = 0
 1441              		@ frame_needed = 0, uses_anonymous_args = 0
 1442              		@ link register save eliminated.
 1443              	.LVL125:
 935:.\Generated_Source\PSoC5/ADC_SOUND_IN.c **** }
 1444              		.loc 1 935 0
 1445 0000 014B     		ldr	r3, .L99
 1446 0002 1860     		str	r0, [r3]
 1447 0004 7047     		bx	lr
 1448              	.L100:
 1449 0006 00BF     		.align	2
 1450              	.L99:
 1451 0008 00000000 		.word	ADC_SOUND_IN_CountsPerVolt
 1452              		.cfi_endproc
 1453              	.LFE15:
 1454              		.size	ADC_SOUND_IN_SetGain, .-ADC_SOUND_IN_SetGain
 1455              		.section	.text.ADC_SOUND_IN_CountsTo_mVolts,"ax",%progbits
 1456              		.align	2
 1457              		.global	ADC_SOUND_IN_CountsTo_mVolts
 1458              		.thumb
 1459              		.thumb_func
 1460              		.type	ADC_SOUND_IN_CountsTo_mVolts, %function
 1461              	ADC_SOUND_IN_CountsTo_mVolts:
 1462              	.LFB16:
 961:.\Generated_Source\PSoC5/ADC_SOUND_IN.c **** 
 1463              		.loc 1 961 0
 1464              		.cfi_startproc
 1465              		@ args = 0, pretend = 0, frame = 0
 1466              		@ frame_needed = 0, uses_anonymous_args = 0
 1467              		@ link register save eliminated.
 1468              	.LVL126:
 992:.\Generated_Source\PSoC5/ADC_SOUND_IN.c **** 
 1469              		.loc 1 992 0
 1470 0000 064B     		ldr	r3, .L102
 1471 0002 1B68     		ldr	r3, [r3]
 1472 0004 C01A     		subs	r0, r0, r3
 1473              	.LVL127:
 994:.\Generated_Source\PSoC5/ADC_SOUND_IN.c **** 
 1474              		.loc 1 994 0
 1475 0006 4FF47A73 		mov	r3, #1000
 1476 000a 03FB00F0 		mul	r0, r3, r0
 1477              	.LVL128:
 1478 000e 044B     		ldr	r3, .L102+4
 1479 0010 1B68     		ldr	r3, [r3]
 1480 0012 90FBF3F0 		sdiv	r0, r0, r3
 1481              	.LVL129:
 997:.\Generated_Source\PSoC5/ADC_SOUND_IN.c **** 
 1482              		.loc 1 997 0
 1483 0016 00B2     		sxth	r0, r0
 1484 0018 7047     		bx	lr
 1485              	.L103:
 1486 001a 00BF     		.align	2
 1487              	.L102:
 1488 001c 00000000 		.word	ADC_SOUND_IN_Offset
 1489 0020 00000000 		.word	ADC_SOUND_IN_CountsPerVolt
ARM GAS  C:\Users\YongY\AppData\Local\Temp\ccMwH7lk.s 			page 61


 1490              		.cfi_endproc
 1491              	.LFE16:
 1492              		.size	ADC_SOUND_IN_CountsTo_mVolts, .-ADC_SOUND_IN_CountsTo_mVolts
 1493              		.global	__aeabi_i2f
 1494              		.global	__aeabi_fdiv
 1495              		.section	.text.ADC_SOUND_IN_CountsTo_Volts,"ax",%progbits
 1496              		.align	2
 1497              		.global	ADC_SOUND_IN_CountsTo_Volts
 1498              		.thumb
 1499              		.thumb_func
 1500              		.type	ADC_SOUND_IN_CountsTo_Volts, %function
 1501              	ADC_SOUND_IN_CountsTo_Volts:
 1502              	.LFB17:
1022:.\Generated_Source\PSoC5/ADC_SOUND_IN.c **** 
 1503              		.loc 1 1022 0
 1504              		.cfi_startproc
 1505              		@ args = 0, pretend = 0, frame = 0
 1506              		@ frame_needed = 0, uses_anonymous_args = 0
 1507              	.LVL130:
 1508 0000 10B5     		push	{r4, lr}
 1509              		.cfi_def_cfa_offset 8
 1510              		.cfi_offset 4, -8
 1511              		.cfi_offset 14, -4
1053:.\Generated_Source\PSoC5/ADC_SOUND_IN.c **** 
 1512              		.loc 1 1053 0
 1513 0002 074B     		ldr	r3, .L106
 1514 0004 1B68     		ldr	r3, [r3]
 1515              	.LVL131:
1055:.\Generated_Source\PSoC5/ADC_SOUND_IN.c **** 
 1516              		.loc 1 1055 0
 1517 0006 C01A     		subs	r0, r0, r3
 1518              	.LVL132:
 1519 0008 FFF7FEFF 		bl	__aeabi_i2f
 1520              	.LVL133:
 1521 000c 0446     		mov	r4, r0
 1522 000e 054B     		ldr	r3, .L106+4
 1523 0010 1868     		ldr	r0, [r3]
 1524 0012 FFF7FEFF 		bl	__aeabi_i2f
 1525              	.LVL134:
 1526 0016 0146     		mov	r1, r0
 1527 0018 2046     		mov	r0, r4
 1528 001a FFF7FEFF 		bl	__aeabi_fdiv
 1529              	.LVL135:
1058:.\Generated_Source\PSoC5/ADC_SOUND_IN.c **** 
 1530              		.loc 1 1058 0
 1531 001e 10BD     		pop	{r4, pc}
 1532              	.L107:
 1533              		.align	2
 1534              	.L106:
 1535 0020 00000000 		.word	ADC_SOUND_IN_Offset
 1536 0024 00000000 		.word	ADC_SOUND_IN_CountsPerVolt
 1537              		.cfi_endproc
 1538              	.LFE17:
 1539              		.size	ADC_SOUND_IN_CountsTo_Volts, .-ADC_SOUND_IN_CountsTo_Volts
 1540              		.section	.text.ADC_SOUND_IN_CountsTo_uVolts,"ax",%progbits
 1541              		.align	2
 1542              		.global	ADC_SOUND_IN_CountsTo_uVolts
ARM GAS  C:\Users\YongY\AppData\Local\Temp\ccMwH7lk.s 			page 62


 1543              		.thumb
 1544              		.thumb_func
 1545              		.type	ADC_SOUND_IN_CountsTo_uVolts, %function
 1546              	ADC_SOUND_IN_CountsTo_uVolts:
 1547              	.LFB18:
1088:.\Generated_Source\PSoC5/ADC_SOUND_IN.c **** 
 1548              		.loc 1 1088 0
 1549              		.cfi_startproc
 1550              		@ args = 0, pretend = 0, frame = 0
 1551              		@ frame_needed = 0, uses_anonymous_args = 0
 1552              		@ link register save eliminated.
 1553              	.LVL136:
 1554 0000 10B4     		push	{r4}
 1555              		.cfi_def_cfa_offset 4
 1556              		.cfi_offset 4, -4
1097:.\Generated_Source\PSoC5/ADC_SOUND_IN.c ****     {
 1557              		.loc 1 1097 0
 1558 0002 184B     		ldr	r3, .L118
 1559 0004 1B78     		ldrb	r3, [r3]	@ zero_extendqisi2
 1560 0006 DBB2     		uxtb	r3, r3
 1561 0008 012B     		cmp	r3, #1
 1562 000a 08D0     		beq	.L113
1104:.\Generated_Source\PSoC5/ADC_SOUND_IN.c ****     {
 1563              		.loc 1 1104 0
 1564 000c 154B     		ldr	r3, .L118
 1565 000e 1B78     		ldrb	r3, [r3]	@ zero_extendqisi2
 1566 0010 DBB2     		uxtb	r3, r3
 1567 0012 022B     		cmp	r3, #2
 1568 0014 05D0     		beq	.L114
1111:.\Generated_Source\PSoC5/ADC_SOUND_IN.c ****     {
 1569              		.loc 1 1111 0
 1570 0016 134B     		ldr	r3, .L118
 1571 0018 1B78     		ldrb	r3, [r3]	@ zero_extendqisi2
1113:.\Generated_Source\PSoC5/ADC_SOUND_IN.c ****         #if(ADC_SOUND_IN_CFG3_DEC_DIV != 0)
 1572              		.loc 1 1113 0
 1573 001a 1023     		movs	r3, #16
 1574 001c 02E0     		b	.L109
 1575              	.L113:
1099:.\Generated_Source\PSoC5/ADC_SOUND_IN.c ****         #if(ADC_SOUND_IN_CFG1_DEC_DIV != 0)
 1576              		.loc 1 1099 0
 1577 001e 0C23     		movs	r3, #12
 1578 0020 00E0     		b	.L109
 1579              	.L114:
1106:.\Generated_Source\PSoC5/ADC_SOUND_IN.c ****         #if(ADC_SOUND_IN_CFG2_DEC_DIV != 0)
 1580              		.loc 1 1106 0
 1581 0022 1023     		movs	r3, #16
 1582              	.L109:
 1583              	.LVL137:
1126:.\Generated_Source\PSoC5/ADC_SOUND_IN.c ****     {
 1584              		.loc 1 1126 0
 1585 0024 0C2B     		cmp	r3, #12
 1586 0026 02D0     		beq	.L111
 1587 0028 102B     		cmp	r3, #16
 1588 002a 06D0     		beq	.L115
 1589 002c 02E0     		b	.L116
 1590              	.L111:
1134:.\Generated_Source\PSoC5/ADC_SOUND_IN.c ****                 break;
ARM GAS  C:\Users\YongY\AppData\Local\Temp\ccMwH7lk.s 			page 63


 1591              		.loc 1 1134 0
 1592 002e 0221     		movs	r1, #2
1133:.\Generated_Source\PSoC5/ADC_SOUND_IN.c ****                 coefB = ADC_SOUND_IN_DIVISOR_2;
 1593              		.loc 1 1133 0
 1594 0030 0D4C     		ldr	r4, .L118+4
 1595 0032 05E0     		b	.L112
 1596              	.L116:
 1597              	.LVL138:
1212:.\Generated_Source\PSoC5/ADC_SOUND_IN.c ****             break;
 1598              		.loc 1 1212 0
 1599 0034 0121     		movs	r1, #1
1211:.\Generated_Source\PSoC5/ADC_SOUND_IN.c ****             coefB = ADC_SOUND_IN_DIVISOR_1;
 1600              		.loc 1 1211 0
 1601 0036 0D4C     		ldr	r4, .L118+8
1213:.\Generated_Source\PSoC5/ADC_SOUND_IN.c ****     }
 1602              		.loc 1 1213 0
 1603 0038 02E0     		b	.L112
 1604              	.LVL139:
 1605              	.L115:
1170:.\Generated_Source\PSoC5/ADC_SOUND_IN.c ****                 break;
 1606              		.loc 1 1170 0
 1607 003a 2021     		movs	r1, #32
1169:.\Generated_Source\PSoC5/ADC_SOUND_IN.c ****                 coefB = ADC_SOUND_IN_DIVISOR_32;
 1608              		.loc 1 1169 0
 1609 003c 47F61224 		movw	r4, #31250
 1610              	.L112:
 1611              	.LVL140:
1215:.\Generated_Source\PSoC5/ADC_SOUND_IN.c ****     uVolts = ((coefA * adcCounts) / coefB) - ((coefA * ADC_SOUND_IN_Offset) / coefB);
 1612              		.loc 1 1215 0
 1613 0040 0B4B     		ldr	r3, .L118+12
 1614              	.LVL141:
 1615 0042 1B68     		ldr	r3, [r3]
 1616 0044 93FBF1F1 		sdiv	r1, r3, r1
 1617              	.LVL142:
1216:.\Generated_Source\PSoC5/ADC_SOUND_IN.c **** 
 1618              		.loc 1 1216 0
 1619 0048 00FB04F0 		mul	r0, r0, r4
 1620              	.LVL143:
 1621 004c 90FBF1F3 		sdiv	r3, r0, r1
 1622 0050 084A     		ldr	r2, .L118+16
 1623 0052 1268     		ldr	r2, [r2]
 1624 0054 02FB04F2 		mul	r2, r2, r4
 1625 0058 92FBF1F0 		sdiv	r0, r2, r1
 1626              	.LVL144:
1219:.\Generated_Source\PSoC5/ADC_SOUND_IN.c **** 
 1627              		.loc 1 1219 0
 1628 005c 181A     		subs	r0, r3, r0
 1629              	.LVL145:
 1630 005e 5DF8044B 		ldr	r4, [sp], #4
 1631              		.cfi_restore 4
 1632              		.cfi_def_cfa_offset 0
 1633              	.LVL146:
 1634 0062 7047     		bx	lr
 1635              	.L119:
 1636              		.align	2
 1637              	.L118:
 1638 0064 00000000 		.word	.LANCHOR1
ARM GAS  C:\Users\YongY\AppData\Local\Temp\ccMwH7lk.s 			page 64


 1639 0068 20A10700 		.word	500000
 1640 006c 40420F00 		.word	1000000
 1641 0070 00000000 		.word	ADC_SOUND_IN_CountsPerVolt
 1642 0074 00000000 		.word	ADC_SOUND_IN_Offset
 1643              		.cfi_endproc
 1644              	.LFE18:
 1645              		.size	ADC_SOUND_IN_CountsTo_uVolts, .-ADC_SOUND_IN_CountsTo_uVolts
 1646              		.section	.text.ADC_SOUND_IN_SelectConfiguration,"ax",%progbits
 1647              		.align	2
 1648              		.global	ADC_SOUND_IN_SelectConfiguration
 1649              		.thumb
 1650              		.thumb_func
 1651              		.type	ADC_SOUND_IN_SelectConfiguration, %function
 1652              	ADC_SOUND_IN_SelectConfiguration:
 1653              	.LFB20:
1554:.\Generated_Source\PSoC5/ADC_SOUND_IN.c ****     /* Check whether the configuration number is valid or not */
 1654              		.loc 1 1554 0
 1655              		.cfi_startproc
 1656              		@ args = 0, pretend = 0, frame = 0
 1657              		@ frame_needed = 0, uses_anonymous_args = 0
 1658              	.LVL147:
 1659 0000 38B5     		push	{r3, r4, r5, lr}
 1660              		.cfi_def_cfa_offset 16
 1661              		.cfi_offset 3, -16
 1662              		.cfi_offset 4, -12
 1663              		.cfi_offset 5, -8
 1664              		.cfi_offset 14, -4
 1665 0002 0446     		mov	r4, r0
1556:.\Generated_Source\PSoC5/ADC_SOUND_IN.c ****     {
 1666              		.loc 1 1556 0
 1667 0004 0128     		cmp	r0, #1
 1668 0006 1FD1     		bne	.L121
 1669 0008 0D46     		mov	r5, r1
1561:.\Generated_Source\PSoC5/ADC_SOUND_IN.c ****         {
 1670              		.loc 1 1561 0
 1671 000a 114B     		ldr	r3, .L125
 1672 000c 9B79     		ldrb	r3, [r3, #6]	@ zero_extendqisi2
 1673 000e 13B9     		cbnz	r3, .L122
1563:.\Generated_Source\PSoC5/ADC_SOUND_IN.c ****         }
 1674              		.loc 1 1563 0
 1675 0010 0122     		movs	r2, #1
 1676 0012 0F4B     		ldr	r3, .L125
 1677 0014 DA71     		strb	r2, [r3, #7]
 1678              	.L122:
1567:.\Generated_Source\PSoC5/ADC_SOUND_IN.c **** 
 1679              		.loc 1 1567 0
 1680 0016 0F4B     		ldr	r3, .L125+4
 1681 0018 1C70     		strb	r4, [r3]
1570:.\Generated_Source\PSoC5/ADC_SOUND_IN.c **** 
 1682              		.loc 1 1570 0
 1683 001a FFF7FEFF 		bl	ADC_SOUND_IN_Stop
 1684              	.LVL148:
1573:.\Generated_Source\PSoC5/ADC_SOUND_IN.c **** 
 1685              		.loc 1 1573 0
 1686 001e 2046     		mov	r0, r4
 1687 0020 FFF7FEFF 		bl	ADC_SOUND_IN_InitConfig
 1688              	.LVL149:
ARM GAS  C:\Users\YongY\AppData\Local\Temp\ccMwH7lk.s 			page 65


1576:.\Generated_Source\PSoC5/ADC_SOUND_IN.c ****         CY_SET_REG16(ADC_SOUND_IN_DEC_GCOR_16B_PTR, ADC_SOUND_IN_gcor[config - 1u].gcor);
 1689              		.loc 1 1576 0
 1690 0024 013C     		subs	r4, r4, #1
 1691 0026 0A4B     		ldr	r3, .L125
 1692 0028 03EB8402 		add	r2, r3, r4, lsl #2
 1693 002c 9178     		ldrb	r1, [r2, #2]	@ zero_extendqisi2
 1694 002e 0A4A     		ldr	r2, .L125+8
 1695 0030 1170     		strb	r1, [r2]
1577:.\Generated_Source\PSoC5/ADC_SOUND_IN.c **** 
 1696              		.loc 1 1577 0
 1697 0032 33F82420 		ldrh	r2, [r3, r4, lsl #2]
 1698 0036 094B     		ldr	r3, .L125+12
 1699 0038 1A80     		strh	r2, [r3]	@ movhi
1579:.\Generated_Source\PSoC5/ADC_SOUND_IN.c ****         {
 1700              		.loc 1 1579 0
 1701 003a 012D     		cmp	r5, #1
 1702 003c 07D1     		bne	.L120
1582:.\Generated_Source\PSoC5/ADC_SOUND_IN.c **** 
 1703              		.loc 1 1582 0
 1704 003e FFF7FEFF 		bl	ADC_SOUND_IN_Start
 1705              	.LVL150:
1585:.\Generated_Source\PSoC5/ADC_SOUND_IN.c ****         }
 1706              		.loc 1 1585 0
 1707 0042 FFF7FEFF 		bl	ADC_SOUND_IN_StartConvert
 1708              	.LVL151:
 1709 0046 38BD     		pop	{r3, r4, r5, pc}
 1710              	.LVL152:
 1711              	.L121:
1591:.\Generated_Source\PSoC5/ADC_SOUND_IN.c ****     }
 1712              		.loc 1 1591 0 discriminator 1
 1713 0048 0020     		movs	r0, #0
 1714              	.LVL153:
 1715 004a FFF7FEFF 		bl	CyHalt
 1716              	.LVL154:
 1717              	.L120:
 1718 004e 38BD     		pop	{r3, r4, r5, pc}
 1719              	.L126:
 1720              		.align	2
 1721              	.L125:
 1722 0050 00000000 		.word	.LANCHOR0
 1723 0054 00000000 		.word	.LANCHOR1
 1724 0058 0E4E0040 		.word	1073761806
 1725 005c 0C4E0040 		.word	1073761804
 1726              		.cfi_endproc
 1727              	.LFE20:
 1728              		.size	ADC_SOUND_IN_SelectConfiguration, .-ADC_SOUND_IN_SelectConfiguration
 1729              		.section	.text.ADC_SOUND_IN_Read8,"ax",%progbits
 1730              		.align	2
 1731              		.global	ADC_SOUND_IN_Read8
 1732              		.thumb
 1733              		.thumb_func
 1734              		.type	ADC_SOUND_IN_Read8, %function
 1735              	ADC_SOUND_IN_Read8:
 1736              	.LFB23:
1741:.\Generated_Source\PSoC5/ADC_SOUND_IN.c **** }
1742:.\Generated_Source\PSoC5/ADC_SOUND_IN.c **** 
1743:.\Generated_Source\PSoC5/ADC_SOUND_IN.c **** 
ARM GAS  C:\Users\YongY\AppData\Local\Temp\ccMwH7lk.s 			page 66


1744:.\Generated_Source\PSoC5/ADC_SOUND_IN.c **** /*******************************************************************************
1745:.\Generated_Source\PSoC5/ADC_SOUND_IN.c **** * Function Name: ADC_SOUND_IN_Read8
1746:.\Generated_Source\PSoC5/ADC_SOUND_IN.c **** ********************************************************************************
1747:.\Generated_Source\PSoC5/ADC_SOUND_IN.c **** *
1748:.\Generated_Source\PSoC5/ADC_SOUND_IN.c **** * Summary:
1749:.\Generated_Source\PSoC5/ADC_SOUND_IN.c **** *  This function simplifies getting results from the ADC when only a
1750:.\Generated_Source\PSoC5/ADC_SOUND_IN.c **** *  single reading is required. When called, it will start ADC
1751:.\Generated_Source\PSoC5/ADC_SOUND_IN.c **** *  conversions, wait for the conversion to be complete, stop ADC
1752:.\Generated_Source\PSoC5/ADC_SOUND_IN.c **** *  conversion and return the result. This is a blocking function and will
1753:.\Generated_Source\PSoC5/ADC_SOUND_IN.c **** *  not return until the result is ready.
1754:.\Generated_Source\PSoC5/ADC_SOUND_IN.c **** *
1755:.\Generated_Source\PSoC5/ADC_SOUND_IN.c **** * Parameters:
1756:.\Generated_Source\PSoC5/ADC_SOUND_IN.c **** *  None
1757:.\Generated_Source\PSoC5/ADC_SOUND_IN.c **** *
1758:.\Generated_Source\PSoC5/ADC_SOUND_IN.c **** * Return:
1759:.\Generated_Source\PSoC5/ADC_SOUND_IN.c **** *  int8:  ADC result.
1760:.\Generated_Source\PSoC5/ADC_SOUND_IN.c **** *
1761:.\Generated_Source\PSoC5/ADC_SOUND_IN.c **** *******************************************************************************/
1762:.\Generated_Source\PSoC5/ADC_SOUND_IN.c **** int8 ADC_SOUND_IN_Read8(void) 
1763:.\Generated_Source\PSoC5/ADC_SOUND_IN.c **** {
 1737              		.loc 1 1763 0
 1738              		.cfi_startproc
 1739              		@ args = 0, pretend = 0, frame = 0
 1740              		@ frame_needed = 0, uses_anonymous_args = 0
 1741 0000 10B5     		push	{r4, lr}
 1742              		.cfi_def_cfa_offset 8
 1743              		.cfi_offset 4, -8
 1744              		.cfi_offset 14, -4
1764:.\Generated_Source\PSoC5/ADC_SOUND_IN.c ****     int8 result;
1765:.\Generated_Source\PSoC5/ADC_SOUND_IN.c **** 
1766:.\Generated_Source\PSoC5/ADC_SOUND_IN.c ****     /* Clear pending conversion done status */
1767:.\Generated_Source\PSoC5/ADC_SOUND_IN.c ****     ADC_SOUND_IN_DEC_SR_REG |= ADC_SOUND_IN_DEC_INTR_CLEAR;
 1745              		.loc 1 1767 0
 1746 0002 084A     		ldr	r2, .L129
 1747 0004 1378     		ldrb	r3, [r2]	@ zero_extendqisi2
 1748 0006 43F00403 		orr	r3, r3, #4
 1749 000a 1370     		strb	r3, [r2]
1768:.\Generated_Source\PSoC5/ADC_SOUND_IN.c ****     ADC_SOUND_IN_StartConvert();
 1750              		.loc 1 1768 0
 1751 000c FFF7FEFF 		bl	ADC_SOUND_IN_StartConvert
 1752              	.LVL155:
1769:.\Generated_Source\PSoC5/ADC_SOUND_IN.c ****     (void)ADC_SOUND_IN_IsEndConversion(ADC_SOUND_IN_WAIT_FOR_RESULT);
 1753              		.loc 1 1769 0
 1754 0010 0020     		movs	r0, #0
 1755 0012 FFF7FEFF 		bl	ADC_SOUND_IN_IsEndConversion
 1756              	.LVL156:
1770:.\Generated_Source\PSoC5/ADC_SOUND_IN.c ****      result = ADC_SOUND_IN_GetResult8();
 1757              		.loc 1 1770 0
 1758 0016 FFF7FEFF 		bl	ADC_SOUND_IN_GetResult8
 1759              	.LVL157:
 1760 001a 0446     		mov	r4, r0
 1761              	.LVL158:
1771:.\Generated_Source\PSoC5/ADC_SOUND_IN.c ****     ADC_SOUND_IN_StopConvert();
 1762              		.loc 1 1771 0
 1763 001c FFF7FEFF 		bl	ADC_SOUND_IN_StopConvert
 1764              	.LVL159:
1772:.\Generated_Source\PSoC5/ADC_SOUND_IN.c ****     
ARM GAS  C:\Users\YongY\AppData\Local\Temp\ccMwH7lk.s 			page 67


1773:.\Generated_Source\PSoC5/ADC_SOUND_IN.c ****      return(result);
1774:.\Generated_Source\PSoC5/ADC_SOUND_IN.c **** }
 1765              		.loc 1 1774 0
 1766 0020 2046     		mov	r0, r4
 1767 0022 10BD     		pop	{r4, pc}
 1768              	.LVL160:
 1769              	.L130:
 1770              		.align	2
 1771              	.L129:
 1772 0024 014E0040 		.word	1073761793
 1773              		.cfi_endproc
 1774              	.LFE23:
 1775              		.size	ADC_SOUND_IN_Read8, .-ADC_SOUND_IN_Read8
 1776              		.section	.text.ADC_SOUND_IN_Read16,"ax",%progbits
 1777              		.align	2
 1778              		.global	ADC_SOUND_IN_Read16
 1779              		.thumb
 1780              		.thumb_func
 1781              		.type	ADC_SOUND_IN_Read16, %function
 1782              	ADC_SOUND_IN_Read16:
 1783              	.LFB24:
1775:.\Generated_Source\PSoC5/ADC_SOUND_IN.c **** 
1776:.\Generated_Source\PSoC5/ADC_SOUND_IN.c **** 
1777:.\Generated_Source\PSoC5/ADC_SOUND_IN.c **** /*******************************************************************************
1778:.\Generated_Source\PSoC5/ADC_SOUND_IN.c **** * Function Name: ADC_SOUND_IN_Read16
1779:.\Generated_Source\PSoC5/ADC_SOUND_IN.c **** ********************************************************************************
1780:.\Generated_Source\PSoC5/ADC_SOUND_IN.c **** *
1781:.\Generated_Source\PSoC5/ADC_SOUND_IN.c **** * Summary:
1782:.\Generated_Source\PSoC5/ADC_SOUND_IN.c **** *  This function simplifies getting results from the ADC when only a
1783:.\Generated_Source\PSoC5/ADC_SOUND_IN.c **** *  single reading is required. When called, it will start ADC
1784:.\Generated_Source\PSoC5/ADC_SOUND_IN.c **** *  conversions, wait for the conversion to be complete, stop ADC
1785:.\Generated_Source\PSoC5/ADC_SOUND_IN.c **** *  conversion and return the result. This is a blocking function and will
1786:.\Generated_Source\PSoC5/ADC_SOUND_IN.c **** *  not return until the result is ready.
1787:.\Generated_Source\PSoC5/ADC_SOUND_IN.c **** *
1788:.\Generated_Source\PSoC5/ADC_SOUND_IN.c **** * Parameters:
1789:.\Generated_Source\PSoC5/ADC_SOUND_IN.c **** *   void
1790:.\Generated_Source\PSoC5/ADC_SOUND_IN.c **** *
1791:.\Generated_Source\PSoC5/ADC_SOUND_IN.c **** * Return:
1792:.\Generated_Source\PSoC5/ADC_SOUND_IN.c **** *  int16:  ADC result.
1793:.\Generated_Source\PSoC5/ADC_SOUND_IN.c **** *
1794:.\Generated_Source\PSoC5/ADC_SOUND_IN.c **** *******************************************************************************/
1795:.\Generated_Source\PSoC5/ADC_SOUND_IN.c **** int16 ADC_SOUND_IN_Read16(void) 
1796:.\Generated_Source\PSoC5/ADC_SOUND_IN.c **** {
 1784              		.loc 1 1796 0
 1785              		.cfi_startproc
 1786              		@ args = 0, pretend = 0, frame = 0
 1787              		@ frame_needed = 0, uses_anonymous_args = 0
 1788 0000 10B5     		push	{r4, lr}
 1789              		.cfi_def_cfa_offset 8
 1790              		.cfi_offset 4, -8
 1791              		.cfi_offset 14, -4
1797:.\Generated_Source\PSoC5/ADC_SOUND_IN.c ****     int16 result;
1798:.\Generated_Source\PSoC5/ADC_SOUND_IN.c **** 
1799:.\Generated_Source\PSoC5/ADC_SOUND_IN.c ****     /* Clear pending conversion done status */
1800:.\Generated_Source\PSoC5/ADC_SOUND_IN.c ****     ADC_SOUND_IN_DEC_SR_REG |= ADC_SOUND_IN_DEC_INTR_CLEAR;
 1792              		.loc 1 1800 0
 1793 0002 084A     		ldr	r2, .L133
ARM GAS  C:\Users\YongY\AppData\Local\Temp\ccMwH7lk.s 			page 68


 1794 0004 1378     		ldrb	r3, [r2]	@ zero_extendqisi2
 1795 0006 43F00403 		orr	r3, r3, #4
 1796 000a 1370     		strb	r3, [r2]
1801:.\Generated_Source\PSoC5/ADC_SOUND_IN.c ****     ADC_SOUND_IN_StartConvert();
 1797              		.loc 1 1801 0
 1798 000c FFF7FEFF 		bl	ADC_SOUND_IN_StartConvert
 1799              	.LVL161:
1802:.\Generated_Source\PSoC5/ADC_SOUND_IN.c ****     (void)ADC_SOUND_IN_IsEndConversion(ADC_SOUND_IN_WAIT_FOR_RESULT);
 1800              		.loc 1 1802 0
 1801 0010 0020     		movs	r0, #0
 1802 0012 FFF7FEFF 		bl	ADC_SOUND_IN_IsEndConversion
 1803              	.LVL162:
1803:.\Generated_Source\PSoC5/ADC_SOUND_IN.c ****      result = ADC_SOUND_IN_GetResult16();
 1804              		.loc 1 1803 0
 1805 0016 FFF7FEFF 		bl	ADC_SOUND_IN_GetResult16
 1806              	.LVL163:
 1807 001a 0446     		mov	r4, r0
 1808              	.LVL164:
1804:.\Generated_Source\PSoC5/ADC_SOUND_IN.c ****     ADC_SOUND_IN_StopConvert();
 1809              		.loc 1 1804 0
 1810 001c FFF7FEFF 		bl	ADC_SOUND_IN_StopConvert
 1811              	.LVL165:
1805:.\Generated_Source\PSoC5/ADC_SOUND_IN.c ****     
1806:.\Generated_Source\PSoC5/ADC_SOUND_IN.c ****      return(result);
1807:.\Generated_Source\PSoC5/ADC_SOUND_IN.c **** }
 1812              		.loc 1 1807 0
 1813 0020 2046     		mov	r0, r4
 1814 0022 10BD     		pop	{r4, pc}
 1815              	.LVL166:
 1816              	.L134:
 1817              		.align	2
 1818              	.L133:
 1819 0024 014E0040 		.word	1073761793
 1820              		.cfi_endproc
 1821              	.LFE24:
 1822              		.size	ADC_SOUND_IN_Read16, .-ADC_SOUND_IN_Read16
 1823              		.section	.text.ADC_SOUND_IN_Read32,"ax",%progbits
 1824              		.align	2
 1825              		.global	ADC_SOUND_IN_Read32
 1826              		.thumb
 1827              		.thumb_func
 1828              		.type	ADC_SOUND_IN_Read32, %function
 1829              	ADC_SOUND_IN_Read32:
 1830              	.LFB25:
1808:.\Generated_Source\PSoC5/ADC_SOUND_IN.c **** 
1809:.\Generated_Source\PSoC5/ADC_SOUND_IN.c **** 
1810:.\Generated_Source\PSoC5/ADC_SOUND_IN.c **** /*******************************************************************************
1811:.\Generated_Source\PSoC5/ADC_SOUND_IN.c **** * Function Name: ADC_SOUND_IN_Read32
1812:.\Generated_Source\PSoC5/ADC_SOUND_IN.c **** ********************************************************************************
1813:.\Generated_Source\PSoC5/ADC_SOUND_IN.c **** *
1814:.\Generated_Source\PSoC5/ADC_SOUND_IN.c **** * Summary:
1815:.\Generated_Source\PSoC5/ADC_SOUND_IN.c **** *  This function simplifies getting results from the ADC when only a
1816:.\Generated_Source\PSoC5/ADC_SOUND_IN.c **** *  single reading is required. When called, it will start ADC
1817:.\Generated_Source\PSoC5/ADC_SOUND_IN.c **** *  conversions, wait for the conversion to be complete, stop ADC
1818:.\Generated_Source\PSoC5/ADC_SOUND_IN.c **** *  conversion and return the result. This is a blocking function and will
1819:.\Generated_Source\PSoC5/ADC_SOUND_IN.c **** *  not return until the result is ready.
1820:.\Generated_Source\PSoC5/ADC_SOUND_IN.c **** *
ARM GAS  C:\Users\YongY\AppData\Local\Temp\ccMwH7lk.s 			page 69


1821:.\Generated_Source\PSoC5/ADC_SOUND_IN.c **** * Parameters:
1822:.\Generated_Source\PSoC5/ADC_SOUND_IN.c **** *  None
1823:.\Generated_Source\PSoC5/ADC_SOUND_IN.c **** *
1824:.\Generated_Source\PSoC5/ADC_SOUND_IN.c **** * Return:
1825:.\Generated_Source\PSoC5/ADC_SOUND_IN.c **** *  int32: ADC result.
1826:.\Generated_Source\PSoC5/ADC_SOUND_IN.c **** *
1827:.\Generated_Source\PSoC5/ADC_SOUND_IN.c **** *******************************************************************************/
1828:.\Generated_Source\PSoC5/ADC_SOUND_IN.c **** int32 ADC_SOUND_IN_Read32(void) 
1829:.\Generated_Source\PSoC5/ADC_SOUND_IN.c **** {
 1831              		.loc 1 1829 0
 1832              		.cfi_startproc
 1833              		@ args = 0, pretend = 0, frame = 0
 1834              		@ frame_needed = 0, uses_anonymous_args = 0
 1835 0000 10B5     		push	{r4, lr}
 1836              		.cfi_def_cfa_offset 8
 1837              		.cfi_offset 4, -8
 1838              		.cfi_offset 14, -4
1830:.\Generated_Source\PSoC5/ADC_SOUND_IN.c ****     int32 result;
1831:.\Generated_Source\PSoC5/ADC_SOUND_IN.c ****     
1832:.\Generated_Source\PSoC5/ADC_SOUND_IN.c ****     /* Clear pending conversion done status */
1833:.\Generated_Source\PSoC5/ADC_SOUND_IN.c ****     ADC_SOUND_IN_DEC_SR_REG |= ADC_SOUND_IN_DEC_INTR_CLEAR;
 1839              		.loc 1 1833 0
 1840 0002 084A     		ldr	r2, .L137
 1841 0004 1378     		ldrb	r3, [r2]	@ zero_extendqisi2
 1842 0006 43F00403 		orr	r3, r3, #4
 1843 000a 1370     		strb	r3, [r2]
1834:.\Generated_Source\PSoC5/ADC_SOUND_IN.c ****     ADC_SOUND_IN_StartConvert();
 1844              		.loc 1 1834 0
 1845 000c FFF7FEFF 		bl	ADC_SOUND_IN_StartConvert
 1846              	.LVL167:
1835:.\Generated_Source\PSoC5/ADC_SOUND_IN.c ****     (void)ADC_SOUND_IN_IsEndConversion(ADC_SOUND_IN_WAIT_FOR_RESULT);
 1847              		.loc 1 1835 0
 1848 0010 0020     		movs	r0, #0
 1849 0012 FFF7FEFF 		bl	ADC_SOUND_IN_IsEndConversion
 1850              	.LVL168:
1836:.\Generated_Source\PSoC5/ADC_SOUND_IN.c ****      result = ADC_SOUND_IN_GetResult32();
 1851              		.loc 1 1836 0
 1852 0016 FFF7FEFF 		bl	ADC_SOUND_IN_GetResult32
 1853              	.LVL169:
 1854 001a 0446     		mov	r4, r0
 1855              	.LVL170:
1837:.\Generated_Source\PSoC5/ADC_SOUND_IN.c ****     ADC_SOUND_IN_StopConvert();
 1856              		.loc 1 1837 0
 1857 001c FFF7FEFF 		bl	ADC_SOUND_IN_StopConvert
 1858              	.LVL171:
1838:.\Generated_Source\PSoC5/ADC_SOUND_IN.c ****     
1839:.\Generated_Source\PSoC5/ADC_SOUND_IN.c ****      return(result);
1840:.\Generated_Source\PSoC5/ADC_SOUND_IN.c **** }
 1859              		.loc 1 1840 0
 1860 0020 2046     		mov	r0, r4
 1861 0022 10BD     		pop	{r4, pc}
 1862              	.LVL172:
 1863              	.L138:
 1864              		.align	2
 1865              	.L137:
 1866 0024 014E0040 		.word	1073761793
 1867              		.cfi_endproc
ARM GAS  C:\Users\YongY\AppData\Local\Temp\ccMwH7lk.s 			page 70


 1868              	.LFE25:
 1869              		.size	ADC_SOUND_IN_Read32, .-ADC_SOUND_IN_Read32
 1870              		.comm	ADC_SOUND_IN_CountsPerVolt,4,4
 1871              		.comm	ADC_SOUND_IN_Offset,4,4
 1872              		.global	ADC_SOUND_IN_Config
 1873              		.global	ADC_SOUND_IN_started
 1874              		.global	ADC_SOUND_IN_initVar
 1875              		.global	ADC_SOUND_IN_stopConversion
 1876              		.global	ADC_SOUND_IN_convDone
 1877              		.data
 1878              		.set	.LANCHOR1,. + 0
 1879              		.type	ADC_SOUND_IN_Config, %object
 1880              		.size	ADC_SOUND_IN_Config, 1
 1881              	ADC_SOUND_IN_Config:
 1882 0000 01       		.byte	1
 1883              		.bss
 1884              		.align	2
 1885              		.set	.LANCHOR0,. + 0
 1886              		.type	ADC_SOUND_IN_gcor, %object
 1887              		.size	ADC_SOUND_IN_gcor, 4
 1888              	ADC_SOUND_IN_gcor:
 1889 0000 00000000 		.space	4
 1890              		.type	ADC_SOUND_IN_stopConversion, %object
 1891              		.size	ADC_SOUND_IN_stopConversion, 1
 1892              	ADC_SOUND_IN_stopConversion:
 1893 0004 00       		.space	1
 1894              		.type	ADC_SOUND_IN_convDone, %object
 1895              		.size	ADC_SOUND_IN_convDone, 1
 1896              	ADC_SOUND_IN_convDone:
 1897 0005 00       		.space	1
 1898              		.type	ADC_SOUND_IN_initVar, %object
 1899              		.size	ADC_SOUND_IN_initVar, 1
 1900              	ADC_SOUND_IN_initVar:
 1901 0006 00       		.space	1
 1902              		.type	ADC_SOUND_IN_started, %object
 1903              		.size	ADC_SOUND_IN_started, 1
 1904              	ADC_SOUND_IN_started:
 1905 0007 00       		.space	1
 1906              		.text
 1907              	.Letext0:
 1908              		.file 2 ".\\Generated_Source\\PSoC5\\cytypes.h"
 1909              		.file 3 ".\\Generated_Source\\PSoC5\\ADC_SOUND_IN.h"
 1910              		.file 4 ".\\Generated_Source\\PSoC5\\CyLib.h"
 1911              		.file 5 ".\\Generated_Source\\PSoC5\\ADC_SOUND_IN_AMux.h"
 1912              		.file 6 ".\\Generated_Source\\PSoC5\\ADC_SOUND_IN_Ext_CP_Clk.h"
 1913              		.file 7 ".\\Generated_Source\\PSoC5\\ADC_SOUND_IN_theACLK.h"
 1914              		.section	.debug_info,"",%progbits
 1915              	.Ldebug_info0:
 1916 0000 700A0000 		.4byte	0xa70
 1917 0004 0400     		.2byte	0x4
 1918 0006 00000000 		.4byte	.Ldebug_abbrev0
 1919 000a 04       		.byte	0x4
 1920 000b 01       		.uleb128 0x1
 1921 000c 75060000 		.4byte	.LASF98
 1922 0010 01       		.byte	0x1
 1923 0011 C7010000 		.4byte	.LASF99
 1924 0015 96020000 		.4byte	.LASF100
ARM GAS  C:\Users\YongY\AppData\Local\Temp\ccMwH7lk.s 			page 71


 1925 0019 00000000 		.4byte	.Ldebug_ranges0+0
 1926 001d 00000000 		.4byte	0
 1927 0021 00000000 		.4byte	.Ldebug_line0
 1928 0025 02       		.uleb128 0x2
 1929 0026 04       		.byte	0x4
 1930 0027 04       		.byte	0x4
 1931 0028 4A040000 		.4byte	.LASF0
 1932 002c 02       		.uleb128 0x2
 1933 002d 01       		.byte	0x1
 1934 002e 06       		.byte	0x6
 1935 002f 33010000 		.4byte	.LASF1
 1936 0033 02       		.uleb128 0x2
 1937 0034 01       		.byte	0x1
 1938 0035 08       		.byte	0x8
 1939 0036 F3040000 		.4byte	.LASF2
 1940 003a 02       		.uleb128 0x2
 1941 003b 02       		.byte	0x2
 1942 003c 05       		.byte	0x5
 1943 003d 64050000 		.4byte	.LASF3
 1944 0041 02       		.uleb128 0x2
 1945 0042 02       		.byte	0x2
 1946 0043 07       		.byte	0x7
 1947 0044 0E030000 		.4byte	.LASF4
 1948 0048 02       		.uleb128 0x2
 1949 0049 04       		.byte	0x4
 1950 004a 05       		.byte	0x5
 1951 004b 45010000 		.4byte	.LASF5
 1952 004f 02       		.uleb128 0x2
 1953 0050 04       		.byte	0x4
 1954 0051 07       		.byte	0x7
 1955 0052 84020000 		.4byte	.LASF6
 1956 0056 02       		.uleb128 0x2
 1957 0057 08       		.byte	0x8
 1958 0058 05       		.byte	0x5
 1959 0059 25010000 		.4byte	.LASF7
 1960 005d 02       		.uleb128 0x2
 1961 005e 08       		.byte	0x8
 1962 005f 07       		.byte	0x7
 1963 0060 E5000000 		.4byte	.LASF8
 1964 0064 03       		.uleb128 0x3
 1965 0065 04       		.byte	0x4
 1966 0066 05       		.byte	0x5
 1967 0067 696E7400 		.ascii	"int\000"
 1968 006b 02       		.uleb128 0x2
 1969 006c 04       		.byte	0x4
 1970 006d 07       		.byte	0x7
 1971 006e 4C020000 		.4byte	.LASF9
 1972 0072 04       		.uleb128 0x4
 1973 0073 6F010000 		.4byte	.LASF10
 1974 0077 02       		.byte	0x2
 1975 0078 C2       		.byte	0xc2
 1976 0079 33000000 		.4byte	0x33
 1977 007d 04       		.uleb128 0x4
 1978 007e 25000000 		.4byte	.LASF11
 1979 0082 02       		.byte	0x2
 1980 0083 C3       		.byte	0xc3
 1981 0084 41000000 		.4byte	0x41
ARM GAS  C:\Users\YongY\AppData\Local\Temp\ccMwH7lk.s 			page 72


 1982 0088 04       		.uleb128 0x4
 1983 0089 B1010000 		.4byte	.LASF12
 1984 008d 02       		.byte	0x2
 1985 008e C4       		.byte	0xc4
 1986 008f 4F000000 		.4byte	0x4f
 1987 0093 04       		.uleb128 0x4
 1988 0094 21030000 		.4byte	.LASF13
 1989 0098 02       		.byte	0x2
 1990 0099 C5       		.byte	0xc5
 1991 009a 2C000000 		.4byte	0x2c
 1992 009e 04       		.uleb128 0x4
 1993 009f 23070000 		.4byte	.LASF14
 1994 00a3 02       		.byte	0x2
 1995 00a4 C6       		.byte	0xc6
 1996 00a5 3A000000 		.4byte	0x3a
 1997 00a9 04       		.uleb128 0x4
 1998 00aa 3F010000 		.4byte	.LASF15
 1999 00ae 02       		.byte	0x2
 2000 00af C7       		.byte	0xc7
 2001 00b0 48000000 		.4byte	0x48
 2002 00b4 04       		.uleb128 0x4
 2003 00b5 9D030000 		.4byte	.LASF16
 2004 00b9 02       		.byte	0x2
 2005 00ba C8       		.byte	0xc8
 2006 00bb 25000000 		.4byte	0x25
 2007 00bf 02       		.uleb128 0x2
 2008 00c0 08       		.byte	0x8
 2009 00c1 04       		.byte	0x4
 2010 00c2 7F010000 		.4byte	.LASF17
 2011 00c6 02       		.uleb128 0x2
 2012 00c7 01       		.byte	0x1
 2013 00c8 08       		.byte	0x8
 2014 00c9 D6050000 		.4byte	.LASF18
 2015 00cd 05       		.uleb128 0x5
 2016 00ce A7040000 		.4byte	.LASF19
 2017 00d2 02       		.byte	0x2
 2018 00d3 6C01     		.2byte	0x16c
 2019 00d5 D9000000 		.4byte	0xd9
 2020 00d9 06       		.uleb128 0x6
 2021 00da 72000000 		.4byte	0x72
 2022 00de 05       		.uleb128 0x5
 2023 00df 69010000 		.4byte	.LASF20
 2024 00e3 02       		.byte	0x2
 2025 00e4 6D01     		.2byte	0x16d
 2026 00e6 EA000000 		.4byte	0xea
 2027 00ea 06       		.uleb128 0x6
 2028 00eb 7D000000 		.4byte	0x7d
 2029 00ef 05       		.uleb128 0x5
 2030 00f0 85030000 		.4byte	.LASF21
 2031 00f4 02       		.byte	0x2
 2032 00f5 6E01     		.2byte	0x16e
 2033 00f7 FB000000 		.4byte	0xfb
 2034 00fb 06       		.uleb128 0x6
 2035 00fc 88000000 		.4byte	0x88
 2036 0100 05       		.uleb128 0x5
 2037 0101 E2050000 		.4byte	.LASF22
 2038 0105 02       		.byte	0x2
ARM GAS  C:\Users\YongY\AppData\Local\Temp\ccMwH7lk.s 			page 73


 2039 0106 7E01     		.2byte	0x17e
 2040 0108 0C010000 		.4byte	0x10c
 2041 010c 07       		.uleb128 0x7
 2042 010d 04       		.byte	0x4
 2043 010e 12010000 		.4byte	0x112
 2044 0112 08       		.uleb128 0x8
 2045 0113 02       		.uleb128 0x2
 2046 0114 04       		.byte	0x4
 2047 0115 07       		.byte	0x7
 2048 0116 A5030000 		.4byte	.LASF23
 2049 011a 09       		.uleb128 0x9
 2050 011b 04       		.byte	0x4
 2051 011c 03       		.byte	0x3
 2052 011d 2F       		.byte	0x2f
 2053 011e 3B010000 		.4byte	0x13b
 2054 0122 0A       		.uleb128 0xa
 2055 0123 AD000000 		.4byte	.LASF24
 2056 0127 03       		.byte	0x3
 2057 0128 31       		.byte	0x31
 2058 0129 7D000000 		.4byte	0x7d
 2059 012d 00       		.byte	0
 2060 012e 0A       		.uleb128 0xa
 2061 012f 08060000 		.4byte	.LASF25
 2062 0133 03       		.byte	0x3
 2063 0134 32       		.byte	0x32
 2064 0135 72000000 		.4byte	0x72
 2065 0139 02       		.byte	0x2
 2066 013a 00       		.byte	0
 2067 013b 04       		.uleb128 0x4
 2068 013c EF050000 		.4byte	.LASF26
 2069 0140 03       		.byte	0x3
 2070 0141 33       		.byte	0x33
 2071 0142 1A010000 		.4byte	0x11a
 2072 0146 0B       		.uleb128 0xb
 2073 0147 EF010000 		.4byte	.LASF36
 2074 014b 01       		.byte	0x1
 2075 014c 5106     		.2byte	0x651
 2076 014e 00000000 		.4byte	.LFB21
 2077 0152 CC000000 		.4byte	.LFE21-.LFB21
 2078 0156 01       		.uleb128 0x1
 2079 0157 9C       		.byte	0x9c
 2080 0158 FC010000 		.4byte	0x1fc
 2081 015c 0C       		.uleb128 0xc
 2082 015d 72000000 		.4byte	.LASF27
 2083 0161 01       		.byte	0x1
 2084 0162 5106     		.2byte	0x651
 2085 0164 72000000 		.4byte	0x72
 2086 0168 00000000 		.4byte	.LLST0
 2087 016c 0C       		.uleb128 0xc
 2088 016d D4040000 		.4byte	.LASF28
 2089 0171 01       		.byte	0x1
 2090 0172 5106     		.2byte	0x651
 2091 0174 7D000000 		.4byte	0x7d
 2092 0178 3A000000 		.4byte	.LLST1
 2093 017c 0C       		.uleb128 0xc
 2094 017d 15010000 		.4byte	.LASF29
 2095 0181 01       		.byte	0x1
ARM GAS  C:\Users\YongY\AppData\Local\Temp\ccMwH7lk.s 			page 74


 2096 0182 5106     		.2byte	0x651
 2097 0184 7D000000 		.4byte	0x7d
 2098 0188 74000000 		.4byte	.LLST2
 2099 018c 0C       		.uleb128 0xc
 2100 018d 8F050000 		.4byte	.LASF30
 2101 0191 01       		.byte	0x1
 2102 0192 5206     		.2byte	0x652
 2103 0194 72000000 		.4byte	0x72
 2104 0198 AE000000 		.4byte	.LLST3
 2105 019c 0C       		.uleb128 0xc
 2106 019d 60020000 		.4byte	.LASF31
 2107 01a1 01       		.byte	0x1
 2108 01a2 5206     		.2byte	0x652
 2109 01a4 72000000 		.4byte	0x72
 2110 01a8 01010000 		.4byte	.LLST4
 2111 01ac 0D       		.uleb128 0xd
 2112 01ad 7F030000 		.4byte	.LASF32
 2113 01b1 01       		.byte	0x1
 2114 01b2 5406     		.2byte	0x654
 2115 01b4 93000000 		.4byte	0x93
 2116 01b8 2D010000 		.4byte	.LLST5
 2117 01bc 0D       		.uleb128 0xd
 2118 01bd E1040000 		.4byte	.LASF33
 2119 01c1 01       		.byte	0x1
 2120 01c2 5506     		.2byte	0x655
 2121 01c4 A9000000 		.4byte	0xa9
 2122 01c8 98010000 		.4byte	.LLST6
 2123 01cc 0D       		.uleb128 0xd
 2124 01cd 41030000 		.4byte	.LASF34
 2125 01d1 01       		.byte	0x1
 2126 01d2 5606     		.2byte	0x656
 2127 01d4 7D000000 		.4byte	0x7d
 2128 01d8 AB010000 		.4byte	.LLST7
 2129 01dc 0D       		.uleb128 0xd
 2130 01dd 6E050000 		.4byte	.LASF35
 2131 01e1 01       		.byte	0x1
 2132 01e2 5706     		.2byte	0x657
 2133 01e4 88000000 		.4byte	0x88
 2134 01e8 D4010000 		.4byte	.LLST8
 2135 01ec 0E       		.uleb128 0xe
 2136 01ed A6000000 		.4byte	.LVL31
 2137 01f1 AA090000 		.4byte	0x9aa
 2138 01f5 0F       		.uleb128 0xf
 2139 01f6 01       		.uleb128 0x1
 2140 01f7 50       		.byte	0x50
 2141 01f8 01       		.uleb128 0x1
 2142 01f9 30       		.byte	0x30
 2143 01fa 00       		.byte	0
 2144 01fb 00       		.byte	0
 2145 01fc 0B       		.uleb128 0xb
 2146 01fd DF030000 		.4byte	.LASF37
 2147 0201 01       		.byte	0x1
 2148 0202 BC06     		.2byte	0x6bc
 2149 0204 00000000 		.4byte	.LFB22
 2150 0208 4C000000 		.4byte	.LFE22-.LFB22
 2151 020c 01       		.uleb128 0x1
 2152 020d 9C       		.byte	0x9c
ARM GAS  C:\Users\YongY\AppData\Local\Temp\ccMwH7lk.s 			page 75


 2153 020e 5F020000 		.4byte	0x25f
 2154 0212 0C       		.uleb128 0xc
 2155 0213 3E020000 		.4byte	.LASF38
 2156 0217 01       		.byte	0x1
 2157 0218 BC06     		.2byte	0x6bc
 2158 021a 72000000 		.4byte	0x72
 2159 021e E7010000 		.4byte	.LLST9
 2160 0222 0D       		.uleb128 0xd
 2161 0223 5D060000 		.4byte	.LASF39
 2162 0227 01       		.byte	0x1
 2163 0228 BE06     		.2byte	0x6be
 2164 022a 72000000 		.4byte	0x72
 2165 022e 08020000 		.4byte	.LLST10
 2166 0232 10       		.uleb128 0x10
 2167 0233 08000000 		.4byte	.LVL34
 2168 0237 BB090000 		.4byte	0x9bb
 2169 023b 11       		.uleb128 0x11
 2170 023c 28000000 		.4byte	.LVL36
 2171 0240 C6090000 		.4byte	0x9c6
 2172 0244 4E020000 		.4byte	0x24e
 2173 0248 0F       		.uleb128 0xf
 2174 0249 01       		.uleb128 0x1
 2175 024a 50       		.byte	0x50
 2176 024b 01       		.uleb128 0x1
 2177 024c 33       		.byte	0x33
 2178 024d 00       		.byte	0
 2179 024e 0E       		.uleb128 0xe
 2180 024f 3E000000 		.4byte	.LVL37
 2181 0253 D7090000 		.4byte	0x9d7
 2182 0257 0F       		.uleb128 0xf
 2183 0258 01       		.uleb128 0x1
 2184 0259 50       		.byte	0x50
 2185 025a 02       		.uleb128 0x2
 2186 025b 76       		.byte	0x76
 2187 025c 00       		.sleb128 0
 2188 025d 00       		.byte	0
 2189 025e 00       		.byte	0
 2190 025f 0B       		.uleb128 0xb
 2191 0260 9A050000 		.4byte	.LASF40
 2192 0264 01       		.byte	0x1
 2193 0265 DA04     		.2byte	0x4da
 2194 0267 00000000 		.4byte	.LFB19
 2195 026b E4000000 		.4byte	.LFE19-.LFB19
 2196 026f 01       		.uleb128 0x1
 2197 0270 9C       		.byte	0x9c
 2198 0271 F1020000 		.4byte	0x2f1
 2199 0275 0C       		.uleb128 0xc
 2200 0276 60020000 		.4byte	.LASF31
 2201 027a 01       		.byte	0x1
 2202 027b DA04     		.2byte	0x4da
 2203 027d 72000000 		.4byte	0x72
 2204 0281 1B020000 		.4byte	.LLST11
 2205 0285 11       		.uleb128 0x11
 2206 0286 80000000 		.4byte	.LVL41
 2207 028a FC010000 		.4byte	0x1fc
 2208 028e 99020000 		.4byte	0x299
 2209 0292 0F       		.uleb128 0xf
ARM GAS  C:\Users\YongY\AppData\Local\Temp\ccMwH7lk.s 			page 76


 2210 0293 01       		.uleb128 0x1
 2211 0294 50       		.byte	0x50
 2212 0295 02       		.uleb128 0x2
 2213 0296 08       		.byte	0x8
 2214 0297 44       		.byte	0x44
 2215 0298 00       		.byte	0
 2216 0299 11       		.uleb128 0x11
 2217 029a A4000000 		.4byte	.LVL42
 2218 029e E8090000 		.4byte	0x9e8
 2219 02a2 AD020000 		.4byte	0x2ad
 2220 02a6 0F       		.uleb128 0xf
 2221 02a7 01       		.uleb128 0x1
 2222 02a8 50       		.byte	0x50
 2223 02a9 02       		.uleb128 0x2
 2224 02aa 74       		.byte	0x74
 2225 02ab 00       		.sleb128 0
 2226 02ac 00       		.byte	0
 2227 02ad 11       		.uleb128 0x11
 2228 02ae B4000000 		.4byte	.LVL43
 2229 02b2 F9090000 		.4byte	0x9f9
 2230 02b6 C7020000 		.4byte	0x2c7
 2231 02ba 0F       		.uleb128 0xf
 2232 02bb 01       		.uleb128 0x1
 2233 02bc 51       		.byte	0x51
 2234 02bd 02       		.uleb128 0x2
 2235 02be 75       		.byte	0x75
 2236 02bf 00       		.sleb128 0
 2237 02c0 0F       		.uleb128 0xf
 2238 02c1 01       		.uleb128 0x1
 2239 02c2 50       		.byte	0x50
 2240 02c3 02       		.uleb128 0x2
 2241 02c4 08       		.byte	0x8
 2242 02c5 2C       		.byte	0x2c
 2243 02c6 00       		.byte	0
 2244 02c7 11       		.uleb128 0x11
 2245 02c8 BC000000 		.4byte	.LVL44
 2246 02cc 0F0A0000 		.4byte	0xa0f
 2247 02d0 E1020000 		.4byte	0x2e1
 2248 02d4 0F       		.uleb128 0xf
 2249 02d5 01       		.uleb128 0x1
 2250 02d6 51       		.byte	0x51
 2251 02d7 02       		.uleb128 0x2
 2252 02d8 75       		.byte	0x75
 2253 02d9 00       		.sleb128 0
 2254 02da 0F       		.uleb128 0xf
 2255 02db 01       		.uleb128 0x1
 2256 02dc 50       		.byte	0x50
 2257 02dd 02       		.uleb128 0x2
 2258 02de 08       		.byte	0x8
 2259 02df B6       		.byte	0xb6
 2260 02e0 00       		.byte	0
 2261 02e1 0E       		.uleb128 0xe
 2262 02e2 C4000000 		.4byte	.LVL45
 2263 02e6 250A0000 		.4byte	0xa25
 2264 02ea 0F       		.uleb128 0xf
 2265 02eb 01       		.uleb128 0x1
 2266 02ec 50       		.byte	0x50
ARM GAS  C:\Users\YongY\AppData\Local\Temp\ccMwH7lk.s 			page 77


 2267 02ed 01       		.uleb128 0x1
 2268 02ee 4D       		.byte	0x4d
 2269 02ef 00       		.byte	0
 2270 02f0 00       		.byte	0
 2271 02f1 12       		.uleb128 0x12
 2272 02f2 00000000 		.4byte	.LASF41
 2273 02f6 01       		.byte	0x1
 2274 02f7 5B       		.byte	0x5b
 2275 02f8 00000000 		.4byte	.LFB0
 2276 02fc C4000000 		.4byte	.LFE0-.LFB0
 2277 0300 01       		.uleb128 0x1
 2278 0301 9C       		.byte	0x9c
 2279 0302 7C030000 		.4byte	0x37c
 2280 0306 11       		.uleb128 0x11
 2281 0307 16000000 		.4byte	.LVL46
 2282 030b 3F0A0000 		.4byte	0xa3f
 2283 030f 19030000 		.4byte	0x319
 2284 0313 0F       		.uleb128 0xf
 2285 0314 01       		.uleb128 0x1
 2286 0315 50       		.byte	0x50
 2287 0316 01       		.uleb128 0x1
 2288 0317 40       		.byte	0x40
 2289 0318 00       		.byte	0
 2290 0319 11       		.uleb128 0x11
 2291 031a 1C000000 		.4byte	.LVL47
 2292 031e 500A0000 		.4byte	0xa50
 2293 0322 2C030000 		.4byte	0x32c
 2294 0326 0F       		.uleb128 0xf
 2295 0327 01       		.uleb128 0x1
 2296 0328 50       		.byte	0x50
 2297 0329 01       		.uleb128 0x1
 2298 032a 40       		.byte	0x40
 2299 032b 00       		.byte	0
 2300 032c 11       		.uleb128 0x11
 2301 032d 24000000 		.4byte	.LVL48
 2302 0331 610A0000 		.4byte	0xa61
 2303 0335 44030000 		.4byte	0x344
 2304 0339 0F       		.uleb128 0xf
 2305 033a 01       		.uleb128 0x1
 2306 033b 51       		.byte	0x51
 2307 033c 01       		.uleb128 0x1
 2308 033d 37       		.byte	0x37
 2309 033e 0F       		.uleb128 0xf
 2310 033f 01       		.uleb128 0x1
 2311 0340 50       		.byte	0x50
 2312 0341 01       		.uleb128 0x1
 2313 0342 4D       		.byte	0x4d
 2314 0343 00       		.byte	0
 2315 0344 11       		.uleb128 0x11
 2316 0345 84000000 		.4byte	.LVL49
 2317 0349 46010000 		.4byte	0x146
 2318 034d 72030000 		.4byte	0x372
 2319 0351 0F       		.uleb128 0xf
 2320 0352 01       		.uleb128 0x1
 2321 0353 53       		.byte	0x53
 2322 0354 01       		.uleb128 0x1
 2323 0355 3C       		.byte	0x3c
ARM GAS  C:\Users\YongY\AppData\Local\Temp\ccMwH7lk.s 			page 78


 2324 0356 0F       		.uleb128 0xf
 2325 0357 01       		.uleb128 0x1
 2326 0358 52       		.byte	0x52
 2327 0359 03       		.uleb128 0x3
 2328 035a 0B       		.byte	0xb
 2329 035b 0080     		.2byte	0x8000
 2330 035d 0F       		.uleb128 0xf
 2331 035e 01       		.uleb128 0x1
 2332 035f 51       		.byte	0x51
 2333 0360 03       		.uleb128 0x3
 2334 0361 0B       		.byte	0xb
 2335 0362 B68D     		.2byte	0x8db6
 2336 0364 0F       		.uleb128 0xf
 2337 0365 01       		.uleb128 0x1
 2338 0366 50       		.byte	0x50
 2339 0367 02       		.uleb128 0x2
 2340 0368 74       		.byte	0x74
 2341 0369 00       		.sleb128 0
 2342 036a 0F       		.uleb128 0xf
 2343 036b 02       		.uleb128 0x2
 2344 036c 7D       		.byte	0x7d
 2345 036d 00       		.sleb128 0
 2346 036e 02       		.uleb128 0x2
 2347 036f 77       		.byte	0x77
 2348 0370 00       		.sleb128 0
 2349 0371 00       		.byte	0
 2350 0372 10       		.uleb128 0x10
 2351 0373 A4000000 		.4byte	.LVL50
 2352 0377 5F020000 		.4byte	0x25f
 2353 037b 00       		.byte	0
 2354 037c 12       		.uleb128 0x12
 2355 037d 64030000 		.4byte	.LASF42
 2356 0381 01       		.byte	0x1
 2357 0382 B8       		.byte	0xb8
 2358 0383 00000000 		.4byte	.LFB1
 2359 0387 D8000000 		.4byte	.LFE1-.LFB1
 2360 038b 01       		.uleb128 0x1
 2361 038c 9C       		.byte	0x9c
 2362 038d D8030000 		.4byte	0x3d8
 2363 0391 13       		.uleb128 0x13
 2364 0392 60020000 		.4byte	.LASF31
 2365 0396 01       		.byte	0x1
 2366 0397 BA       		.byte	0xba
 2367 0398 72000000 		.4byte	0x72
 2368 039c 14       		.uleb128 0x14
 2369 039d 5D060000 		.4byte	.LASF39
 2370 03a1 01       		.byte	0x1
 2371 03a2 BB       		.byte	0xbb
 2372 03a3 72000000 		.4byte	0x72
 2373 03a7 3C020000 		.4byte	.LLST12
 2374 03ab 10       		.uleb128 0x10
 2375 03ac 06000000 		.4byte	.LVL51
 2376 03b0 BB090000 		.4byte	0x9bb
 2377 03b4 11       		.uleb128 0x11
 2378 03b5 54000000 		.4byte	.LVL54
 2379 03b9 C6090000 		.4byte	0x9c6
 2380 03bd C7030000 		.4byte	0x3c7
ARM GAS  C:\Users\YongY\AppData\Local\Temp\ccMwH7lk.s 			page 79


 2381 03c1 0F       		.uleb128 0xf
 2382 03c2 01       		.uleb128 0x1
 2383 03c3 50       		.byte	0x50
 2384 03c4 01       		.uleb128 0x1
 2385 03c5 33       		.byte	0x33
 2386 03c6 00       		.byte	0
 2387 03c7 0E       		.uleb128 0xe
 2388 03c8 B0000000 		.4byte	.LVL55
 2389 03cc D7090000 		.4byte	0x9d7
 2390 03d0 0F       		.uleb128 0xf
 2391 03d1 01       		.uleb128 0x1
 2392 03d2 50       		.byte	0x50
 2393 03d3 02       		.uleb128 0x2
 2394 03d4 76       		.byte	0x76
 2395 03d5 00       		.sleb128 0
 2396 03d6 00       		.byte	0
 2397 03d7 00       		.byte	0
 2398 03d8 15       		.uleb128 0x15
 2399 03d9 29070000 		.4byte	.LASF43
 2400 03dd 01       		.byte	0x1
 2401 03de 4901     		.2byte	0x149
 2402 03e0 00000000 		.4byte	.LFB2
 2403 03e4 28000000 		.4byte	.LFE2-.LFB2
 2404 03e8 01       		.uleb128 0x1
 2405 03e9 9C       		.byte	0x9c
 2406 03ea 01040000 		.4byte	0x401
 2407 03ee 10       		.uleb128 0x10
 2408 03ef 16000000 		.4byte	.LVL57
 2409 03f3 F1020000 		.4byte	0x2f1
 2410 03f7 10       		.uleb128 0x10
 2411 03f8 20000000 		.4byte	.LVL58
 2412 03fc 7C030000 		.4byte	0x37c
 2413 0400 00       		.byte	0
 2414 0401 15       		.uleb128 0x15
 2415 0402 50040000 		.4byte	.LASF44
 2416 0406 01       		.byte	0x1
 2417 0407 6A01     		.2byte	0x16a
 2418 0409 00000000 		.4byte	.LFB3
 2419 040d E4000000 		.4byte	.LFE3-.LFB3
 2420 0411 01       		.uleb128 0x1
 2421 0412 9C       		.byte	0x9c
 2422 0413 54040000 		.4byte	0x454
 2423 0417 0D       		.uleb128 0xd
 2424 0418 5D060000 		.4byte	.LASF39
 2425 041c 01       		.byte	0x1
 2426 041d 6C01     		.2byte	0x16c
 2427 041f 72000000 		.4byte	0x72
 2428 0423 4F020000 		.4byte	.LLST13
 2429 0427 10       		.uleb128 0x10
 2430 0428 06000000 		.4byte	.LVL59
 2431 042c BB090000 		.4byte	0x9bb
 2432 0430 11       		.uleb128 0x11
 2433 0431 4C000000 		.4byte	.LVL61
 2434 0435 C6090000 		.4byte	0x9c6
 2435 0439 43040000 		.4byte	0x443
 2436 043d 0F       		.uleb128 0xf
 2437 043e 01       		.uleb128 0x1
ARM GAS  C:\Users\YongY\AppData\Local\Temp\ccMwH7lk.s 			page 80


 2438 043f 50       		.byte	0x50
 2439 0440 01       		.uleb128 0x1
 2440 0441 33       		.byte	0x33
 2441 0442 00       		.byte	0
 2442 0443 0E       		.uleb128 0xe
 2443 0444 CC000000 		.4byte	.LVL62
 2444 0448 D7090000 		.4byte	0x9d7
 2445 044c 0F       		.uleb128 0xf
 2446 044d 01       		.uleb128 0x1
 2447 044e 50       		.byte	0x50
 2448 044f 02       		.uleb128 0x2
 2449 0450 76       		.byte	0x76
 2450 0451 00       		.sleb128 0
 2451 0452 00       		.byte	0
 2452 0453 00       		.byte	0
 2453 0454 15       		.uleb128 0x15
 2454 0455 26030000 		.4byte	.LASF45
 2455 0459 01       		.byte	0x1
 2456 045a AD01     		.2byte	0x1ad
 2457 045c 00000000 		.4byte	.LFB4
 2458 0460 18000000 		.4byte	.LFE4-.LFB4
 2459 0464 01       		.uleb128 0x1
 2460 0465 9C       		.byte	0x9c
 2461 0466 8B040000 		.4byte	0x48b
 2462 046a 0C       		.uleb128 0xc
 2463 046b 2F040000 		.4byte	.LASF46
 2464 046f 01       		.byte	0x1
 2465 0470 AD01     		.2byte	0x1ad
 2466 0472 72000000 		.4byte	0x72
 2467 0476 62020000 		.4byte	.LLST14
 2468 047a 0D       		.uleb128 0xd
 2469 047b 3C070000 		.4byte	.LASF47
 2470 047f 01       		.byte	0x1
 2471 0480 AF01     		.2byte	0x1af
 2472 0482 72000000 		.4byte	0x72
 2473 0486 83020000 		.4byte	.LLST15
 2474 048a 00       		.byte	0
 2475 048b 15       		.uleb128 0x15
 2476 048c FA030000 		.4byte	.LASF48
 2477 0490 01       		.byte	0x1
 2478 0491 D101     		.2byte	0x1d1
 2479 0493 00000000 		.4byte	.LFB5
 2480 0497 18000000 		.4byte	.LFE5-.LFB5
 2481 049b 01       		.uleb128 0x1
 2482 049c 9C       		.byte	0x9c
 2483 049d C2040000 		.4byte	0x4c2
 2484 04a1 0C       		.uleb128 0xc
 2485 04a2 14040000 		.4byte	.LASF49
 2486 04a6 01       		.byte	0x1
 2487 04a7 D101     		.2byte	0x1d1
 2488 04a9 72000000 		.4byte	0x72
 2489 04ad A1020000 		.4byte	.LLST16
 2490 04b1 0D       		.uleb128 0xd
 2491 04b2 3C070000 		.4byte	.LASF47
 2492 04b6 01       		.byte	0x1
 2493 04b7 D301     		.2byte	0x1d3
 2494 04b9 72000000 		.4byte	0x72
ARM GAS  C:\Users\YongY\AppData\Local\Temp\ccMwH7lk.s 			page 81


 2495 04bd C2020000 		.4byte	.LLST17
 2496 04c1 00       		.byte	0
 2497 04c2 16       		.uleb128 0x16
 2498 04c3 48060000 		.4byte	.LASF53
 2499 04c7 01       		.byte	0x1
 2500 04c8 F901     		.2byte	0x1f9
 2501 04ca 72000000 		.4byte	0x72
 2502 04ce 00000000 		.4byte	.LFB6
 2503 04d2 74000000 		.4byte	.LFE6-.LFB6
 2504 04d6 01       		.uleb128 0x1
 2505 04d7 9C       		.byte	0x9c
 2506 04d8 1D050000 		.4byte	0x51d
 2507 04dc 0C       		.uleb128 0xc
 2508 04dd 03070000 		.4byte	.LASF50
 2509 04e1 01       		.byte	0x1
 2510 04e2 F901     		.2byte	0x1f9
 2511 04e4 B4000000 		.4byte	0xb4
 2512 04e8 E0020000 		.4byte	.LLST18
 2513 04ec 0D       		.uleb128 0xd
 2514 04ed 3C070000 		.4byte	.LASF47
 2515 04f1 01       		.byte	0x1
 2516 04f2 FB01     		.2byte	0x1fb
 2517 04f4 7D000000 		.4byte	0x7d
 2518 04f8 0E030000 		.4byte	.LLST19
 2519 04fc 0D       		.uleb128 0xd
 2520 04fd 6E060000 		.4byte	.LASF51
 2521 0501 01       		.byte	0x1
 2522 0502 FC01     		.2byte	0x1fc
 2523 0504 72000000 		.4byte	0x72
 2524 0508 46030000 		.4byte	.LLST20
 2525 050c 0D       		.uleb128 0xd
 2526 050d 15060000 		.4byte	.LASF52
 2527 0511 01       		.byte	0x1
 2528 0512 FD01     		.2byte	0x1fd
 2529 0514 B4000000 		.4byte	0xb4
 2530 0518 65030000 		.4byte	.LLST21
 2531 051c 00       		.byte	0
 2532 051d 17       		.uleb128 0x17
 2533 051e B2000000 		.4byte	.LASF54
 2534 0522 01       		.byte	0x1
 2535 0523 2802     		.2byte	0x228
 2536 0525 7D000000 		.4byte	0x7d
 2537 0529 00000000 		.4byte	.LFB7
 2538 052d 24000000 		.4byte	.LFE7-.LFB7
 2539 0531 01       		.uleb128 0x1
 2540 0532 9C       		.byte	0x9c
 2541 0533 58050000 		.4byte	0x558
 2542 0537 0D       		.uleb128 0xd
 2543 0538 DB050000 		.4byte	.LASF55
 2544 053c 01       		.byte	0x1
 2545 053d 2A02     		.2byte	0x22a
 2546 053f 72000000 		.4byte	0x72
 2547 0543 A4030000 		.4byte	.LLST22
 2548 0547 0D       		.uleb128 0xd
 2549 0548 41030000 		.4byte	.LASF34
 2550 054c 01       		.byte	0x1
 2551 054d 2B02     		.2byte	0x22b
ARM GAS  C:\Users\YongY\AppData\Local\Temp\ccMwH7lk.s 			page 82


 2552 054f 7D000000 		.4byte	0x7d
 2553 0553 B7030000 		.4byte	.LLST23
 2554 0557 00       		.byte	0
 2555 0558 18       		.uleb128 0x18
 2556 0559 AE030000 		.4byte	.LASF56
 2557 055d 01       		.byte	0x1
 2558 055e 4A02     		.2byte	0x24a
 2559 0560 00000000 		.4byte	.LFB8
 2560 0564 10000000 		.4byte	.LFE8-.LFB8
 2561 0568 01       		.uleb128 0x1
 2562 0569 9C       		.byte	0x9c
 2563 056a 18       		.uleb128 0x18
 2564 056b 1E060000 		.4byte	.LASF57
 2565 056f 01       		.byte	0x1
 2566 0570 6102     		.2byte	0x261
 2567 0572 00000000 		.4byte	.LFB9
 2568 0576 10000000 		.4byte	.LFE9-.LFB9
 2569 057a 01       		.uleb128 0x1
 2570 057b 9C       		.byte	0x9c
 2571 057c 17       		.uleb128 0x17
 2572 057d 21020000 		.4byte	.LASF58
 2573 0581 01       		.byte	0x1
 2574 0582 8402     		.2byte	0x284
 2575 0584 72000000 		.4byte	0x72
 2576 0588 00000000 		.4byte	.LFB10
 2577 058c 30000000 		.4byte	.LFE10-.LFB10
 2578 0590 01       		.uleb128 0x1
 2579 0591 9C       		.byte	0x9c
 2580 0592 B7050000 		.4byte	0x5b7
 2581 0596 0C       		.uleb128 0xc
 2582 0597 44020000 		.4byte	.LASF59
 2583 059b 01       		.byte	0x1
 2584 059c 8402     		.2byte	0x284
 2585 059e 72000000 		.4byte	0x72
 2586 05a2 D5030000 		.4byte	.LLST24
 2587 05a6 0D       		.uleb128 0xd
 2588 05a7 6E060000 		.4byte	.LASF51
 2589 05ab 01       		.byte	0x1
 2590 05ac 8602     		.2byte	0x286
 2591 05ae 72000000 		.4byte	0x72
 2592 05b2 F6030000 		.4byte	.LLST25
 2593 05b6 00       		.byte	0
 2594 05b7 17       		.uleb128 0x17
 2595 05b8 B2050000 		.4byte	.LASF60
 2596 05bc 01       		.byte	0x1
 2597 05bd B302     		.2byte	0x2b3
 2598 05bf 93000000 		.4byte	0x93
 2599 05c3 00000000 		.4byte	.LFB11
 2600 05c7 48000000 		.4byte	.LFE11-.LFB11
 2601 05cb 01       		.uleb128 0x1
 2602 05cc 9C       		.byte	0x9c
 2603 05cd F0050000 		.4byte	0x5f0
 2604 05d1 19       		.uleb128 0x19
 2605 05d2 43070000 		.4byte	.LASF61
 2606 05d6 01       		.byte	0x1
 2607 05d7 B502     		.2byte	0x2b5
 2608 05d9 93000000 		.4byte	0x93
ARM GAS  C:\Users\YongY\AppData\Local\Temp\ccMwH7lk.s 			page 83


 2609 05dd 01       		.uleb128 0x1
 2610 05de 50       		.byte	0x50
 2611 05df 0D       		.uleb128 0xd
 2612 05e0 14040000 		.4byte	.LASF49
 2613 05e4 01       		.byte	0x1
 2614 05e5 B602     		.2byte	0x2b6
 2615 05e7 72000000 		.4byte	0x72
 2616 05eb 14040000 		.4byte	.LLST26
 2617 05ef 00       		.byte	0
 2618 05f0 17       		.uleb128 0x17
 2619 05f1 76050000 		.4byte	.LASF62
 2620 05f5 01       		.byte	0x1
 2621 05f6 E902     		.2byte	0x2e9
 2622 05f8 9E000000 		.4byte	0x9e
 2623 05fc 00000000 		.4byte	.LFB12
 2624 0600 50000000 		.4byte	.LFE12-.LFB12
 2625 0604 01       		.uleb128 0x1
 2626 0605 9C       		.byte	0x9c
 2627 0606 2B060000 		.4byte	0x62b
 2628 060a 0D       		.uleb128 0xd
 2629 060b 43070000 		.4byte	.LASF61
 2630 060f 01       		.byte	0x1
 2631 0610 EB02     		.2byte	0x2eb
 2632 0612 7D000000 		.4byte	0x7d
 2633 0616 32040000 		.4byte	.LLST27
 2634 061a 0D       		.uleb128 0xd
 2635 061b 14040000 		.4byte	.LASF49
 2636 061f 01       		.byte	0x1
 2637 0620 EC02     		.2byte	0x2ec
 2638 0622 72000000 		.4byte	0x72
 2639 0626 5B040000 		.4byte	.LLST28
 2640 062a 00       		.byte	0
 2641 062b 17       		.uleb128 0x17
 2642 062c 4B030000 		.4byte	.LASF63
 2643 0630 01       		.byte	0x1
 2644 0631 2503     		.2byte	0x325
 2645 0633 A9000000 		.4byte	0xa9
 2646 0637 00000000 		.4byte	.LFB13
 2647 063b 6C000000 		.4byte	.LFE13-.LFB13
 2648 063f 01       		.uleb128 0x1
 2649 0640 9C       		.byte	0x9c
 2650 0641 66060000 		.4byte	0x666
 2651 0645 0D       		.uleb128 0xd
 2652 0646 43070000 		.4byte	.LASF61
 2653 064a 01       		.byte	0x1
 2654 064b 2703     		.2byte	0x327
 2655 064d 88000000 		.4byte	0x88
 2656 0651 79040000 		.4byte	.LLST29
 2657 0655 0D       		.uleb128 0xd
 2658 0656 14040000 		.4byte	.LASF49
 2659 065a 01       		.byte	0x1
 2660 065b 2803     		.2byte	0x328
 2661 065d 72000000 		.4byte	0x72
 2662 0661 DA040000 		.4byte	.LLST30
 2663 0665 00       		.byte	0
 2664 0666 15       		.uleb128 0x15
 2665 0667 22050000 		.4byte	.LASF64
ARM GAS  C:\Users\YongY\AppData\Local\Temp\ccMwH7lk.s 			page 84


 2666 066b 01       		.byte	0x1
 2667 066c 8203     		.2byte	0x382
 2668 066e 00000000 		.4byte	.LFB14
 2669 0672 0C000000 		.4byte	.LFE14-.LFB14
 2670 0676 01       		.uleb128 0x1
 2671 0677 9C       		.byte	0x9c
 2672 0678 8B060000 		.4byte	0x68b
 2673 067c 1A       		.uleb128 0x1a
 2674 067d 37060000 		.4byte	.LASF65
 2675 0681 01       		.byte	0x1
 2676 0682 8203     		.2byte	0x382
 2677 0684 A9000000 		.4byte	0xa9
 2678 0688 01       		.uleb128 0x1
 2679 0689 50       		.byte	0x50
 2680 068a 00       		.byte	0
 2681 068b 15       		.uleb128 0x15
 2682 068c 0E070000 		.4byte	.LASF66
 2683 0690 01       		.byte	0x1
 2684 0691 A503     		.2byte	0x3a5
 2685 0693 00000000 		.4byte	.LFB15
 2686 0697 0C000000 		.4byte	.LFE15-.LFB15
 2687 069b 01       		.uleb128 0x1
 2688 069c 9C       		.byte	0x9c
 2689 069d B0060000 		.4byte	0x6b0
 2690 06a1 1A       		.uleb128 0x1a
 2691 06a2 54000000 		.4byte	.LASF67
 2692 06a6 01       		.byte	0x1
 2693 06a7 A503     		.2byte	0x3a5
 2694 06a9 A9000000 		.4byte	0xa9
 2695 06ad 01       		.uleb128 0x1
 2696 06ae 50       		.byte	0x50
 2697 06af 00       		.byte	0
 2698 06b0 17       		.uleb128 0x17
 2699 06b1 C8000000 		.4byte	.LASF68
 2700 06b5 01       		.byte	0x1
 2701 06b6 C003     		.2byte	0x3c0
 2702 06b8 9E000000 		.4byte	0x9e
 2703 06bc 00000000 		.4byte	.LFB16
 2704 06c0 24000000 		.4byte	.LFE16-.LFB16
 2705 06c4 01       		.uleb128 0x1
 2706 06c5 9C       		.byte	0x9c
 2707 06c6 E9060000 		.4byte	0x6e9
 2708 06ca 0C       		.uleb128 0xc
 2709 06cb 3E060000 		.4byte	.LASF69
 2710 06cf 01       		.byte	0x1
 2711 06d0 C003     		.2byte	0x3c0
 2712 06d2 A9000000 		.4byte	0xa9
 2713 06d6 03050000 		.4byte	.LLST31
 2714 06da 19       		.uleb128 0x19
 2715 06db 78030000 		.4byte	.LASF70
 2716 06df 01       		.byte	0x1
 2717 06e0 C303     		.2byte	0x3c3
 2718 06e2 9E000000 		.4byte	0x9e
 2719 06e6 01       		.uleb128 0x1
 2720 06e7 50       		.byte	0x50
 2721 06e8 00       		.byte	0
 2722 06e9 16       		.uleb128 0x16
ARM GAS  C:\Users\YongY\AppData\Local\Temp\ccMwH7lk.s 			page 85


 2723 06ea 91000000 		.4byte	.LASF71
 2724 06ee 01       		.byte	0x1
 2725 06ef FD03     		.2byte	0x3fd
 2726 06f1 B4000000 		.4byte	0xb4
 2727 06f5 00000000 		.4byte	.LFB17
 2728 06f9 28000000 		.4byte	.LFE17-.LFB17
 2729 06fd 01       		.uleb128 0x1
 2730 06fe 9C       		.byte	0x9c
 2731 06ff 22070000 		.4byte	0x722
 2732 0703 0C       		.uleb128 0xc
 2733 0704 3E060000 		.4byte	.LASF69
 2734 0708 01       		.byte	0x1
 2735 0709 FD03     		.2byte	0x3fd
 2736 070b A9000000 		.4byte	0xa9
 2737 070f 21050000 		.4byte	.LLST32
 2738 0713 19       		.uleb128 0x19
 2739 0714 86010000 		.4byte	.LASF72
 2740 0718 01       		.byte	0x1
 2741 0719 0004     		.2byte	0x400
 2742 071b B4000000 		.4byte	0xb4
 2743 071f 01       		.uleb128 0x1
 2744 0720 50       		.byte	0x50
 2745 0721 00       		.byte	0
 2746 0722 17       		.uleb128 0x17
 2747 0723 67020000 		.4byte	.LASF73
 2748 0727 01       		.byte	0x1
 2749 0728 3F04     		.2byte	0x43f
 2750 072a A9000000 		.4byte	0xa9
 2751 072e 00000000 		.4byte	.LFB18
 2752 0732 78000000 		.4byte	.LFE18-.LFB18
 2753 0736 01       		.uleb128 0x1
 2754 0737 9C       		.byte	0x9c
 2755 0738 8D070000 		.4byte	0x78d
 2756 073c 0C       		.uleb128 0xc
 2757 073d 3E060000 		.4byte	.LASF69
 2758 0741 01       		.byte	0x1
 2759 0742 3F04     		.2byte	0x43f
 2760 0744 A9000000 		.4byte	0xa9
 2761 0748 4F050000 		.4byte	.LLST33
 2762 074c 0D       		.uleb128 0xd
 2763 074d 59020000 		.4byte	.LASF74
 2764 0751 01       		.byte	0x1
 2765 0752 4204     		.2byte	0x442
 2766 0754 A9000000 		.4byte	0xa9
 2767 0758 70050000 		.4byte	.LLST34
 2768 075c 0D       		.uleb128 0xd
 2769 075d CA050000 		.4byte	.LASF75
 2770 0761 01       		.byte	0x1
 2771 0762 4304     		.2byte	0x443
 2772 0764 A9000000 		.4byte	0xa9
 2773 0768 93050000 		.4byte	.LLST35
 2774 076c 0D       		.uleb128 0xd
 2775 076d D0050000 		.4byte	.LASF76
 2776 0771 01       		.byte	0x1
 2777 0772 4404     		.2byte	0x444
 2778 0774 A9000000 		.4byte	0xa9
 2779 0778 B6050000 		.4byte	.LLST36
ARM GAS  C:\Users\YongY\AppData\Local\Temp\ccMwH7lk.s 			page 86


 2780 077c 0D       		.uleb128 0xd
 2781 077d 8F050000 		.4byte	.LASF30
 2782 0781 01       		.byte	0x1
 2783 0782 4504     		.2byte	0x445
 2784 0784 72000000 		.4byte	0x72
 2785 0788 D5050000 		.4byte	.LLST37
 2786 078c 00       		.byte	0
 2787 078d 15       		.uleb128 0x15
 2788 078e 01050000 		.4byte	.LASF77
 2789 0792 01       		.byte	0x1
 2790 0793 1006     		.2byte	0x610
 2791 0795 00000000 		.4byte	.LFB20
 2792 0799 60000000 		.4byte	.LFE20-.LFB20
 2793 079d 01       		.uleb128 0x1
 2794 079e 9C       		.byte	0x9c
 2795 079f 02080000 		.4byte	0x802
 2796 07a3 0C       		.uleb128 0xc
 2797 07a4 60020000 		.4byte	.LASF31
 2798 07a8 01       		.byte	0x1
 2799 07a9 1006     		.2byte	0x610
 2800 07ab 72000000 		.4byte	0x72
 2801 07af E8050000 		.4byte	.LLST38
 2802 07b3 0C       		.uleb128 0xc
 2803 07b4 0D060000 		.4byte	.LASF78
 2804 07b8 01       		.byte	0x1
 2805 07b9 1006     		.2byte	0x610
 2806 07bb 72000000 		.4byte	0x72
 2807 07bf 22060000 		.4byte	.LLST39
 2808 07c3 10       		.uleb128 0x10
 2809 07c4 1E000000 		.4byte	.LVL148
 2810 07c8 01040000 		.4byte	0x401
 2811 07cc 11       		.uleb128 0x11
 2812 07cd 24000000 		.4byte	.LVL149
 2813 07d1 5F020000 		.4byte	0x25f
 2814 07d5 E0070000 		.4byte	0x7e0
 2815 07d9 0F       		.uleb128 0xf
 2816 07da 01       		.uleb128 0x1
 2817 07db 50       		.byte	0x50
 2818 07dc 02       		.uleb128 0x2
 2819 07dd 74       		.byte	0x74
 2820 07de 00       		.sleb128 0
 2821 07df 00       		.byte	0
 2822 07e0 10       		.uleb128 0x10
 2823 07e1 42000000 		.4byte	.LVL150
 2824 07e5 D8030000 		.4byte	0x3d8
 2825 07e9 10       		.uleb128 0x10
 2826 07ea 46000000 		.4byte	.LVL151
 2827 07ee 58050000 		.4byte	0x558
 2828 07f2 0E       		.uleb128 0xe
 2829 07f3 4E000000 		.4byte	.LVL154
 2830 07f7 AA090000 		.4byte	0x9aa
 2831 07fb 0F       		.uleb128 0xf
 2832 07fc 01       		.uleb128 0x1
 2833 07fd 50       		.byte	0x50
 2834 07fe 01       		.uleb128 0x1
 2835 07ff 30       		.byte	0x30
 2836 0800 00       		.byte	0
ARM GAS  C:\Users\YongY\AppData\Local\Temp\ccMwH7lk.s 			page 87


 2837 0801 00       		.byte	0
 2838 0802 17       		.uleb128 0x17
 2839 0803 12000000 		.4byte	.LASF79
 2840 0807 01       		.byte	0x1
 2841 0808 E206     		.2byte	0x6e2
 2842 080a 93000000 		.4byte	0x93
 2843 080e 00000000 		.4byte	.LFB23
 2844 0812 28000000 		.4byte	.LFE23-.LFB23
 2845 0816 01       		.uleb128 0x1
 2846 0817 9C       		.byte	0x9c
 2847 0818 5B080000 		.4byte	0x85b
 2848 081c 0D       		.uleb128 0xd
 2849 081d 43070000 		.4byte	.LASF61
 2850 0821 01       		.byte	0x1
 2851 0822 E406     		.2byte	0x6e4
 2852 0824 93000000 		.4byte	0x93
 2853 0828 5C060000 		.4byte	.LLST40
 2854 082c 10       		.uleb128 0x10
 2855 082d 10000000 		.4byte	.LVL155
 2856 0831 58050000 		.4byte	0x558
 2857 0835 11       		.uleb128 0x11
 2858 0836 16000000 		.4byte	.LVL156
 2859 083a 7C050000 		.4byte	0x57c
 2860 083e 48080000 		.4byte	0x848
 2861 0842 0F       		.uleb128 0xf
 2862 0843 01       		.uleb128 0x1
 2863 0844 50       		.byte	0x50
 2864 0845 01       		.uleb128 0x1
 2865 0846 30       		.byte	0x30
 2866 0847 00       		.byte	0
 2867 0848 10       		.uleb128 0x10
 2868 0849 1A000000 		.4byte	.LVL157
 2869 084d B7050000 		.4byte	0x5b7
 2870 0851 10       		.uleb128 0x10
 2871 0852 20000000 		.4byte	.LVL159
 2872 0856 6A050000 		.4byte	0x56a
 2873 085a 00       		.byte	0
 2874 085b 17       		.uleb128 0x17
 2875 085c E5020000 		.4byte	.LASF80
 2876 0860 01       		.byte	0x1
 2877 0861 0307     		.2byte	0x703
 2878 0863 9E000000 		.4byte	0x9e
 2879 0867 00000000 		.4byte	.LFB24
 2880 086b 28000000 		.4byte	.LFE24-.LFB24
 2881 086f 01       		.uleb128 0x1
 2882 0870 9C       		.byte	0x9c
 2883 0871 B4080000 		.4byte	0x8b4
 2884 0875 0D       		.uleb128 0xd
 2885 0876 43070000 		.4byte	.LASF61
 2886 087a 01       		.byte	0x1
 2887 087b 0507     		.2byte	0x705
 2888 087d 9E000000 		.4byte	0x9e
 2889 0881 6F060000 		.4byte	.LLST41
 2890 0885 10       		.uleb128 0x10
 2891 0886 10000000 		.4byte	.LVL161
 2892 088a 58050000 		.4byte	0x558
 2893 088e 11       		.uleb128 0x11
ARM GAS  C:\Users\YongY\AppData\Local\Temp\ccMwH7lk.s 			page 88


 2894 088f 16000000 		.4byte	.LVL162
 2895 0893 7C050000 		.4byte	0x57c
 2896 0897 A1080000 		.4byte	0x8a1
 2897 089b 0F       		.uleb128 0xf
 2898 089c 01       		.uleb128 0x1
 2899 089d 50       		.byte	0x50
 2900 089e 01       		.uleb128 0x1
 2901 089f 30       		.byte	0x30
 2902 08a0 00       		.byte	0
 2903 08a1 10       		.uleb128 0x10
 2904 08a2 1A000000 		.4byte	.LVL163
 2905 08a6 F0050000 		.4byte	0x5f0
 2906 08aa 10       		.uleb128 0x10
 2907 08ab 20000000 		.4byte	.LVL165
 2908 08af 6A050000 		.4byte	0x56a
 2909 08b3 00       		.byte	0
 2910 08b4 17       		.uleb128 0x17
 2911 08b5 93040000 		.4byte	.LASF81
 2912 08b9 01       		.byte	0x1
 2913 08ba 2407     		.2byte	0x724
 2914 08bc A9000000 		.4byte	0xa9
 2915 08c0 00000000 		.4byte	.LFB25
 2916 08c4 28000000 		.4byte	.LFE25-.LFB25
 2917 08c8 01       		.uleb128 0x1
 2918 08c9 9C       		.byte	0x9c
 2919 08ca 0D090000 		.4byte	0x90d
 2920 08ce 0D       		.uleb128 0xd
 2921 08cf 43070000 		.4byte	.LASF61
 2922 08d3 01       		.byte	0x1
 2923 08d4 2607     		.2byte	0x726
 2924 08d6 A9000000 		.4byte	0xa9
 2925 08da 82060000 		.4byte	.LLST42
 2926 08de 10       		.uleb128 0x10
 2927 08df 10000000 		.4byte	.LVL167
 2928 08e3 58050000 		.4byte	0x558
 2929 08e7 11       		.uleb128 0x11
 2930 08e8 16000000 		.4byte	.LVL168
 2931 08ec 7C050000 		.4byte	0x57c
 2932 08f0 FA080000 		.4byte	0x8fa
 2933 08f4 0F       		.uleb128 0xf
 2934 08f5 01       		.uleb128 0x1
 2935 08f6 50       		.byte	0x50
 2936 08f7 01       		.uleb128 0x1
 2937 08f8 30       		.byte	0x30
 2938 08f9 00       		.byte	0
 2939 08fa 10       		.uleb128 0x10
 2940 08fb 1A000000 		.4byte	.LVL169
 2941 08ff 2B060000 		.4byte	0x62b
 2942 0903 10       		.uleb128 0x10
 2943 0904 20000000 		.4byte	.LVL171
 2944 0908 6A050000 		.4byte	0x56a
 2945 090c 00       		.byte	0
 2946 090d 1B       		.uleb128 0x1b
 2947 090e 3B010000 		.4byte	0x13b
 2948 0912 1D090000 		.4byte	0x91d
 2949 0916 1C       		.uleb128 0x1c
 2950 0917 13010000 		.4byte	0x113
ARM GAS  C:\Users\YongY\AppData\Local\Temp\ccMwH7lk.s 			page 89


 2951 091b 00       		.byte	0
 2952 091c 00       		.byte	0
 2953 091d 1D       		.uleb128 0x1d
 2954 091e 8B030000 		.4byte	.LASF82
 2955 0922 01       		.byte	0x1
 2956 0923 3D       		.byte	0x3d
 2957 0924 0D090000 		.4byte	0x90d
 2958 0928 05       		.uleb128 0x5
 2959 0929 03       		.byte	0x3
 2960 092a 00000000 		.4byte	ADC_SOUND_IN_gcor
 2961 092e 1E       		.uleb128 0x1e
 2962 092f 62040000 		.4byte	.LASF83
 2963 0933 01       		.byte	0x1
 2964 0934 2C       		.byte	0x2c
 2965 0935 72000000 		.4byte	0x72
 2966 0939 05       		.uleb128 0x5
 2967 093a 03       		.byte	0x3
 2968 093b 00000000 		.4byte	ADC_SOUND_IN_initVar
 2969 093f 1E       		.uleb128 0x1e
 2970 0940 34040000 		.4byte	.LASF84
 2971 0944 01       		.byte	0x1
 2972 0945 24       		.byte	0x24
 2973 0946 D9000000 		.4byte	0xd9
 2974 094a 05       		.uleb128 0x5
 2975 094b 03       		.byte	0x3
 2976 094c 00000000 		.4byte	ADC_SOUND_IN_convDone
 2977 0950 1E       		.uleb128 0x1e
 2978 0951 77040000 		.4byte	.LASF85
 2979 0955 01       		.byte	0x1
 2980 0956 29       		.byte	0x29
 2981 0957 D9000000 		.4byte	0xd9
 2982 095b 05       		.uleb128 0x5
 2983 095c 03       		.byte	0x3
 2984 095d 00000000 		.4byte	ADC_SOUND_IN_stopConversion
 2985 0961 1E       		.uleb128 0x1e
 2986 0962 F9020000 		.4byte	.LASF86
 2987 0966 01       		.byte	0x1
 2988 0967 2F       		.byte	0x2f
 2989 0968 D9000000 		.4byte	0xd9
 2990 096c 05       		.uleb128 0x5
 2991 096d 03       		.byte	0x3
 2992 096e 00000000 		.4byte	ADC_SOUND_IN_started
 2993 0972 1E       		.uleb128 0x1e
 2994 0973 0D020000 		.4byte	.LASF87
 2995 0977 01       		.byte	0x1
 2996 0978 32       		.byte	0x32
 2997 0979 D9000000 		.4byte	0xd9
 2998 097d 05       		.uleb128 0x5
 2999 097e 03       		.byte	0x3
 3000 097f 00000000 		.4byte	ADC_SOUND_IN_Config
 3001 0983 1E       		.uleb128 0x1e
 3002 0984 7D000000 		.4byte	.LASF88
 3003 0988 01       		.byte	0x1
 3004 0989 34       		.byte	0x34
 3005 098a 94090000 		.4byte	0x994
 3006 098e 05       		.uleb128 0x5
 3007 098f 03       		.byte	0x3
ARM GAS  C:\Users\YongY\AppData\Local\Temp\ccMwH7lk.s 			page 90


 3008 0990 00000000 		.4byte	ADC_SOUND_IN_Offset
 3009 0994 06       		.uleb128 0x6
 3010 0995 A9000000 		.4byte	0xa9
 3011 0999 1E       		.uleb128 0x1e
 3012 099a 4E010000 		.4byte	.LASF89
 3013 099e 01       		.byte	0x1
 3014 099f 35       		.byte	0x35
 3015 09a0 94090000 		.4byte	0x994
 3016 09a4 05       		.uleb128 0x5
 3017 09a5 03       		.byte	0x3
 3018 09a6 00000000 		.4byte	ADC_SOUND_IN_CountsPerVolt
 3019 09aa 1F       		.uleb128 0x1f
 3020 09ab EC040000 		.4byte	.LASF90
 3021 09af 04       		.byte	0x4
 3022 09b0 80       		.byte	0x80
 3023 09b1 BB090000 		.4byte	0x9bb
 3024 09b5 20       		.uleb128 0x20
 3025 09b6 72000000 		.4byte	0x72
 3026 09ba 00       		.byte	0
 3027 09bb 21       		.uleb128 0x21
 3028 09bc C8030000 		.4byte	.LASF101
 3029 09c0 04       		.byte	0x4
 3030 09c1 7E       		.byte	0x7e
 3031 09c2 72000000 		.4byte	0x72
 3032 09c6 1F       		.uleb128 0x1f
 3033 09c7 75010000 		.4byte	.LASF91
 3034 09cb 04       		.byte	0x4
 3035 09cc 78       		.byte	0x78
 3036 09cd D7090000 		.4byte	0x9d7
 3037 09d1 20       		.uleb128 0x20
 3038 09d2 7D000000 		.4byte	0x7d
 3039 09d6 00       		.byte	0
 3040 09d7 1F       		.uleb128 0x1f
 3041 09d8 5C000000 		.4byte	.LASF92
 3042 09dc 04       		.byte	0x4
 3043 09dd 7F       		.byte	0x7f
 3044 09de E8090000 		.4byte	0x9e8
 3045 09e2 20       		.uleb128 0x20
 3046 09e3 72000000 		.4byte	0x72
 3047 09e7 00       		.byte	0
 3048 09e8 1F       		.uleb128 0x1f
 3049 09e9 FC000000 		.4byte	.LASF93
 3050 09ed 05       		.byte	0x5
 3051 09ee 50       		.byte	0x50
 3052 09ef F9090000 		.4byte	0x9f9
 3053 09f3 20       		.uleb128 0x20
 3054 09f4 72000000 		.4byte	0x72
 3055 09f8 00       		.byte	0
 3056 09f9 1F       		.uleb128 0x1f
 3057 09fa 39050000 		.4byte	.LASF94
 3058 09fe 06       		.byte	0x6
 3059 09ff 2F       		.byte	0x2f
 3060 0a00 0F0A0000 		.4byte	0xa0f
 3061 0a04 20       		.uleb128 0x20
 3062 0a05 7D000000 		.4byte	0x7d
 3063 0a09 20       		.uleb128 0x20
 3064 0a0a 72000000 		.4byte	0x72
ARM GAS  C:\Users\YongY\AppData\Local\Temp\ccMwH7lk.s 			page 91


 3065 0a0e 00       		.byte	0
 3066 0a0f 1F       		.uleb128 0x1f
 3067 0a10 AC040000 		.4byte	.LASF95
 3068 0a14 07       		.byte	0x7
 3069 0a15 2F       		.byte	0x2f
 3070 0a16 250A0000 		.4byte	0xa25
 3071 0a1a 20       		.uleb128 0x20
 3072 0a1b 7D000000 		.4byte	0x7d
 3073 0a1f 20       		.uleb128 0x20
 3074 0a20 72000000 		.4byte	0x72
 3075 0a24 00       		.byte	0
 3076 0a25 22       		.uleb128 0x22
 3077 0a26 B8010000 		.4byte	.LASF102
 3078 0a2a 04       		.byte	0x4
 3079 0a2b 89       		.byte	0x89
 3080 0a2c 00010000 		.4byte	0x100
 3081 0a30 3F0A0000 		.4byte	0xa3f
 3082 0a34 20       		.uleb128 0x20
 3083 0a35 72000000 		.4byte	0x72
 3084 0a39 20       		.uleb128 0x20
 3085 0a3a 00010000 		.4byte	0x100
 3086 0a3e 00       		.byte	0
 3087 0a3f 1F       		.uleb128 0x1f
 3088 0a40 2C000000 		.4byte	.LASF96
 3089 0a44 06       		.byte	0x6
 3090 0a45 32       		.byte	0x32
 3091 0a46 500A0000 		.4byte	0xa50
 3092 0a4a 20       		.uleb128 0x20
 3093 0a4b 72000000 		.4byte	0x72
 3094 0a4f 00       		.byte	0
 3095 0a50 1F       		.uleb128 0x1f
 3096 0a51 8C010000 		.4byte	.LASF97
 3097 0a55 07       		.byte	0x7
 3098 0a56 32       		.byte	0x32
 3099 0a57 610A0000 		.4byte	0xa61
 3100 0a5b 20       		.uleb128 0x20
 3101 0a5c 72000000 		.4byte	0x72
 3102 0a60 00       		.byte	0
 3103 0a61 23       		.uleb128 0x23
 3104 0a62 1E040000 		.4byte	.LASF103
 3105 0a66 04       		.byte	0x4
 3106 0a67 8C       		.byte	0x8c
 3107 0a68 20       		.uleb128 0x20
 3108 0a69 72000000 		.4byte	0x72
 3109 0a6d 20       		.uleb128 0x20
 3110 0a6e 72000000 		.4byte	0x72
 3111 0a72 00       		.byte	0
 3112 0a73 00       		.byte	0
 3113              		.section	.debug_abbrev,"",%progbits
 3114              	.Ldebug_abbrev0:
 3115 0000 01       		.uleb128 0x1
 3116 0001 11       		.uleb128 0x11
 3117 0002 01       		.byte	0x1
 3118 0003 25       		.uleb128 0x25
 3119 0004 0E       		.uleb128 0xe
 3120 0005 13       		.uleb128 0x13
 3121 0006 0B       		.uleb128 0xb
ARM GAS  C:\Users\YongY\AppData\Local\Temp\ccMwH7lk.s 			page 92


 3122 0007 03       		.uleb128 0x3
 3123 0008 0E       		.uleb128 0xe
 3124 0009 1B       		.uleb128 0x1b
 3125 000a 0E       		.uleb128 0xe
 3126 000b 55       		.uleb128 0x55
 3127 000c 17       		.uleb128 0x17
 3128 000d 11       		.uleb128 0x11
 3129 000e 01       		.uleb128 0x1
 3130 000f 10       		.uleb128 0x10
 3131 0010 17       		.uleb128 0x17
 3132 0011 00       		.byte	0
 3133 0012 00       		.byte	0
 3134 0013 02       		.uleb128 0x2
 3135 0014 24       		.uleb128 0x24
 3136 0015 00       		.byte	0
 3137 0016 0B       		.uleb128 0xb
 3138 0017 0B       		.uleb128 0xb
 3139 0018 3E       		.uleb128 0x3e
 3140 0019 0B       		.uleb128 0xb
 3141 001a 03       		.uleb128 0x3
 3142 001b 0E       		.uleb128 0xe
 3143 001c 00       		.byte	0
 3144 001d 00       		.byte	0
 3145 001e 03       		.uleb128 0x3
 3146 001f 24       		.uleb128 0x24
 3147 0020 00       		.byte	0
 3148 0021 0B       		.uleb128 0xb
 3149 0022 0B       		.uleb128 0xb
 3150 0023 3E       		.uleb128 0x3e
 3151 0024 0B       		.uleb128 0xb
 3152 0025 03       		.uleb128 0x3
 3153 0026 08       		.uleb128 0x8
 3154 0027 00       		.byte	0
 3155 0028 00       		.byte	0
 3156 0029 04       		.uleb128 0x4
 3157 002a 16       		.uleb128 0x16
 3158 002b 00       		.byte	0
 3159 002c 03       		.uleb128 0x3
 3160 002d 0E       		.uleb128 0xe
 3161 002e 3A       		.uleb128 0x3a
 3162 002f 0B       		.uleb128 0xb
 3163 0030 3B       		.uleb128 0x3b
 3164 0031 0B       		.uleb128 0xb
 3165 0032 49       		.uleb128 0x49
 3166 0033 13       		.uleb128 0x13
 3167 0034 00       		.byte	0
 3168 0035 00       		.byte	0
 3169 0036 05       		.uleb128 0x5
 3170 0037 16       		.uleb128 0x16
 3171 0038 00       		.byte	0
 3172 0039 03       		.uleb128 0x3
 3173 003a 0E       		.uleb128 0xe
 3174 003b 3A       		.uleb128 0x3a
 3175 003c 0B       		.uleb128 0xb
 3176 003d 3B       		.uleb128 0x3b
 3177 003e 05       		.uleb128 0x5
 3178 003f 49       		.uleb128 0x49
ARM GAS  C:\Users\YongY\AppData\Local\Temp\ccMwH7lk.s 			page 93


 3179 0040 13       		.uleb128 0x13
 3180 0041 00       		.byte	0
 3181 0042 00       		.byte	0
 3182 0043 06       		.uleb128 0x6
 3183 0044 35       		.uleb128 0x35
 3184 0045 00       		.byte	0
 3185 0046 49       		.uleb128 0x49
 3186 0047 13       		.uleb128 0x13
 3187 0048 00       		.byte	0
 3188 0049 00       		.byte	0
 3189 004a 07       		.uleb128 0x7
 3190 004b 0F       		.uleb128 0xf
 3191 004c 00       		.byte	0
 3192 004d 0B       		.uleb128 0xb
 3193 004e 0B       		.uleb128 0xb
 3194 004f 49       		.uleb128 0x49
 3195 0050 13       		.uleb128 0x13
 3196 0051 00       		.byte	0
 3197 0052 00       		.byte	0
 3198 0053 08       		.uleb128 0x8
 3199 0054 15       		.uleb128 0x15
 3200 0055 00       		.byte	0
 3201 0056 27       		.uleb128 0x27
 3202 0057 19       		.uleb128 0x19
 3203 0058 00       		.byte	0
 3204 0059 00       		.byte	0
 3205 005a 09       		.uleb128 0x9
 3206 005b 13       		.uleb128 0x13
 3207 005c 01       		.byte	0x1
 3208 005d 0B       		.uleb128 0xb
 3209 005e 0B       		.uleb128 0xb
 3210 005f 3A       		.uleb128 0x3a
 3211 0060 0B       		.uleb128 0xb
 3212 0061 3B       		.uleb128 0x3b
 3213 0062 0B       		.uleb128 0xb
 3214 0063 01       		.uleb128 0x1
 3215 0064 13       		.uleb128 0x13
 3216 0065 00       		.byte	0
 3217 0066 00       		.byte	0
 3218 0067 0A       		.uleb128 0xa
 3219 0068 0D       		.uleb128 0xd
 3220 0069 00       		.byte	0
 3221 006a 03       		.uleb128 0x3
 3222 006b 0E       		.uleb128 0xe
 3223 006c 3A       		.uleb128 0x3a
 3224 006d 0B       		.uleb128 0xb
 3225 006e 3B       		.uleb128 0x3b
 3226 006f 0B       		.uleb128 0xb
 3227 0070 49       		.uleb128 0x49
 3228 0071 13       		.uleb128 0x13
 3229 0072 38       		.uleb128 0x38
 3230 0073 0B       		.uleb128 0xb
 3231 0074 00       		.byte	0
 3232 0075 00       		.byte	0
 3233 0076 0B       		.uleb128 0xb
 3234 0077 2E       		.uleb128 0x2e
 3235 0078 01       		.byte	0x1
ARM GAS  C:\Users\YongY\AppData\Local\Temp\ccMwH7lk.s 			page 94


 3236 0079 03       		.uleb128 0x3
 3237 007a 0E       		.uleb128 0xe
 3238 007b 3A       		.uleb128 0x3a
 3239 007c 0B       		.uleb128 0xb
 3240 007d 3B       		.uleb128 0x3b
 3241 007e 05       		.uleb128 0x5
 3242 007f 27       		.uleb128 0x27
 3243 0080 19       		.uleb128 0x19
 3244 0081 11       		.uleb128 0x11
 3245 0082 01       		.uleb128 0x1
 3246 0083 12       		.uleb128 0x12
 3247 0084 06       		.uleb128 0x6
 3248 0085 40       		.uleb128 0x40
 3249 0086 18       		.uleb128 0x18
 3250 0087 9742     		.uleb128 0x2117
 3251 0089 19       		.uleb128 0x19
 3252 008a 01       		.uleb128 0x1
 3253 008b 13       		.uleb128 0x13
 3254 008c 00       		.byte	0
 3255 008d 00       		.byte	0
 3256 008e 0C       		.uleb128 0xc
 3257 008f 05       		.uleb128 0x5
 3258 0090 00       		.byte	0
 3259 0091 03       		.uleb128 0x3
 3260 0092 0E       		.uleb128 0xe
 3261 0093 3A       		.uleb128 0x3a
 3262 0094 0B       		.uleb128 0xb
 3263 0095 3B       		.uleb128 0x3b
 3264 0096 05       		.uleb128 0x5
 3265 0097 49       		.uleb128 0x49
 3266 0098 13       		.uleb128 0x13
 3267 0099 02       		.uleb128 0x2
 3268 009a 17       		.uleb128 0x17
 3269 009b 00       		.byte	0
 3270 009c 00       		.byte	0
 3271 009d 0D       		.uleb128 0xd
 3272 009e 34       		.uleb128 0x34
 3273 009f 00       		.byte	0
 3274 00a0 03       		.uleb128 0x3
 3275 00a1 0E       		.uleb128 0xe
 3276 00a2 3A       		.uleb128 0x3a
 3277 00a3 0B       		.uleb128 0xb
 3278 00a4 3B       		.uleb128 0x3b
 3279 00a5 05       		.uleb128 0x5
 3280 00a6 49       		.uleb128 0x49
 3281 00a7 13       		.uleb128 0x13
 3282 00a8 02       		.uleb128 0x2
 3283 00a9 17       		.uleb128 0x17
 3284 00aa 00       		.byte	0
 3285 00ab 00       		.byte	0
 3286 00ac 0E       		.uleb128 0xe
 3287 00ad 898201   		.uleb128 0x4109
 3288 00b0 01       		.byte	0x1
 3289 00b1 11       		.uleb128 0x11
 3290 00b2 01       		.uleb128 0x1
 3291 00b3 31       		.uleb128 0x31
 3292 00b4 13       		.uleb128 0x13
ARM GAS  C:\Users\YongY\AppData\Local\Temp\ccMwH7lk.s 			page 95


 3293 00b5 00       		.byte	0
 3294 00b6 00       		.byte	0
 3295 00b7 0F       		.uleb128 0xf
 3296 00b8 8A8201   		.uleb128 0x410a
 3297 00bb 00       		.byte	0
 3298 00bc 02       		.uleb128 0x2
 3299 00bd 18       		.uleb128 0x18
 3300 00be 9142     		.uleb128 0x2111
 3301 00c0 18       		.uleb128 0x18
 3302 00c1 00       		.byte	0
 3303 00c2 00       		.byte	0
 3304 00c3 10       		.uleb128 0x10
 3305 00c4 898201   		.uleb128 0x4109
 3306 00c7 00       		.byte	0
 3307 00c8 11       		.uleb128 0x11
 3308 00c9 01       		.uleb128 0x1
 3309 00ca 31       		.uleb128 0x31
 3310 00cb 13       		.uleb128 0x13
 3311 00cc 00       		.byte	0
 3312 00cd 00       		.byte	0
 3313 00ce 11       		.uleb128 0x11
 3314 00cf 898201   		.uleb128 0x4109
 3315 00d2 01       		.byte	0x1
 3316 00d3 11       		.uleb128 0x11
 3317 00d4 01       		.uleb128 0x1
 3318 00d5 31       		.uleb128 0x31
 3319 00d6 13       		.uleb128 0x13
 3320 00d7 01       		.uleb128 0x1
 3321 00d8 13       		.uleb128 0x13
 3322 00d9 00       		.byte	0
 3323 00da 00       		.byte	0
 3324 00db 12       		.uleb128 0x12
 3325 00dc 2E       		.uleb128 0x2e
 3326 00dd 01       		.byte	0x1
 3327 00de 3F       		.uleb128 0x3f
 3328 00df 19       		.uleb128 0x19
 3329 00e0 03       		.uleb128 0x3
 3330 00e1 0E       		.uleb128 0xe
 3331 00e2 3A       		.uleb128 0x3a
 3332 00e3 0B       		.uleb128 0xb
 3333 00e4 3B       		.uleb128 0x3b
 3334 00e5 0B       		.uleb128 0xb
 3335 00e6 27       		.uleb128 0x27
 3336 00e7 19       		.uleb128 0x19
 3337 00e8 11       		.uleb128 0x11
 3338 00e9 01       		.uleb128 0x1
 3339 00ea 12       		.uleb128 0x12
 3340 00eb 06       		.uleb128 0x6
 3341 00ec 40       		.uleb128 0x40
 3342 00ed 18       		.uleb128 0x18
 3343 00ee 9742     		.uleb128 0x2117
 3344 00f0 19       		.uleb128 0x19
 3345 00f1 01       		.uleb128 0x1
 3346 00f2 13       		.uleb128 0x13
 3347 00f3 00       		.byte	0
 3348 00f4 00       		.byte	0
 3349 00f5 13       		.uleb128 0x13
ARM GAS  C:\Users\YongY\AppData\Local\Temp\ccMwH7lk.s 			page 96


 3350 00f6 34       		.uleb128 0x34
 3351 00f7 00       		.byte	0
 3352 00f8 03       		.uleb128 0x3
 3353 00f9 0E       		.uleb128 0xe
 3354 00fa 3A       		.uleb128 0x3a
 3355 00fb 0B       		.uleb128 0xb
 3356 00fc 3B       		.uleb128 0x3b
 3357 00fd 0B       		.uleb128 0xb
 3358 00fe 49       		.uleb128 0x49
 3359 00ff 13       		.uleb128 0x13
 3360 0100 00       		.byte	0
 3361 0101 00       		.byte	0
 3362 0102 14       		.uleb128 0x14
 3363 0103 34       		.uleb128 0x34
 3364 0104 00       		.byte	0
 3365 0105 03       		.uleb128 0x3
 3366 0106 0E       		.uleb128 0xe
 3367 0107 3A       		.uleb128 0x3a
 3368 0108 0B       		.uleb128 0xb
 3369 0109 3B       		.uleb128 0x3b
 3370 010a 0B       		.uleb128 0xb
 3371 010b 49       		.uleb128 0x49
 3372 010c 13       		.uleb128 0x13
 3373 010d 02       		.uleb128 0x2
 3374 010e 17       		.uleb128 0x17
 3375 010f 00       		.byte	0
 3376 0110 00       		.byte	0
 3377 0111 15       		.uleb128 0x15
 3378 0112 2E       		.uleb128 0x2e
 3379 0113 01       		.byte	0x1
 3380 0114 3F       		.uleb128 0x3f
 3381 0115 19       		.uleb128 0x19
 3382 0116 03       		.uleb128 0x3
 3383 0117 0E       		.uleb128 0xe
 3384 0118 3A       		.uleb128 0x3a
 3385 0119 0B       		.uleb128 0xb
 3386 011a 3B       		.uleb128 0x3b
 3387 011b 05       		.uleb128 0x5
 3388 011c 27       		.uleb128 0x27
 3389 011d 19       		.uleb128 0x19
 3390 011e 11       		.uleb128 0x11
 3391 011f 01       		.uleb128 0x1
 3392 0120 12       		.uleb128 0x12
 3393 0121 06       		.uleb128 0x6
 3394 0122 40       		.uleb128 0x40
 3395 0123 18       		.uleb128 0x18
 3396 0124 9742     		.uleb128 0x2117
 3397 0126 19       		.uleb128 0x19
 3398 0127 01       		.uleb128 0x1
 3399 0128 13       		.uleb128 0x13
 3400 0129 00       		.byte	0
 3401 012a 00       		.byte	0
 3402 012b 16       		.uleb128 0x16
 3403 012c 2E       		.uleb128 0x2e
 3404 012d 01       		.byte	0x1
 3405 012e 3F       		.uleb128 0x3f
 3406 012f 19       		.uleb128 0x19
ARM GAS  C:\Users\YongY\AppData\Local\Temp\ccMwH7lk.s 			page 97


 3407 0130 03       		.uleb128 0x3
 3408 0131 0E       		.uleb128 0xe
 3409 0132 3A       		.uleb128 0x3a
 3410 0133 0B       		.uleb128 0xb
 3411 0134 3B       		.uleb128 0x3b
 3412 0135 05       		.uleb128 0x5
 3413 0136 27       		.uleb128 0x27
 3414 0137 19       		.uleb128 0x19
 3415 0138 49       		.uleb128 0x49
 3416 0139 13       		.uleb128 0x13
 3417 013a 11       		.uleb128 0x11
 3418 013b 01       		.uleb128 0x1
 3419 013c 12       		.uleb128 0x12
 3420 013d 06       		.uleb128 0x6
 3421 013e 40       		.uleb128 0x40
 3422 013f 18       		.uleb128 0x18
 3423 0140 9642     		.uleb128 0x2116
 3424 0142 19       		.uleb128 0x19
 3425 0143 01       		.uleb128 0x1
 3426 0144 13       		.uleb128 0x13
 3427 0145 00       		.byte	0
 3428 0146 00       		.byte	0
 3429 0147 17       		.uleb128 0x17
 3430 0148 2E       		.uleb128 0x2e
 3431 0149 01       		.byte	0x1
 3432 014a 3F       		.uleb128 0x3f
 3433 014b 19       		.uleb128 0x19
 3434 014c 03       		.uleb128 0x3
 3435 014d 0E       		.uleb128 0xe
 3436 014e 3A       		.uleb128 0x3a
 3437 014f 0B       		.uleb128 0xb
 3438 0150 3B       		.uleb128 0x3b
 3439 0151 05       		.uleb128 0x5
 3440 0152 27       		.uleb128 0x27
 3441 0153 19       		.uleb128 0x19
 3442 0154 49       		.uleb128 0x49
 3443 0155 13       		.uleb128 0x13
 3444 0156 11       		.uleb128 0x11
 3445 0157 01       		.uleb128 0x1
 3446 0158 12       		.uleb128 0x12
 3447 0159 06       		.uleb128 0x6
 3448 015a 40       		.uleb128 0x40
 3449 015b 18       		.uleb128 0x18
 3450 015c 9742     		.uleb128 0x2117
 3451 015e 19       		.uleb128 0x19
 3452 015f 01       		.uleb128 0x1
 3453 0160 13       		.uleb128 0x13
 3454 0161 00       		.byte	0
 3455 0162 00       		.byte	0
 3456 0163 18       		.uleb128 0x18
 3457 0164 2E       		.uleb128 0x2e
 3458 0165 00       		.byte	0
 3459 0166 3F       		.uleb128 0x3f
 3460 0167 19       		.uleb128 0x19
 3461 0168 03       		.uleb128 0x3
 3462 0169 0E       		.uleb128 0xe
 3463 016a 3A       		.uleb128 0x3a
ARM GAS  C:\Users\YongY\AppData\Local\Temp\ccMwH7lk.s 			page 98


 3464 016b 0B       		.uleb128 0xb
 3465 016c 3B       		.uleb128 0x3b
 3466 016d 05       		.uleb128 0x5
 3467 016e 27       		.uleb128 0x27
 3468 016f 19       		.uleb128 0x19
 3469 0170 11       		.uleb128 0x11
 3470 0171 01       		.uleb128 0x1
 3471 0172 12       		.uleb128 0x12
 3472 0173 06       		.uleb128 0x6
 3473 0174 40       		.uleb128 0x40
 3474 0175 18       		.uleb128 0x18
 3475 0176 9742     		.uleb128 0x2117
 3476 0178 19       		.uleb128 0x19
 3477 0179 00       		.byte	0
 3478 017a 00       		.byte	0
 3479 017b 19       		.uleb128 0x19
 3480 017c 34       		.uleb128 0x34
 3481 017d 00       		.byte	0
 3482 017e 03       		.uleb128 0x3
 3483 017f 0E       		.uleb128 0xe
 3484 0180 3A       		.uleb128 0x3a
 3485 0181 0B       		.uleb128 0xb
 3486 0182 3B       		.uleb128 0x3b
 3487 0183 05       		.uleb128 0x5
 3488 0184 49       		.uleb128 0x49
 3489 0185 13       		.uleb128 0x13
 3490 0186 02       		.uleb128 0x2
 3491 0187 18       		.uleb128 0x18
 3492 0188 00       		.byte	0
 3493 0189 00       		.byte	0
 3494 018a 1A       		.uleb128 0x1a
 3495 018b 05       		.uleb128 0x5
 3496 018c 00       		.byte	0
 3497 018d 03       		.uleb128 0x3
 3498 018e 0E       		.uleb128 0xe
 3499 018f 3A       		.uleb128 0x3a
 3500 0190 0B       		.uleb128 0xb
 3501 0191 3B       		.uleb128 0x3b
 3502 0192 05       		.uleb128 0x5
 3503 0193 49       		.uleb128 0x49
 3504 0194 13       		.uleb128 0x13
 3505 0195 02       		.uleb128 0x2
 3506 0196 18       		.uleb128 0x18
 3507 0197 00       		.byte	0
 3508 0198 00       		.byte	0
 3509 0199 1B       		.uleb128 0x1b
 3510 019a 01       		.uleb128 0x1
 3511 019b 01       		.byte	0x1
 3512 019c 49       		.uleb128 0x49
 3513 019d 13       		.uleb128 0x13
 3514 019e 01       		.uleb128 0x1
 3515 019f 13       		.uleb128 0x13
 3516 01a0 00       		.byte	0
 3517 01a1 00       		.byte	0
 3518 01a2 1C       		.uleb128 0x1c
 3519 01a3 21       		.uleb128 0x21
 3520 01a4 00       		.byte	0
ARM GAS  C:\Users\YongY\AppData\Local\Temp\ccMwH7lk.s 			page 99


 3521 01a5 49       		.uleb128 0x49
 3522 01a6 13       		.uleb128 0x13
 3523 01a7 2F       		.uleb128 0x2f
 3524 01a8 0B       		.uleb128 0xb
 3525 01a9 00       		.byte	0
 3526 01aa 00       		.byte	0
 3527 01ab 1D       		.uleb128 0x1d
 3528 01ac 34       		.uleb128 0x34
 3529 01ad 00       		.byte	0
 3530 01ae 03       		.uleb128 0x3
 3531 01af 0E       		.uleb128 0xe
 3532 01b0 3A       		.uleb128 0x3a
 3533 01b1 0B       		.uleb128 0xb
 3534 01b2 3B       		.uleb128 0x3b
 3535 01b3 0B       		.uleb128 0xb
 3536 01b4 49       		.uleb128 0x49
 3537 01b5 13       		.uleb128 0x13
 3538 01b6 02       		.uleb128 0x2
 3539 01b7 18       		.uleb128 0x18
 3540 01b8 00       		.byte	0
 3541 01b9 00       		.byte	0
 3542 01ba 1E       		.uleb128 0x1e
 3543 01bb 34       		.uleb128 0x34
 3544 01bc 00       		.byte	0
 3545 01bd 03       		.uleb128 0x3
 3546 01be 0E       		.uleb128 0xe
 3547 01bf 3A       		.uleb128 0x3a
 3548 01c0 0B       		.uleb128 0xb
 3549 01c1 3B       		.uleb128 0x3b
 3550 01c2 0B       		.uleb128 0xb
 3551 01c3 49       		.uleb128 0x49
 3552 01c4 13       		.uleb128 0x13
 3553 01c5 3F       		.uleb128 0x3f
 3554 01c6 19       		.uleb128 0x19
 3555 01c7 02       		.uleb128 0x2
 3556 01c8 18       		.uleb128 0x18
 3557 01c9 00       		.byte	0
 3558 01ca 00       		.byte	0
 3559 01cb 1F       		.uleb128 0x1f
 3560 01cc 2E       		.uleb128 0x2e
 3561 01cd 01       		.byte	0x1
 3562 01ce 3F       		.uleb128 0x3f
 3563 01cf 19       		.uleb128 0x19
 3564 01d0 03       		.uleb128 0x3
 3565 01d1 0E       		.uleb128 0xe
 3566 01d2 3A       		.uleb128 0x3a
 3567 01d3 0B       		.uleb128 0xb
 3568 01d4 3B       		.uleb128 0x3b
 3569 01d5 0B       		.uleb128 0xb
 3570 01d6 27       		.uleb128 0x27
 3571 01d7 19       		.uleb128 0x19
 3572 01d8 3C       		.uleb128 0x3c
 3573 01d9 19       		.uleb128 0x19
 3574 01da 01       		.uleb128 0x1
 3575 01db 13       		.uleb128 0x13
 3576 01dc 00       		.byte	0
 3577 01dd 00       		.byte	0
ARM GAS  C:\Users\YongY\AppData\Local\Temp\ccMwH7lk.s 			page 100


 3578 01de 20       		.uleb128 0x20
 3579 01df 05       		.uleb128 0x5
 3580 01e0 00       		.byte	0
 3581 01e1 49       		.uleb128 0x49
 3582 01e2 13       		.uleb128 0x13
 3583 01e3 00       		.byte	0
 3584 01e4 00       		.byte	0
 3585 01e5 21       		.uleb128 0x21
 3586 01e6 2E       		.uleb128 0x2e
 3587 01e7 00       		.byte	0
 3588 01e8 3F       		.uleb128 0x3f
 3589 01e9 19       		.uleb128 0x19
 3590 01ea 03       		.uleb128 0x3
 3591 01eb 0E       		.uleb128 0xe
 3592 01ec 3A       		.uleb128 0x3a
 3593 01ed 0B       		.uleb128 0xb
 3594 01ee 3B       		.uleb128 0x3b
 3595 01ef 0B       		.uleb128 0xb
 3596 01f0 27       		.uleb128 0x27
 3597 01f1 19       		.uleb128 0x19
 3598 01f2 49       		.uleb128 0x49
 3599 01f3 13       		.uleb128 0x13
 3600 01f4 3C       		.uleb128 0x3c
 3601 01f5 19       		.uleb128 0x19
 3602 01f6 00       		.byte	0
 3603 01f7 00       		.byte	0
 3604 01f8 22       		.uleb128 0x22
 3605 01f9 2E       		.uleb128 0x2e
 3606 01fa 01       		.byte	0x1
 3607 01fb 3F       		.uleb128 0x3f
 3608 01fc 19       		.uleb128 0x19
 3609 01fd 03       		.uleb128 0x3
 3610 01fe 0E       		.uleb128 0xe
 3611 01ff 3A       		.uleb128 0x3a
 3612 0200 0B       		.uleb128 0xb
 3613 0201 3B       		.uleb128 0x3b
 3614 0202 0B       		.uleb128 0xb
 3615 0203 27       		.uleb128 0x27
 3616 0204 19       		.uleb128 0x19
 3617 0205 49       		.uleb128 0x49
 3618 0206 13       		.uleb128 0x13
 3619 0207 3C       		.uleb128 0x3c
 3620 0208 19       		.uleb128 0x19
 3621 0209 01       		.uleb128 0x1
 3622 020a 13       		.uleb128 0x13
 3623 020b 00       		.byte	0
 3624 020c 00       		.byte	0
 3625 020d 23       		.uleb128 0x23
 3626 020e 2E       		.uleb128 0x2e
 3627 020f 01       		.byte	0x1
 3628 0210 3F       		.uleb128 0x3f
 3629 0211 19       		.uleb128 0x19
 3630 0212 03       		.uleb128 0x3
 3631 0213 0E       		.uleb128 0xe
 3632 0214 3A       		.uleb128 0x3a
 3633 0215 0B       		.uleb128 0xb
 3634 0216 3B       		.uleb128 0x3b
ARM GAS  C:\Users\YongY\AppData\Local\Temp\ccMwH7lk.s 			page 101


 3635 0217 0B       		.uleb128 0xb
 3636 0218 27       		.uleb128 0x27
 3637 0219 19       		.uleb128 0x19
 3638 021a 3C       		.uleb128 0x3c
 3639 021b 19       		.uleb128 0x19
 3640 021c 00       		.byte	0
 3641 021d 00       		.byte	0
 3642 021e 00       		.byte	0
 3643              		.section	.debug_loc,"",%progbits
 3644              	.Ldebug_loc0:
 3645              	.LLST0:
 3646 0000 00000000 		.4byte	.LVL0
 3647 0004 0C000000 		.4byte	.LVL1
 3648 0008 0100     		.2byte	0x1
 3649 000a 50       		.byte	0x50
 3650 000b 0C000000 		.4byte	.LVL1
 3651 000f A0000000 		.4byte	.LVL29
 3652 0013 0400     		.2byte	0x4
 3653 0015 F3       		.byte	0xf3
 3654 0016 01       		.uleb128 0x1
 3655 0017 50       		.byte	0x50
 3656 0018 9F       		.byte	0x9f
 3657 0019 A0000000 		.4byte	.LVL29
 3658 001d A2000000 		.4byte	.LVL30
 3659 0021 0100     		.2byte	0x1
 3660 0023 50       		.byte	0x50
 3661 0024 A2000000 		.4byte	.LVL30
 3662 0028 CC000000 		.4byte	.LFE21
 3663 002c 0400     		.2byte	0x4
 3664 002e F3       		.byte	0xf3
 3665 002f 01       		.uleb128 0x1
 3666 0030 50       		.byte	0x50
 3667 0031 9F       		.byte	0x9f
 3668 0032 00000000 		.4byte	0
 3669 0036 00000000 		.4byte	0
 3670              	.LLST1:
 3671 003a 00000000 		.4byte	.LVL0
 3672 003e 66000000 		.4byte	.LVL19
 3673 0042 0100     		.2byte	0x1
 3674 0044 51       		.byte	0x51
 3675 0045 66000000 		.4byte	.LVL19
 3676 0049 A0000000 		.4byte	.LVL29
 3677 004d 0400     		.2byte	0x4
 3678 004f F3       		.byte	0xf3
 3679 0050 01       		.uleb128 0x1
 3680 0051 51       		.byte	0x51
 3681 0052 9F       		.byte	0x9f
 3682 0053 A0000000 		.4byte	.LVL29
 3683 0057 A5000000 		.4byte	.LVL31-1
 3684 005b 0100     		.2byte	0x1
 3685 005d 51       		.byte	0x51
 3686 005e A5000000 		.4byte	.LVL31-1
 3687 0062 CC000000 		.4byte	.LFE21
 3688 0066 0400     		.2byte	0x4
 3689 0068 F3       		.byte	0xf3
 3690 0069 01       		.uleb128 0x1
 3691 006a 51       		.byte	0x51
ARM GAS  C:\Users\YongY\AppData\Local\Temp\ccMwH7lk.s 			page 102


 3692 006b 9F       		.byte	0x9f
 3693 006c 00000000 		.4byte	0
 3694 0070 00000000 		.4byte	0
 3695              	.LLST2:
 3696 0074 00000000 		.4byte	.LVL0
 3697 0078 6E000000 		.4byte	.LVL22
 3698 007c 0100     		.2byte	0x1
 3699 007e 52       		.byte	0x52
 3700 007f 6E000000 		.4byte	.LVL22
 3701 0083 A0000000 		.4byte	.LVL29
 3702 0087 0400     		.2byte	0x4
 3703 0089 F3       		.byte	0xf3
 3704 008a 01       		.uleb128 0x1
 3705 008b 52       		.byte	0x52
 3706 008c 9F       		.byte	0x9f
 3707 008d A0000000 		.4byte	.LVL29
 3708 0091 A5000000 		.4byte	.LVL31-1
 3709 0095 0100     		.2byte	0x1
 3710 0097 52       		.byte	0x52
 3711 0098 A5000000 		.4byte	.LVL31-1
 3712 009c CC000000 		.4byte	.LFE21
 3713 00a0 0400     		.2byte	0x4
 3714 00a2 F3       		.byte	0xf3
 3715 00a3 01       		.uleb128 0x1
 3716 00a4 52       		.byte	0x52
 3717 00a5 9F       		.byte	0x9f
 3718 00a6 00000000 		.4byte	0
 3719 00aa 00000000 		.4byte	0
 3720              	.LLST3:
 3721 00ae 00000000 		.4byte	.LVL0
 3722 00b2 84000000 		.4byte	.LVL26
 3723 00b6 0100     		.2byte	0x1
 3724 00b8 53       		.byte	0x53
 3725 00b9 84000000 		.4byte	.LVL26
 3726 00bd 8A000000 		.4byte	.LVL27
 3727 00c1 0400     		.2byte	0x4
 3728 00c3 F3       		.byte	0xf3
 3729 00c4 01       		.uleb128 0x1
 3730 00c5 53       		.byte	0x53
 3731 00c6 9F       		.byte	0x9f
 3732 00c7 8A000000 		.4byte	.LVL27
 3733 00cb 8C000000 		.4byte	.LVL28
 3734 00cf 0100     		.2byte	0x1
 3735 00d1 53       		.byte	0x53
 3736 00d2 8C000000 		.4byte	.LVL28
 3737 00d6 A0000000 		.4byte	.LVL29
 3738 00da 0400     		.2byte	0x4
 3739 00dc F3       		.byte	0xf3
 3740 00dd 01       		.uleb128 0x1
 3741 00de 53       		.byte	0x53
 3742 00df 9F       		.byte	0x9f
 3743 00e0 A0000000 		.4byte	.LVL29
 3744 00e4 A5000000 		.4byte	.LVL31-1
 3745 00e8 0100     		.2byte	0x1
 3746 00ea 53       		.byte	0x53
 3747 00eb A5000000 		.4byte	.LVL31-1
 3748 00ef CC000000 		.4byte	.LFE21
ARM GAS  C:\Users\YongY\AppData\Local\Temp\ccMwH7lk.s 			page 103


 3749 00f3 0400     		.2byte	0x4
 3750 00f5 F3       		.byte	0xf3
 3751 00f6 01       		.uleb128 0x1
 3752 00f7 53       		.byte	0x53
 3753 00f8 9F       		.byte	0x9f
 3754 00f9 00000000 		.4byte	0
 3755 00fd 00000000 		.4byte	0
 3756              	.LLST4:
 3757 0101 00000000 		.4byte	.LVL0
 3758 0105 A0000000 		.4byte	.LVL29
 3759 0109 0200     		.2byte	0x2
 3760 010b 91       		.byte	0x91
 3761 010c 00       		.sleb128 0
 3762 010d A0000000 		.4byte	.LVL29
 3763 0111 A8000000 		.4byte	.LVL32
 3764 0115 0200     		.2byte	0x2
 3765 0117 91       		.byte	0x91
 3766 0118 00       		.sleb128 0
 3767 0119 A8000000 		.4byte	.LVL32
 3768 011d CC000000 		.4byte	.LFE21
 3769 0121 0200     		.2byte	0x2
 3770 0123 7D       		.byte	0x7d
 3771 0124 00       		.sleb128 0
 3772 0125 00000000 		.4byte	0
 3773 0129 00000000 		.4byte	0
 3774              	.LLST5:
 3775 012d 26000000 		.4byte	.LVL2
 3776 0131 28000000 		.4byte	.LVL3
 3777 0135 0100     		.2byte	0x1
 3778 0137 50       		.byte	0x50
 3779 0138 2C000000 		.4byte	.LVL4
 3780 013c 2E000000 		.4byte	.LVL5
 3781 0140 0100     		.2byte	0x1
 3782 0142 50       		.byte	0x50
 3783 0143 36000000 		.4byte	.LVL6
 3784 0147 38000000 		.4byte	.LVL7
 3785 014b 0100     		.2byte	0x1
 3786 014d 50       		.byte	0x50
 3787 014e 3C000000 		.4byte	.LVL8
 3788 0152 3E000000 		.4byte	.LVL9
 3789 0156 0100     		.2byte	0x1
 3790 0158 50       		.byte	0x50
 3791 0159 46000000 		.4byte	.LVL10
 3792 015d 48000000 		.4byte	.LVL11
 3793 0161 0100     		.2byte	0x1
 3794 0163 50       		.byte	0x50
 3795 0164 4C000000 		.4byte	.LVL12
 3796 0168 4E000000 		.4byte	.LVL13
 3797 016c 0100     		.2byte	0x1
 3798 016e 50       		.byte	0x50
 3799 016f 56000000 		.4byte	.LVL14
 3800 0173 58000000 		.4byte	.LVL15
 3801 0177 0100     		.2byte	0x1
 3802 0179 50       		.byte	0x50
 3803 017a 5C000000 		.4byte	.LVL16
 3804 017e 5E000000 		.4byte	.LVL17
 3805 0182 0100     		.2byte	0x1
ARM GAS  C:\Users\YongY\AppData\Local\Temp\ccMwH7lk.s 			page 104


 3806 0184 50       		.byte	0x50
 3807 0185 60000000 		.4byte	.LVL18
 3808 0189 A0000000 		.4byte	.LVL29
 3809 018d 0100     		.2byte	0x1
 3810 018f 50       		.byte	0x50
 3811 0190 00000000 		.4byte	0
 3812 0194 00000000 		.4byte	0
 3813              	.LLST6:
 3814 0198 66000000 		.4byte	.LVL19
 3815 019c 6A000000 		.4byte	.LVL20
 3816 01a0 0100     		.2byte	0x1
 3817 01a2 51       		.byte	0x51
 3818 01a3 00000000 		.4byte	0
 3819 01a7 00000000 		.4byte	0
 3820              	.LLST7:
 3821 01ab 6E000000 		.4byte	.LVL22
 3822 01af 76000000 		.4byte	.LVL23
 3823 01b3 0100     		.2byte	0x1
 3824 01b5 52       		.byte	0x52
 3825 01b6 76000000 		.4byte	.LVL23
 3826 01ba 7A000000 		.4byte	.LVL24
 3827 01be 0100     		.2byte	0x1
 3828 01c0 51       		.byte	0x51
 3829 01c1 7C000000 		.4byte	.LVL25
 3830 01c5 A0000000 		.4byte	.LVL29
 3831 01c9 0100     		.2byte	0x1
 3832 01cb 52       		.byte	0x52
 3833 01cc 00000000 		.4byte	0
 3834 01d0 00000000 		.4byte	0
 3835              	.LLST8:
 3836 01d4 6A000000 		.4byte	.LVL20
 3837 01d8 6C000000 		.4byte	.LVL21
 3838 01dc 0100     		.2byte	0x1
 3839 01de 51       		.byte	0x51
 3840 01df 00000000 		.4byte	0
 3841 01e3 00000000 		.4byte	0
 3842              	.LLST9:
 3843 01e7 00000000 		.4byte	.LVL33
 3844 01eb 07000000 		.4byte	.LVL34-1
 3845 01ef 0100     		.2byte	0x1
 3846 01f1 50       		.byte	0x50
 3847 01f2 07000000 		.4byte	.LVL34-1
 3848 01f6 4C000000 		.4byte	.LFE22
 3849 01fa 0400     		.2byte	0x4
 3850 01fc F3       		.byte	0xf3
 3851 01fd 01       		.uleb128 0x1
 3852 01fe 50       		.byte	0x50
 3853 01ff 9F       		.byte	0x9f
 3854 0200 00000000 		.4byte	0
 3855 0204 00000000 		.4byte	0
 3856              	.LLST10:
 3857 0208 0A000000 		.4byte	.LVL35
 3858 020c 40000000 		.4byte	.LVL38
 3859 0210 0100     		.2byte	0x1
 3860 0212 56       		.byte	0x56
 3861 0213 00000000 		.4byte	0
 3862 0217 00000000 		.4byte	0
ARM GAS  C:\Users\YongY\AppData\Local\Temp\ccMwH7lk.s 			page 105


 3863              	.LLST11:
 3864 021b 00000000 		.4byte	.LVL39
 3865 021f 7C000000 		.4byte	.LVL40
 3866 0223 0100     		.2byte	0x1
 3867 0225 50       		.byte	0x50
 3868 0226 7C000000 		.4byte	.LVL40
 3869 022a E4000000 		.4byte	.LFE19
 3870 022e 0400     		.2byte	0x4
 3871 0230 F3       		.byte	0xf3
 3872 0231 01       		.uleb128 0x1
 3873 0232 50       		.byte	0x50
 3874 0233 9F       		.byte	0x9f
 3875 0234 00000000 		.4byte	0
 3876 0238 00000000 		.4byte	0
 3877              	.LLST12:
 3878 023c 08000000 		.4byte	.LVL52
 3879 0240 B2000000 		.4byte	.LVL56
 3880 0244 0100     		.2byte	0x1
 3881 0246 56       		.byte	0x56
 3882 0247 00000000 		.4byte	0
 3883 024b 00000000 		.4byte	0
 3884              	.LLST13:
 3885 024f 08000000 		.4byte	.LVL60
 3886 0253 CE000000 		.4byte	.LVL63
 3887 0257 0100     		.2byte	0x1
 3888 0259 56       		.byte	0x56
 3889 025a 00000000 		.4byte	0
 3890 025e 00000000 		.4byte	0
 3891              	.LLST14:
 3892 0262 00000000 		.4byte	.LVL64
 3893 0266 0A000000 		.4byte	.LVL66
 3894 026a 0100     		.2byte	0x1
 3895 026c 50       		.byte	0x50
 3896 026d 0A000000 		.4byte	.LVL66
 3897 0271 18000000 		.4byte	.LFE4
 3898 0275 0400     		.2byte	0x4
 3899 0277 F3       		.byte	0xf3
 3900 0278 01       		.uleb128 0x1
 3901 0279 50       		.byte	0x50
 3902 027a 9F       		.byte	0x9f
 3903 027b 00000000 		.4byte	0
 3904 027f 00000000 		.4byte	0
 3905              	.LLST15:
 3906 0283 08000000 		.4byte	.LVL65
 3907 0287 10000000 		.4byte	.LVL67
 3908 028b 0100     		.2byte	0x1
 3909 028d 53       		.byte	0x53
 3910 028e 10000000 		.4byte	.LVL67
 3911 0292 18000000 		.4byte	.LFE4
 3912 0296 0100     		.2byte	0x1
 3913 0298 50       		.byte	0x50
 3914 0299 00000000 		.4byte	0
 3915 029d 00000000 		.4byte	0
 3916              	.LLST16:
 3917 02a1 00000000 		.4byte	.LVL68
 3918 02a5 0C000000 		.4byte	.LVL70
 3919 02a9 0100     		.2byte	0x1
ARM GAS  C:\Users\YongY\AppData\Local\Temp\ccMwH7lk.s 			page 106


 3920 02ab 50       		.byte	0x50
 3921 02ac 0C000000 		.4byte	.LVL70
 3922 02b0 18000000 		.4byte	.LFE5
 3923 02b4 0400     		.2byte	0x4
 3924 02b6 F3       		.byte	0xf3
 3925 02b7 01       		.uleb128 0x1
 3926 02b8 50       		.byte	0x50
 3927 02b9 9F       		.byte	0x9f
 3928 02ba 00000000 		.4byte	0
 3929 02be 00000000 		.4byte	0
 3930              	.LLST17:
 3931 02c2 08000000 		.4byte	.LVL69
 3932 02c6 0E000000 		.4byte	.LVL71
 3933 02ca 0100     		.2byte	0x1
 3934 02cc 53       		.byte	0x53
 3935 02cd 0E000000 		.4byte	.LVL71
 3936 02d1 18000000 		.4byte	.LFE5
 3937 02d5 0100     		.2byte	0x1
 3938 02d7 50       		.byte	0x50
 3939 02d8 00000000 		.4byte	0
 3940 02dc 00000000 		.4byte	0
 3941              	.LLST18:
 3942 02e0 00000000 		.4byte	.LVL72
 3943 02e4 10000000 		.4byte	.LVL74
 3944 02e8 0100     		.2byte	0x1
 3945 02ea 50       		.byte	0x50
 3946 02eb 10000000 		.4byte	.LVL74
 3947 02ef 24000000 		.4byte	.LVL78
 3948 02f3 0100     		.2byte	0x1
 3949 02f5 54       		.byte	0x54
 3950 02f6 24000000 		.4byte	.LVL78
 3951 02fa 74000000 		.4byte	.LFE6
 3952 02fe 0600     		.2byte	0x6
 3953 0300 F3       		.byte	0xf3
 3954 0301 03       		.uleb128 0x3
 3955 0302 F5       		.byte	0xf5
 3956 0303 00       		.uleb128 0
 3957 0304 25       		.uleb128 0x25
 3958 0305 9F       		.byte	0x9f
 3959 0306 00000000 		.4byte	0
 3960 030a 00000000 		.4byte	0
 3961              	.LLST19:
 3962 030e 0A000000 		.4byte	.LVL73
 3963 0312 13000000 		.4byte	.LVL75-1
 3964 0316 0A00     		.2byte	0xa
 3965 0318 73       		.byte	0x73
 3966 0319 00       		.sleb128 0
 3967 031a 32       		.byte	0x32
 3968 031b 24       		.byte	0x24
 3969 031c 03       		.byte	0x3
 3970 031d 00000000 		.4byte	.LANCHOR0
 3971 0321 22       		.byte	0x22
 3972 0322 44000000 		.4byte	.LVL83
 3973 0326 56000000 		.4byte	.LVL85
 3974 032a 0100     		.2byte	0x1
 3975 032c 50       		.byte	0x50
 3976 032d 56000000 		.4byte	.LVL85
ARM GAS  C:\Users\YongY\AppData\Local\Temp\ccMwH7lk.s 			page 107


 3977 0331 58000000 		.4byte	.LVL86
 3978 0335 0700     		.2byte	0x7
 3979 0337 73       		.byte	0x73
 3980 0338 00       		.sleb128 0
 3981 0339 32       		.byte	0x32
 3982 033a 24       		.byte	0x24
 3983 033b 72       		.byte	0x72
 3984 033c 00       		.sleb128 0
 3985 033d 22       		.byte	0x22
 3986 033e 00000000 		.4byte	0
 3987 0342 00000000 		.4byte	0
 3988              	.LLST20:
 3989 0346 54000000 		.4byte	.LVL84
 3990 034a 58000000 		.4byte	.LVL86
 3991 034e 0200     		.2byte	0x2
 3992 0350 30       		.byte	0x30
 3993 0351 9F       		.byte	0x9f
 3994 0352 5A000000 		.4byte	.LVL87
 3995 0356 74000000 		.4byte	.LFE6
 3996 035a 0100     		.2byte	0x1
 3997 035c 50       		.byte	0x50
 3998 035d 00000000 		.4byte	0
 3999 0361 00000000 		.4byte	0
 4000              	.LLST21:
 4001 0365 1C000000 		.4byte	.LVL76
 4002 0369 21000000 		.4byte	.LVL77-1
 4003 036d 0100     		.2byte	0x1
 4004 036f 50       		.byte	0x50
 4005 0370 24000000 		.4byte	.LVL78
 4006 0374 27000000 		.4byte	.LVL79-1
 4007 0378 0100     		.2byte	0x1
 4008 037a 50       		.byte	0x50
 4009 037b 27000000 		.4byte	.LVL79-1
 4010 037f 3E000000 		.4byte	.LVL81
 4011 0383 0100     		.2byte	0x1
 4012 0385 54       		.byte	0x54
 4013 0386 3E000000 		.4byte	.LVL81
 4014 038a 41000000 		.4byte	.LVL82-1
 4015 038e 0100     		.2byte	0x1
 4016 0390 50       		.byte	0x50
 4017 0391 58000000 		.4byte	.LVL86
 4018 0395 5C000000 		.4byte	.LVL88
 4019 0399 0100     		.2byte	0x1
 4020 039b 54       		.byte	0x54
 4021 039c 00000000 		.4byte	0
 4022 03a0 00000000 		.4byte	0
 4023              	.LLST22:
 4024 03a4 06000000 		.4byte	.LVL89
 4025 03a8 14000000 		.4byte	.LVL91
 4026 03ac 0100     		.2byte	0x1
 4027 03ae 53       		.byte	0x53
 4028 03af 00000000 		.4byte	0
 4029 03b3 00000000 		.4byte	0
 4030              	.LLST23:
 4031 03b7 0C000000 		.4byte	.LVL90
 4032 03bb 16000000 		.4byte	.LVL92
 4033 03bf 0100     		.2byte	0x1
ARM GAS  C:\Users\YongY\AppData\Local\Temp\ccMwH7lk.s 			page 108


 4034 03c1 50       		.byte	0x50
 4035 03c2 18000000 		.4byte	.LVL93
 4036 03c6 24000000 		.4byte	.LFE7
 4037 03ca 0100     		.2byte	0x1
 4038 03cc 50       		.byte	0x50
 4039 03cd 00000000 		.4byte	0
 4040 03d1 00000000 		.4byte	0
 4041              	.LLST24:
 4042 03d5 00000000 		.4byte	.LVL94
 4043 03d9 24000000 		.4byte	.LVL98
 4044 03dd 0100     		.2byte	0x1
 4045 03df 50       		.byte	0x50
 4046 03e0 24000000 		.4byte	.LVL98
 4047 03e4 30000000 		.4byte	.LFE10
 4048 03e8 0400     		.2byte	0x4
 4049 03ea F3       		.byte	0xf3
 4050 03eb 01       		.uleb128 0x1
 4051 03ec 50       		.byte	0x50
 4052 03ed 9F       		.byte	0x9f
 4053 03ee 00000000 		.4byte	0
 4054 03f2 00000000 		.4byte	0
 4055              	.LLST25:
 4056 03f6 10000000 		.4byte	.LVL95
 4057 03fa 12000000 		.4byte	.LVL96
 4058 03fe 0100     		.2byte	0x1
 4059 0400 53       		.byte	0x53
 4060 0401 1A000000 		.4byte	.LVL97
 4061 0405 30000000 		.4byte	.LFE10
 4062 0409 0100     		.2byte	0x1
 4063 040b 53       		.byte	0x53
 4064 040c 00000000 		.4byte	0
 4065 0410 00000000 		.4byte	0
 4066              	.LLST26:
 4067 0414 08000000 		.4byte	.LVL99
 4068 0418 12000000 		.4byte	.LVL101
 4069 041c 0100     		.2byte	0x1
 4070 041e 53       		.byte	0x53
 4071 041f 16000000 		.4byte	.LVL102
 4072 0423 1C000000 		.4byte	.LVL103
 4073 0427 0100     		.2byte	0x1
 4074 0429 53       		.byte	0x53
 4075 042a 00000000 		.4byte	0
 4076 042e 00000000 		.4byte	0
 4077              	.LLST27:
 4078 0432 12000000 		.4byte	.LVL106
 4079 0436 14000000 		.4byte	.LVL107
 4080 043a 0100     		.2byte	0x1
 4081 043c 50       		.byte	0x50
 4082 043d 18000000 		.4byte	.LVL108
 4083 0441 20000000 		.4byte	.LVL109
 4084 0445 0100     		.2byte	0x1
 4085 0447 52       		.byte	0x52
 4086 0448 20000000 		.4byte	.LVL109
 4087 044c 50000000 		.4byte	.LFE12
 4088 0450 0100     		.2byte	0x1
 4089 0452 50       		.byte	0x50
 4090 0453 00000000 		.4byte	0
ARM GAS  C:\Users\YongY\AppData\Local\Temp\ccMwH7lk.s 			page 109


 4091 0457 00000000 		.4byte	0
 4092              	.LLST28:
 4093 045b 08000000 		.4byte	.LVL104
 4094 045f 0E000000 		.4byte	.LVL105
 4095 0463 0100     		.2byte	0x1
 4096 0465 53       		.byte	0x53
 4097 0466 14000000 		.4byte	.LVL107
 4098 046a 26000000 		.4byte	.LVL110
 4099 046e 0100     		.2byte	0x1
 4100 0470 53       		.byte	0x53
 4101 0471 00000000 		.4byte	0
 4102 0475 00000000 		.4byte	0
 4103              	.LLST29:
 4104 0479 10000000 		.4byte	.LVL113
 4105 047d 1A000000 		.4byte	.LVL114
 4106 0481 0700     		.2byte	0x7
 4107 0483 70       		.byte	0x70
 4108 0484 00       		.sleb128 0
 4109 0485 0A       		.byte	0xa
 4110 0486 FFFF     		.2byte	0xffff
 4111 0488 1A       		.byte	0x1a
 4112 0489 9F       		.byte	0x9f
 4113 048a 1A000000 		.4byte	.LVL114
 4114 048e 1C000000 		.4byte	.LVL115
 4115 0492 0100     		.2byte	0x1
 4116 0494 50       		.byte	0x50
 4117 0495 24000000 		.4byte	.LVL117
 4118 0499 2C000000 		.4byte	.LVL118
 4119 049d 0700     		.2byte	0x7
 4120 049f 70       		.byte	0x70
 4121 04a0 00       		.sleb128 0
 4122 04a1 0A       		.byte	0xa
 4123 04a2 FFFF     		.2byte	0xffff
 4124 04a4 1A       		.byte	0x1a
 4125 04a5 9F       		.byte	0x9f
 4126 04a6 2C000000 		.4byte	.LVL118
 4127 04aa 34000000 		.4byte	.LVL119
 4128 04ae 0100     		.2byte	0x1
 4129 04b0 53       		.byte	0x53
 4130 04b1 34000000 		.4byte	.LVL119
 4131 04b5 36000000 		.4byte	.LVL120
 4132 04b9 0100     		.2byte	0x1
 4133 04bb 50       		.byte	0x50
 4134 04bc 3C000000 		.4byte	.LVL122
 4135 04c0 44000000 		.4byte	.LVL123
 4136 04c4 0100     		.2byte	0x1
 4137 04c6 53       		.byte	0x53
 4138 04c7 44000000 		.4byte	.LVL123
 4139 04cb 6C000000 		.4byte	.LFE13
 4140 04cf 0100     		.2byte	0x1
 4141 04d1 50       		.byte	0x50
 4142 04d2 00000000 		.4byte	0
 4143 04d6 00000000 		.4byte	0
 4144              	.LLST30:
 4145 04da 08000000 		.4byte	.LVL111
 4146 04de 0E000000 		.4byte	.LVL112
 4147 04e2 0100     		.2byte	0x1
ARM GAS  C:\Users\YongY\AppData\Local\Temp\ccMwH7lk.s 			page 110


 4148 04e4 53       		.byte	0x53
 4149 04e5 1C000000 		.4byte	.LVL115
 4150 04e9 22000000 		.4byte	.LVL116
 4151 04ed 0100     		.2byte	0x1
 4152 04ef 53       		.byte	0x53
 4153 04f0 36000000 		.4byte	.LVL120
 4154 04f4 38000000 		.4byte	.LVL121
 4155 04f8 0100     		.2byte	0x1
 4156 04fa 53       		.byte	0x53
 4157 04fb 00000000 		.4byte	0
 4158 04ff 00000000 		.4byte	0
 4159              	.LLST31:
 4160 0503 00000000 		.4byte	.LVL126
 4161 0507 06000000 		.4byte	.LVL127
 4162 050b 0100     		.2byte	0x1
 4163 050d 50       		.byte	0x50
 4164 050e 06000000 		.4byte	.LVL127
 4165 0512 0E000000 		.4byte	.LVL128
 4166 0516 0100     		.2byte	0x1
 4167 0518 50       		.byte	0x50
 4168 0519 00000000 		.4byte	0
 4169 051d 00000000 		.4byte	0
 4170              	.LLST32:
 4171 0521 00000000 		.4byte	.LVL130
 4172 0525 06000000 		.4byte	.LVL131
 4173 0529 0100     		.2byte	0x1
 4174 052b 50       		.byte	0x50
 4175 052c 06000000 		.4byte	.LVL131
 4176 0530 08000000 		.4byte	.LVL132
 4177 0534 0600     		.2byte	0x6
 4178 0536 70       		.byte	0x70
 4179 0537 00       		.sleb128 0
 4180 0538 73       		.byte	0x73
 4181 0539 00       		.sleb128 0
 4182 053a 1C       		.byte	0x1c
 4183 053b 9F       		.byte	0x9f
 4184 053c 08000000 		.4byte	.LVL132
 4185 0540 0B000000 		.4byte	.LVL133-1
 4186 0544 0100     		.2byte	0x1
 4187 0546 50       		.byte	0x50
 4188 0547 00000000 		.4byte	0
 4189 054b 00000000 		.4byte	0
 4190              	.LLST33:
 4191 054f 00000000 		.4byte	.LVL136
 4192 0553 4C000000 		.4byte	.LVL143
 4193 0557 0100     		.2byte	0x1
 4194 0559 50       		.byte	0x50
 4195 055a 4C000000 		.4byte	.LVL143
 4196 055e 78000000 		.4byte	.LFE18
 4197 0562 0400     		.2byte	0x4
 4198 0564 F3       		.byte	0xf3
 4199 0565 01       		.uleb128 0x1
 4200 0566 50       		.byte	0x50
 4201 0567 9F       		.byte	0x9f
 4202 0568 00000000 		.4byte	0
 4203 056c 00000000 		.4byte	0
 4204              	.LLST34:
ARM GAS  C:\Users\YongY\AppData\Local\Temp\ccMwH7lk.s 			page 111


 4205 0570 5C000000 		.4byte	.LVL144
 4206 0574 5E000000 		.4byte	.LVL145
 4207 0578 0600     		.2byte	0x6
 4208 057a 73       		.byte	0x73
 4209 057b 00       		.sleb128 0
 4210 057c 70       		.byte	0x70
 4211 057d 00       		.sleb128 0
 4212 057e 1C       		.byte	0x1c
 4213 057f 9F       		.byte	0x9f
 4214 0580 5E000000 		.4byte	.LVL145
 4215 0584 78000000 		.4byte	.LFE18
 4216 0588 0100     		.2byte	0x1
 4217 058a 50       		.byte	0x50
 4218 058b 00000000 		.4byte	0
 4219 058f 00000000 		.4byte	0
 4220              	.LLST35:
 4221 0593 34000000 		.4byte	.LVL138
 4222 0597 3A000000 		.4byte	.LVL139
 4223 059b 0600     		.2byte	0x6
 4224 059d 0C       		.byte	0xc
 4225 059e 40420F00 		.4byte	0xf4240
 4226 05a2 9F       		.byte	0x9f
 4227 05a3 40000000 		.4byte	.LVL140
 4228 05a7 62000000 		.4byte	.LVL146
 4229 05ab 0100     		.2byte	0x1
 4230 05ad 54       		.byte	0x54
 4231 05ae 00000000 		.4byte	0
 4232 05b2 00000000 		.4byte	0
 4233              	.LLST36:
 4234 05b6 34000000 		.4byte	.LVL138
 4235 05ba 3A000000 		.4byte	.LVL139
 4236 05be 0200     		.2byte	0x2
 4237 05c0 31       		.byte	0x31
 4238 05c1 9F       		.byte	0x9f
 4239 05c2 40000000 		.4byte	.LVL140
 4240 05c6 78000000 		.4byte	.LFE18
 4241 05ca 0100     		.2byte	0x1
 4242 05cc 51       		.byte	0x51
 4243 05cd 00000000 		.4byte	0
 4244 05d1 00000000 		.4byte	0
 4245              	.LLST37:
 4246 05d5 24000000 		.4byte	.LVL137
 4247 05d9 42000000 		.4byte	.LVL141
 4248 05dd 0100     		.2byte	0x1
 4249 05df 53       		.byte	0x53
 4250 05e0 00000000 		.4byte	0
 4251 05e4 00000000 		.4byte	0
 4252              	.LLST38:
 4253 05e8 00000000 		.4byte	.LVL147
 4254 05ec 1D000000 		.4byte	.LVL148-1
 4255 05f0 0100     		.2byte	0x1
 4256 05f2 50       		.byte	0x50
 4257 05f3 1D000000 		.4byte	.LVL148-1
 4258 05f7 48000000 		.4byte	.LVL152
 4259 05fb 0400     		.2byte	0x4
 4260 05fd F3       		.byte	0xf3
 4261 05fe 01       		.uleb128 0x1
ARM GAS  C:\Users\YongY\AppData\Local\Temp\ccMwH7lk.s 			page 112


 4262 05ff 50       		.byte	0x50
 4263 0600 9F       		.byte	0x9f
 4264 0601 48000000 		.4byte	.LVL152
 4265 0605 4A000000 		.4byte	.LVL153
 4266 0609 0100     		.2byte	0x1
 4267 060b 50       		.byte	0x50
 4268 060c 4A000000 		.4byte	.LVL153
 4269 0610 60000000 		.4byte	.LFE20
 4270 0614 0400     		.2byte	0x4
 4271 0616 F3       		.byte	0xf3
 4272 0617 01       		.uleb128 0x1
 4273 0618 50       		.byte	0x50
 4274 0619 9F       		.byte	0x9f
 4275 061a 00000000 		.4byte	0
 4276 061e 00000000 		.4byte	0
 4277              	.LLST39:
 4278 0622 00000000 		.4byte	.LVL147
 4279 0626 1D000000 		.4byte	.LVL148-1
 4280 062a 0100     		.2byte	0x1
 4281 062c 51       		.byte	0x51
 4282 062d 1D000000 		.4byte	.LVL148-1
 4283 0631 48000000 		.4byte	.LVL152
 4284 0635 0400     		.2byte	0x4
 4285 0637 F3       		.byte	0xf3
 4286 0638 01       		.uleb128 0x1
 4287 0639 51       		.byte	0x51
 4288 063a 9F       		.byte	0x9f
 4289 063b 48000000 		.4byte	.LVL152
 4290 063f 4D000000 		.4byte	.LVL154-1
 4291 0643 0100     		.2byte	0x1
 4292 0645 51       		.byte	0x51
 4293 0646 4D000000 		.4byte	.LVL154-1
 4294 064a 60000000 		.4byte	.LFE20
 4295 064e 0400     		.2byte	0x4
 4296 0650 F3       		.byte	0xf3
 4297 0651 01       		.uleb128 0x1
 4298 0652 51       		.byte	0x51
 4299 0653 9F       		.byte	0x9f
 4300 0654 00000000 		.4byte	0
 4301 0658 00000000 		.4byte	0
 4302              	.LLST40:
 4303 065c 1C000000 		.4byte	.LVL158
 4304 0660 24000000 		.4byte	.LVL160
 4305 0664 0100     		.2byte	0x1
 4306 0666 54       		.byte	0x54
 4307 0667 00000000 		.4byte	0
 4308 066b 00000000 		.4byte	0
 4309              	.LLST41:
 4310 066f 1C000000 		.4byte	.LVL164
 4311 0673 24000000 		.4byte	.LVL166
 4312 0677 0100     		.2byte	0x1
 4313 0679 54       		.byte	0x54
 4314 067a 00000000 		.4byte	0
 4315 067e 00000000 		.4byte	0
 4316              	.LLST42:
 4317 0682 1C000000 		.4byte	.LVL170
 4318 0686 1F000000 		.4byte	.LVL171-1
ARM GAS  C:\Users\YongY\AppData\Local\Temp\ccMwH7lk.s 			page 113


 4319 068a 0100     		.2byte	0x1
 4320 068c 50       		.byte	0x50
 4321 068d 1F000000 		.4byte	.LVL171-1
 4322 0691 24000000 		.4byte	.LVL172
 4323 0695 0100     		.2byte	0x1
 4324 0697 54       		.byte	0x54
 4325 0698 24000000 		.4byte	.LVL172
 4326 069c 28000000 		.4byte	.LFE25
 4327 06a0 0100     		.2byte	0x1
 4328 06a2 50       		.byte	0x50
 4329 06a3 00000000 		.4byte	0
 4330 06a7 00000000 		.4byte	0
 4331              		.section	.debug_aranges,"",%progbits
 4332 0000 E4000000 		.4byte	0xe4
 4333 0004 0200     		.2byte	0x2
 4334 0006 00000000 		.4byte	.Ldebug_info0
 4335 000a 04       		.byte	0x4
 4336 000b 00       		.byte	0
 4337 000c 0000     		.2byte	0
 4338 000e 0000     		.2byte	0
 4339 0010 00000000 		.4byte	.LFB21
 4340 0014 CC000000 		.4byte	.LFE21-.LFB21
 4341 0018 00000000 		.4byte	.LFB22
 4342 001c 4C000000 		.4byte	.LFE22-.LFB22
 4343 0020 00000000 		.4byte	.LFB19
 4344 0024 E4000000 		.4byte	.LFE19-.LFB19
 4345 0028 00000000 		.4byte	.LFB0
 4346 002c C4000000 		.4byte	.LFE0-.LFB0
 4347 0030 00000000 		.4byte	.LFB1
 4348 0034 D8000000 		.4byte	.LFE1-.LFB1
 4349 0038 00000000 		.4byte	.LFB2
 4350 003c 28000000 		.4byte	.LFE2-.LFB2
 4351 0040 00000000 		.4byte	.LFB3
 4352 0044 E4000000 		.4byte	.LFE3-.LFB3
 4353 0048 00000000 		.4byte	.LFB4
 4354 004c 18000000 		.4byte	.LFE4-.LFB4
 4355 0050 00000000 		.4byte	.LFB5
 4356 0054 18000000 		.4byte	.LFE5-.LFB5
 4357 0058 00000000 		.4byte	.LFB6
 4358 005c 74000000 		.4byte	.LFE6-.LFB6
 4359 0060 00000000 		.4byte	.LFB7
 4360 0064 24000000 		.4byte	.LFE7-.LFB7
 4361 0068 00000000 		.4byte	.LFB8
 4362 006c 10000000 		.4byte	.LFE8-.LFB8
 4363 0070 00000000 		.4byte	.LFB9
 4364 0074 10000000 		.4byte	.LFE9-.LFB9
 4365 0078 00000000 		.4byte	.LFB10
 4366 007c 30000000 		.4byte	.LFE10-.LFB10
 4367 0080 00000000 		.4byte	.LFB11
 4368 0084 48000000 		.4byte	.LFE11-.LFB11
 4369 0088 00000000 		.4byte	.LFB12
 4370 008c 50000000 		.4byte	.LFE12-.LFB12
 4371 0090 00000000 		.4byte	.LFB13
 4372 0094 6C000000 		.4byte	.LFE13-.LFB13
 4373 0098 00000000 		.4byte	.LFB14
 4374 009c 0C000000 		.4byte	.LFE14-.LFB14
 4375 00a0 00000000 		.4byte	.LFB15
ARM GAS  C:\Users\YongY\AppData\Local\Temp\ccMwH7lk.s 			page 114


 4376 00a4 0C000000 		.4byte	.LFE15-.LFB15
 4377 00a8 00000000 		.4byte	.LFB16
 4378 00ac 24000000 		.4byte	.LFE16-.LFB16
 4379 00b0 00000000 		.4byte	.LFB17
 4380 00b4 28000000 		.4byte	.LFE17-.LFB17
 4381 00b8 00000000 		.4byte	.LFB18
 4382 00bc 78000000 		.4byte	.LFE18-.LFB18
 4383 00c0 00000000 		.4byte	.LFB20
 4384 00c4 60000000 		.4byte	.LFE20-.LFB20
 4385 00c8 00000000 		.4byte	.LFB23
 4386 00cc 28000000 		.4byte	.LFE23-.LFB23
 4387 00d0 00000000 		.4byte	.LFB24
 4388 00d4 28000000 		.4byte	.LFE24-.LFB24
 4389 00d8 00000000 		.4byte	.LFB25
 4390 00dc 28000000 		.4byte	.LFE25-.LFB25
 4391 00e0 00000000 		.4byte	0
 4392 00e4 00000000 		.4byte	0
 4393              		.section	.debug_ranges,"",%progbits
 4394              	.Ldebug_ranges0:
 4395 0000 00000000 		.4byte	.LFB21
 4396 0004 CC000000 		.4byte	.LFE21
 4397 0008 00000000 		.4byte	.LFB22
 4398 000c 4C000000 		.4byte	.LFE22
 4399 0010 00000000 		.4byte	.LFB19
 4400 0014 E4000000 		.4byte	.LFE19
 4401 0018 00000000 		.4byte	.LFB0
 4402 001c C4000000 		.4byte	.LFE0
 4403 0020 00000000 		.4byte	.LFB1
 4404 0024 D8000000 		.4byte	.LFE1
 4405 0028 00000000 		.4byte	.LFB2
 4406 002c 28000000 		.4byte	.LFE2
 4407 0030 00000000 		.4byte	.LFB3
 4408 0034 E4000000 		.4byte	.LFE3
 4409 0038 00000000 		.4byte	.LFB4
 4410 003c 18000000 		.4byte	.LFE4
 4411 0040 00000000 		.4byte	.LFB5
 4412 0044 18000000 		.4byte	.LFE5
 4413 0048 00000000 		.4byte	.LFB6
 4414 004c 74000000 		.4byte	.LFE6
 4415 0050 00000000 		.4byte	.LFB7
 4416 0054 24000000 		.4byte	.LFE7
 4417 0058 00000000 		.4byte	.LFB8
 4418 005c 10000000 		.4byte	.LFE8
 4419 0060 00000000 		.4byte	.LFB9
 4420 0064 10000000 		.4byte	.LFE9
 4421 0068 00000000 		.4byte	.LFB10
 4422 006c 30000000 		.4byte	.LFE10
 4423 0070 00000000 		.4byte	.LFB11
 4424 0074 48000000 		.4byte	.LFE11
 4425 0078 00000000 		.4byte	.LFB12
 4426 007c 50000000 		.4byte	.LFE12
 4427 0080 00000000 		.4byte	.LFB13
 4428 0084 6C000000 		.4byte	.LFE13
 4429 0088 00000000 		.4byte	.LFB14
 4430 008c 0C000000 		.4byte	.LFE14
 4431 0090 00000000 		.4byte	.LFB15
 4432 0094 0C000000 		.4byte	.LFE15
ARM GAS  C:\Users\YongY\AppData\Local\Temp\ccMwH7lk.s 			page 115


 4433 0098 00000000 		.4byte	.LFB16
 4434 009c 24000000 		.4byte	.LFE16
 4435 00a0 00000000 		.4byte	.LFB17
 4436 00a4 28000000 		.4byte	.LFE17
 4437 00a8 00000000 		.4byte	.LFB18
 4438 00ac 78000000 		.4byte	.LFE18
 4439 00b0 00000000 		.4byte	.LFB20
 4440 00b4 60000000 		.4byte	.LFE20
 4441 00b8 00000000 		.4byte	.LFB23
 4442 00bc 28000000 		.4byte	.LFE23
 4443 00c0 00000000 		.4byte	.LFB24
 4444 00c4 28000000 		.4byte	.LFE24
 4445 00c8 00000000 		.4byte	.LFB25
 4446 00cc 28000000 		.4byte	.LFE25
 4447 00d0 00000000 		.4byte	0
 4448 00d4 00000000 		.4byte	0
 4449              		.section	.debug_line,"",%progbits
 4450              	.Ldebug_line0:
 4451 0000 8D030000 		.section	.debug_str,"MS",%progbits,1
 4451      0200B600 
 4451      00000201 
 4451      FB0E0D00 
 4451      01010101 
 4452              	.LASF41:
 4453 0000 4144435F 		.ascii	"ADC_SOUND_IN_Init\000"
 4453      534F554E 
 4453      445F494E 
 4453      5F496E69 
 4453      7400
 4454              	.LASF79:
 4455 0012 4144435F 		.ascii	"ADC_SOUND_IN_Read8\000"
 4455      534F554E 
 4455      445F494E 
 4455      5F526561 
 4455      643800
 4456              	.LASF11:
 4457 0025 75696E74 		.ascii	"uint16\000"
 4457      313600
 4458              	.LASF96:
 4459 002c 4144435F 		.ascii	"ADC_SOUND_IN_Ext_CP_Clk_SetModeRegister\000"
 4459      534F554E 
 4459      445F494E 
 4459      5F457874 
 4459      5F43505F 
 4460              	.LASF67:
 4461 0054 61646347 		.ascii	"adcGain\000"
 4461      61696E00 
 4462              	.LASF92:
 4463 005c 43794578 		.ascii	"CyExitCriticalSection\000"
 4463      69744372 
 4463      69746963 
 4463      616C5365 
 4463      6374696F 
 4464              	.LASF27:
 4465 0072 696E7075 		.ascii	"inputRange\000"
 4465      7452616E 
 4465      676500
ARM GAS  C:\Users\YongY\AppData\Local\Temp\ccMwH7lk.s 			page 116


 4466              	.LASF88:
 4467 007d 4144435F 		.ascii	"ADC_SOUND_IN_Offset\000"
 4467      534F554E 
 4467      445F494E 
 4467      5F4F6666 
 4467      73657400 
 4468              	.LASF71:
 4469 0091 4144435F 		.ascii	"ADC_SOUND_IN_CountsTo_Volts\000"
 4469      534F554E 
 4469      445F494E 
 4469      5F436F75 
 4469      6E747354 
 4470              	.LASF24:
 4471 00ad 67636F72 		.ascii	"gcor\000"
 4471      00
 4472              	.LASF54:
 4473 00b2 4144435F 		.ascii	"ADC_SOUND_IN_ReadGCOR\000"
 4473      534F554E 
 4473      445F494E 
 4473      5F526561 
 4473      6447434F 
 4474              	.LASF68:
 4475 00c8 4144435F 		.ascii	"ADC_SOUND_IN_CountsTo_mVolts\000"
 4475      534F554E 
 4475      445F494E 
 4475      5F436F75 
 4475      6E747354 
 4476              	.LASF8:
 4477 00e5 6C6F6E67 		.ascii	"long long unsigned int\000"
 4477      206C6F6E 
 4477      6720756E 
 4477      7369676E 
 4477      65642069 
 4478              	.LASF93:
 4479 00fc 4144435F 		.ascii	"ADC_SOUND_IN_AMux_Select\000"
 4479      534F554E 
 4479      445F494E 
 4479      5F414D75 
 4479      785F5365 
 4480              	.LASF29:
 4481 0115 69646561 		.ascii	"idealOddDecGain\000"
 4481      6C4F6464 
 4481      44656347 
 4481      61696E00 
 4482              	.LASF7:
 4483 0125 6C6F6E67 		.ascii	"long long int\000"
 4483      206C6F6E 
 4483      6720696E 
 4483      7400
 4484              	.LASF1:
 4485 0133 7369676E 		.ascii	"signed char\000"
 4485      65642063 
 4485      68617200 
 4486              	.LASF15:
 4487 013f 696E7433 		.ascii	"int32\000"
 4487      3200
 4488              	.LASF5:
ARM GAS  C:\Users\YongY\AppData\Local\Temp\ccMwH7lk.s 			page 117


 4489 0145 6C6F6E67 		.ascii	"long int\000"
 4489      20696E74 
 4489      00
 4490              	.LASF89:
 4491 014e 4144435F 		.ascii	"ADC_SOUND_IN_CountsPerVolt\000"
 4491      534F554E 
 4491      445F494E 
 4491      5F436F75 
 4491      6E747350 
 4492              	.LASF20:
 4493 0169 72656731 		.ascii	"reg16\000"
 4493      3600
 4494              	.LASF10:
 4495 016f 75696E74 		.ascii	"uint8\000"
 4495      3800
 4496              	.LASF91:
 4497 0175 43794465 		.ascii	"CyDelayUs\000"
 4497      6C617955 
 4497      7300
 4498              	.LASF17:
 4499 017f 646F7562 		.ascii	"double\000"
 4499      6C6500
 4500              	.LASF72:
 4501 0186 566F6C74 		.ascii	"Volts\000"
 4501      7300
 4502              	.LASF97:
 4503 018c 4144435F 		.ascii	"ADC_SOUND_IN_theACLK_SetModeRegister\000"
 4503      534F554E 
 4503      445F494E 
 4503      5F746865 
 4503      41434C4B 
 4504              	.LASF12:
 4505 01b1 75696E74 		.ascii	"uint32\000"
 4505      333200
 4506              	.LASF102:
 4507 01b8 4379496E 		.ascii	"CyIntSetVector\000"
 4507      74536574 
 4507      56656374 
 4507      6F7200
 4508              	.LASF99:
 4509 01c7 2E5C4765 		.ascii	".\\Generated_Source\\PSoC5\\ADC_SOUND_IN.c\000"
 4509      6E657261 
 4509      7465645F 
 4509      536F7572 
 4509      63655C50 
 4510              	.LASF36:
 4511 01ef 4144435F 		.ascii	"ADC_SOUND_IN_GainCompensation\000"
 4511      534F554E 
 4511      445F494E 
 4511      5F476169 
 4511      6E436F6D 
 4512              	.LASF87:
 4513 020d 4144435F 		.ascii	"ADC_SOUND_IN_Config\000"
 4513      534F554E 
 4513      445F494E 
 4513      5F436F6E 
 4513      66696700 
ARM GAS  C:\Users\YongY\AppData\Local\Temp\ccMwH7lk.s 			page 118


 4514              	.LASF58:
 4515 0221 4144435F 		.ascii	"ADC_SOUND_IN_IsEndConversion\000"
 4515      534F554E 
 4515      445F494E 
 4515      5F497345 
 4515      6E64436F 
 4516              	.LASF38:
 4517 023e 76616C75 		.ascii	"value\000"
 4517      6500
 4518              	.LASF59:
 4519 0244 7265744D 		.ascii	"retMode\000"
 4519      6F646500 
 4520              	.LASF9:
 4521 024c 756E7369 		.ascii	"unsigned int\000"
 4521      676E6564 
 4521      20696E74 
 4521      00
 4522              	.LASF74:
 4523 0259 75566F6C 		.ascii	"uVolts\000"
 4523      747300
 4524              	.LASF31:
 4525 0260 636F6E66 		.ascii	"config\000"
 4525      696700
 4526              	.LASF73:
 4527 0267 4144435F 		.ascii	"ADC_SOUND_IN_CountsTo_uVolts\000"
 4527      534F554E 
 4527      445F494E 
 4527      5F436F75 
 4527      6E747354 
 4528              	.LASF6:
 4529 0284 6C6F6E67 		.ascii	"long unsigned int\000"
 4529      20756E73 
 4529      69676E65 
 4529      6420696E 
 4529      7400
 4530              	.LASF100:
 4531 0296 433A5C55 		.ascii	"C:\\Users\\YongY\\Downloads\\TFT_Tutorial_2022\\TFT"
 4531      73657273 
 4531      5C596F6E 
 4531      67595C44 
 4531      6F776E6C 
 4532 02c4 5F776974 		.ascii	"_with_emWin\\Guitar Learner.cydsn\000"
 4532      685F656D 
 4532      57696E5C 
 4532      47756974 
 4532      6172204C 
 4533              	.LASF80:
 4534 02e5 4144435F 		.ascii	"ADC_SOUND_IN_Read16\000"
 4534      534F554E 
 4534      445F494E 
 4534      5F526561 
 4534      64313600 
 4535              	.LASF86:
 4536 02f9 4144435F 		.ascii	"ADC_SOUND_IN_started\000"
 4536      534F554E 
 4536      445F494E 
 4536      5F737461 
ARM GAS  C:\Users\YongY\AppData\Local\Temp\ccMwH7lk.s 			page 119


 4536      72746564 
 4537              	.LASF4:
 4538 030e 73686F72 		.ascii	"short unsigned int\000"
 4538      7420756E 
 4538      7369676E 
 4538      65642069 
 4538      6E7400
 4539              	.LASF13:
 4540 0321 696E7438 		.ascii	"int8\000"
 4540      00
 4541              	.LASF45:
 4542 0326 4144435F 		.ascii	"ADC_SOUND_IN_SetBufferGain\000"
 4542      534F554E 
 4542      445F494E 
 4542      5F536574 
 4542      42756666 
 4543              	.LASF34:
 4544 0341 67636F72 		.ascii	"gcorValue\000"
 4544      56616C75 
 4544      6500
 4545              	.LASF63:
 4546 034b 4144435F 		.ascii	"ADC_SOUND_IN_GetResult32\000"
 4546      534F554E 
 4546      445F494E 
 4546      5F476574 
 4546      52657375 
 4547              	.LASF42:
 4548 0364 4144435F 		.ascii	"ADC_SOUND_IN_Enable\000"
 4548      534F554E 
 4548      445F494E 
 4548      5F456E61 
 4548      626C6500 
 4549              	.LASF70:
 4550 0378 6D566F6C 		.ascii	"mVolts\000"
 4550      747300
 4551              	.LASF32:
 4552 037f 666C6173 		.ascii	"flash\000"
 4552      6800
 4553              	.LASF21:
 4554 0385 72656733 		.ascii	"reg32\000"
 4554      3200
 4555              	.LASF82:
 4556 038b 4144435F 		.ascii	"ADC_SOUND_IN_gcor\000"
 4556      534F554E 
 4556      445F494E 
 4556      5F67636F 
 4556      7200
 4557              	.LASF16:
 4558 039d 666C6F61 		.ascii	"float32\000"
 4558      74333200 
 4559              	.LASF23:
 4560 03a5 73697A65 		.ascii	"sizetype\000"
 4560      74797065 
 4560      00
 4561              	.LASF56:
 4562 03ae 4144435F 		.ascii	"ADC_SOUND_IN_StartConvert\000"
 4562      534F554E 
ARM GAS  C:\Users\YongY\AppData\Local\Temp\ccMwH7lk.s 			page 120


 4562      445F494E 
 4562      5F537461 
 4562      7274436F 
 4563              	.LASF101:
 4564 03c8 4379456E 		.ascii	"CyEnterCriticalSection\000"
 4564      74657243 
 4564      72697469 
 4564      63616C53 
 4564      65637469 
 4565              	.LASF37:
 4566 03df 4144435F 		.ascii	"ADC_SOUND_IN_SetDSMRef0Reg\000"
 4566      534F554E 
 4566      445F494E 
 4566      5F536574 
 4566      44534D52 
 4567              	.LASF48:
 4568 03fa 4144435F 		.ascii	"ADC_SOUND_IN_SetCoherency\000"
 4568      534F554E 
 4568      445F494E 
 4568      5F536574 
 4568      436F6865 
 4569              	.LASF49:
 4570 0414 636F6865 		.ascii	"coherency\000"
 4570      72656E63 
 4570      7900
 4571              	.LASF103:
 4572 041e 4379496E 		.ascii	"CyIntSetPriority\000"
 4572      74536574 
 4572      5072696F 
 4572      72697479 
 4572      00
 4573              	.LASF46:
 4574 042f 6761696E 		.ascii	"gain\000"
 4574      00
 4575              	.LASF84:
 4576 0434 4144435F 		.ascii	"ADC_SOUND_IN_convDone\000"
 4576      534F554E 
 4576      445F494E 
 4576      5F636F6E 
 4576      76446F6E 
 4577              	.LASF0:
 4578 044a 666C6F61 		.ascii	"float\000"
 4578      7400
 4579              	.LASF44:
 4580 0450 4144435F 		.ascii	"ADC_SOUND_IN_Stop\000"
 4580      534F554E 
 4580      445F494E 
 4580      5F53746F 
 4580      7000
 4581              	.LASF83:
 4582 0462 4144435F 		.ascii	"ADC_SOUND_IN_initVar\000"
 4582      534F554E 
 4582      445F494E 
 4582      5F696E69 
 4582      74566172 
 4583              	.LASF85:
 4584 0477 4144435F 		.ascii	"ADC_SOUND_IN_stopConversion\000"
ARM GAS  C:\Users\YongY\AppData\Local\Temp\ccMwH7lk.s 			page 121


 4584      534F554E 
 4584      445F494E 
 4584      5F73746F 
 4584      70436F6E 
 4585              	.LASF81:
 4586 0493 4144435F 		.ascii	"ADC_SOUND_IN_Read32\000"
 4586      534F554E 
 4586      445F494E 
 4586      5F526561 
 4586      64333200 
 4587              	.LASF19:
 4588 04a7 72656738 		.ascii	"reg8\000"
 4588      00
 4589              	.LASF95:
 4590 04ac 4144435F 		.ascii	"ADC_SOUND_IN_theACLK_SetDividerRegister\000"
 4590      534F554E 
 4590      445F494E 
 4590      5F746865 
 4590      41434C4B 
 4591              	.LASF28:
 4592 04d4 69646561 		.ascii	"idealDecGain\000"
 4592      6C446563 
 4592      4761696E 
 4592      00
 4593              	.LASF33:
 4594 04e1 6E6F726D 		.ascii	"normalised\000"
 4594      616C6973 
 4594      656400
 4595              	.LASF90:
 4596 04ec 43794861 		.ascii	"CyHalt\000"
 4596      6C7400
 4597              	.LASF2:
 4598 04f3 756E7369 		.ascii	"unsigned char\000"
 4598      676E6564 
 4598      20636861 
 4598      7200
 4599              	.LASF77:
 4600 0501 4144435F 		.ascii	"ADC_SOUND_IN_SelectConfiguration\000"
 4600      534F554E 
 4600      445F494E 
 4600      5F53656C 
 4600      65637443 
 4601              	.LASF64:
 4602 0522 4144435F 		.ascii	"ADC_SOUND_IN_SetOffset\000"
 4602      534F554E 
 4602      445F494E 
 4602      5F536574 
 4602      4F666673 
 4603              	.LASF94:
 4604 0539 4144435F 		.ascii	"ADC_SOUND_IN_Ext_CP_Clk_SetDividerRegister\000"
 4604      534F554E 
 4604      445F494E 
 4604      5F457874 
 4604      5F43505F 
 4605              	.LASF3:
 4606 0564 73686F72 		.ascii	"short int\000"
 4606      7420696E 
ARM GAS  C:\Users\YongY\AppData\Local\Temp\ccMwH7lk.s 			page 122


 4606      7400
 4607              	.LASF35:
 4608 056e 67636F72 		.ascii	"gcorTmp\000"
 4608      546D7000 
 4609              	.LASF62:
 4610 0576 4144435F 		.ascii	"ADC_SOUND_IN_GetResult16\000"
 4610      534F554E 
 4610      445F494E 
 4610      5F476574 
 4610      52657375 
 4611              	.LASF30:
 4612 058f 7265736F 		.ascii	"resolution\000"
 4612      6C757469 
 4612      6F6E00
 4613              	.LASF40:
 4614 059a 4144435F 		.ascii	"ADC_SOUND_IN_InitConfig\000"
 4614      534F554E 
 4614      445F494E 
 4614      5F496E69 
 4614      74436F6E 
 4615              	.LASF60:
 4616 05b2 4144435F 		.ascii	"ADC_SOUND_IN_GetResult8\000"
 4616      534F554E 
 4616      445F494E 
 4616      5F476574 
 4616      52657375 
 4617              	.LASF75:
 4618 05ca 636F6566 		.ascii	"coefA\000"
 4618      4100
 4619              	.LASF76:
 4620 05d0 636F6566 		.ascii	"coefB\000"
 4620      4200
 4621              	.LASF18:
 4622 05d6 63686172 		.ascii	"char\000"
 4622      00
 4623              	.LASF55:
 4624 05db 6756616C 		.ascii	"gValue\000"
 4624      756500
 4625              	.LASF22:
 4626 05e2 63796973 		.ascii	"cyisraddress\000"
 4626      72616464 
 4626      72657373 
 4626      00
 4627              	.LASF26:
 4628 05ef 4144435F 		.ascii	"ADC_SOUND_IN_GCOR_STRUCT\000"
 4628      534F554E 
 4628      445F494E 
 4628      5F47434F 
 4628      525F5354 
 4629              	.LASF25:
 4630 0608 6776616C 		.ascii	"gval\000"
 4630      00
 4631              	.LASF78:
 4632 060d 72657374 		.ascii	"restart\000"
 4632      61727400 
 4633              	.LASF52:
 4634 0615 746D7056 		.ascii	"tmpValue\000"
ARM GAS  C:\Users\YongY\AppData\Local\Temp\ccMwH7lk.s 			page 123


 4634      616C7565 
 4634      00
 4635              	.LASF57:
 4636 061e 4144435F 		.ascii	"ADC_SOUND_IN_StopConvert\000"
 4636      534F554E 
 4636      445F494E 
 4636      5F53746F 
 4636      70436F6E 
 4637              	.LASF65:
 4638 0637 6F666673 		.ascii	"offset\000"
 4638      657400
 4639              	.LASF69:
 4640 063e 61646343 		.ascii	"adcCounts\000"
 4640      6F756E74 
 4640      7300
 4641              	.LASF53:
 4642 0648 4144435F 		.ascii	"ADC_SOUND_IN_SetGCOR\000"
 4642      534F554E 
 4642      445F494E 
 4642      5F536574 
 4642      47434F52 
 4643              	.LASF39:
 4644 065d 656E6162 		.ascii	"enableInterrupts\000"
 4644      6C65496E 
 4644      74657272 
 4644      75707473 
 4644      00
 4645              	.LASF51:
 4646 066e 73746174 		.ascii	"status\000"
 4646      757300
 4647              	.LASF98:
 4648 0675 474E5520 		.ascii	"GNU C 4.9.3 20150303 (release) [ARM/embedded-4_9-br"
 4648      4320342E 
 4648      392E3320 
 4648      32303135 
 4648      30333033 
 4649 06a8 616E6368 		.ascii	"anch revision 221220] -mcpu=cortex-m3 -mthumb -g -O"
 4649      20726576 
 4649      6973696F 
 4649      6E203232 
 4649      31323230 
 4650 06db 67202D66 		.ascii	"g -ffunction-sections -ffat-lto-objects\000"
 4650      66756E63 
 4650      74696F6E 
 4650      2D736563 
 4650      74696F6E 
 4651              	.LASF50:
 4652 0703 6761696E 		.ascii	"gainAdjust\000"
 4652      41646A75 
 4652      737400
 4653              	.LASF66:
 4654 070e 4144435F 		.ascii	"ADC_SOUND_IN_SetGain\000"
 4654      534F554E 
 4654      445F494E 
 4654      5F536574 
 4654      4761696E 
 4655              	.LASF14:
ARM GAS  C:\Users\YongY\AppData\Local\Temp\ccMwH7lk.s 			page 124


 4656 0723 696E7431 		.ascii	"int16\000"
 4656      3600
 4657              	.LASF43:
 4658 0729 4144435F 		.ascii	"ADC_SOUND_IN_Start\000"
 4658      534F554E 
 4658      445F494E 
 4658      5F537461 
 4658      727400
 4659              	.LASF47:
 4660 073c 746D7052 		.ascii	"tmpReg\000"
 4660      656700
 4661              	.LASF61:
 4662 0743 72657375 		.ascii	"result\000"
 4662      6C7400
 4663              		.ident	"GCC: (GNU Tools for ARM Embedded Processors) 4.9.3 20150303 (release) [ARM/embedded-4_9-br
