ARM GAS  C:\Users\YongY\AppData\Local\Temp\cchW9XSi.s 			page 1


   1              		.syntax unified
   2              		.cpu cortex-m3
   3              		.fpu softvfp
   4              		.eabi_attribute 20, 1
   5              		.eabi_attribute 21, 1
   6              		.eabi_attribute 23, 3
   7              		.eabi_attribute 24, 1
   8              		.eabi_attribute 25, 1
   9              		.eabi_attribute 26, 1
  10              		.eabi_attribute 30, 1
  11              		.eabi_attribute 34, 1
  12              		.eabi_attribute 18, 4
  13              		.thumb
  14              		.file	"cyfitter_cfg.c"
  15              		.text
  16              	.Ltext0:
  17              		.cfi_sections	.debug_frame
  18              		.section	.text.CyClockStartupError,"ax",%progbits
  19              		.align	2
  20              		.thumb
  21              		.thumb_func
  22              		.type	CyClockStartupError, %function
  23              	CyClockStartupError:
  24              	.LFB3:
  25              		.file 1 ".\\Generated_Source\\PSoC5\\cyfitter_cfg.c"
   1:.\Generated_Source\PSoC5/cyfitter_cfg.c **** /*******************************************************************************
   2:.\Generated_Source\PSoC5/cyfitter_cfg.c **** * File Name: cyfitter_cfg.c
   3:.\Generated_Source\PSoC5/cyfitter_cfg.c **** * 
   4:.\Generated_Source\PSoC5/cyfitter_cfg.c **** * PSoC Creator  3.3 CP3
   5:.\Generated_Source\PSoC5/cyfitter_cfg.c **** *
   6:.\Generated_Source\PSoC5/cyfitter_cfg.c **** * Description:
   7:.\Generated_Source\PSoC5/cyfitter_cfg.c **** * This file contains device initialization code.
   8:.\Generated_Source\PSoC5/cyfitter_cfg.c **** * Except for the user defined sections in CyClockStartupError(), this file should not be modified.
   9:.\Generated_Source\PSoC5/cyfitter_cfg.c **** * This file is automatically generated by PSoC Creator.
  10:.\Generated_Source\PSoC5/cyfitter_cfg.c **** *
  11:.\Generated_Source\PSoC5/cyfitter_cfg.c **** ********************************************************************************
  12:.\Generated_Source\PSoC5/cyfitter_cfg.c **** * Copyright (c) 2007-2016 Cypress Semiconductor.  All rights reserved.
  13:.\Generated_Source\PSoC5/cyfitter_cfg.c **** * You may use this file only in accordance with the license, terms, conditions, 
  14:.\Generated_Source\PSoC5/cyfitter_cfg.c **** * disclaimers, and limitations in the end user license agreement accompanying 
  15:.\Generated_Source\PSoC5/cyfitter_cfg.c **** * the software package with which this file was provided.
  16:.\Generated_Source\PSoC5/cyfitter_cfg.c **** ********************************************************************************/
  17:.\Generated_Source\PSoC5/cyfitter_cfg.c **** 
  18:.\Generated_Source\PSoC5/cyfitter_cfg.c **** #include <string.h>
  19:.\Generated_Source\PSoC5/cyfitter_cfg.c **** #include "cytypes.h"
  20:.\Generated_Source\PSoC5/cyfitter_cfg.c **** #include "cydevice_trm.h"
  21:.\Generated_Source\PSoC5/cyfitter_cfg.c **** #include "cyfitter.h"
  22:.\Generated_Source\PSoC5/cyfitter_cfg.c **** #include "CyLib.h"
  23:.\Generated_Source\PSoC5/cyfitter_cfg.c **** #include "cyfitter_cfg.h"
  24:.\Generated_Source\PSoC5/cyfitter_cfg.c **** 
  25:.\Generated_Source\PSoC5/cyfitter_cfg.c **** #define CY_NEED_CYCLOCKSTARTUPERROR 1
  26:.\Generated_Source\PSoC5/cyfitter_cfg.c **** 
  27:.\Generated_Source\PSoC5/cyfitter_cfg.c **** 
  28:.\Generated_Source\PSoC5/cyfitter_cfg.c **** #if defined(__GNUC__) || defined(__ARMCC_VERSION)
  29:.\Generated_Source\PSoC5/cyfitter_cfg.c ****     #define CYPACKED 
  30:.\Generated_Source\PSoC5/cyfitter_cfg.c ****     #define CYPACKED_ATTR __attribute__ ((packed))
  31:.\Generated_Source\PSoC5/cyfitter_cfg.c ****     #define CYALIGNED __attribute__ ((aligned))
  32:.\Generated_Source\PSoC5/cyfitter_cfg.c ****     #define CY_CFG_UNUSED __attribute__ ((unused))
ARM GAS  C:\Users\YongY\AppData\Local\Temp\cchW9XSi.s 			page 2


  33:.\Generated_Source\PSoC5/cyfitter_cfg.c ****     #ifndef CY_CFG_SECTION
  34:.\Generated_Source\PSoC5/cyfitter_cfg.c ****         #define CY_CFG_SECTION __attribute__ ((section(".psocinit")))
  35:.\Generated_Source\PSoC5/cyfitter_cfg.c ****     #endif
  36:.\Generated_Source\PSoC5/cyfitter_cfg.c ****     
  37:.\Generated_Source\PSoC5/cyfitter_cfg.c ****     #if defined(__ARMCC_VERSION)
  38:.\Generated_Source\PSoC5/cyfitter_cfg.c ****         #define CY_CFG_MEMORY_BARRIER() __memory_changed()
  39:.\Generated_Source\PSoC5/cyfitter_cfg.c ****     #else
  40:.\Generated_Source\PSoC5/cyfitter_cfg.c ****         #define CY_CFG_MEMORY_BARRIER() __sync_synchronize()
  41:.\Generated_Source\PSoC5/cyfitter_cfg.c ****     #endif
  42:.\Generated_Source\PSoC5/cyfitter_cfg.c ****     
  43:.\Generated_Source\PSoC5/cyfitter_cfg.c **** #elif defined(__ICCARM__)
  44:.\Generated_Source\PSoC5/cyfitter_cfg.c ****     #include <intrinsics.h>
  45:.\Generated_Source\PSoC5/cyfitter_cfg.c **** 
  46:.\Generated_Source\PSoC5/cyfitter_cfg.c ****     #define CYPACKED __packed
  47:.\Generated_Source\PSoC5/cyfitter_cfg.c ****     #define CYPACKED_ATTR 
  48:.\Generated_Source\PSoC5/cyfitter_cfg.c ****     #define CYALIGNED _Pragma("data_alignment=4")
  49:.\Generated_Source\PSoC5/cyfitter_cfg.c ****     #define CY_CFG_UNUSED _Pragma("diag_suppress=Pe177")
  50:.\Generated_Source\PSoC5/cyfitter_cfg.c ****     #define CY_CFG_SECTION _Pragma("location=\".psocinit\"")
  51:.\Generated_Source\PSoC5/cyfitter_cfg.c ****     
  52:.\Generated_Source\PSoC5/cyfitter_cfg.c ****     #define CY_CFG_MEMORY_BARRIER() __DMB()
  53:.\Generated_Source\PSoC5/cyfitter_cfg.c ****     
  54:.\Generated_Source\PSoC5/cyfitter_cfg.c **** #else
  55:.\Generated_Source\PSoC5/cyfitter_cfg.c ****     #error Unsupported toolchain
  56:.\Generated_Source\PSoC5/cyfitter_cfg.c **** #endif
  57:.\Generated_Source\PSoC5/cyfitter_cfg.c **** 
  58:.\Generated_Source\PSoC5/cyfitter_cfg.c **** 
  59:.\Generated_Source\PSoC5/cyfitter_cfg.c **** CY_CFG_UNUSED
  60:.\Generated_Source\PSoC5/cyfitter_cfg.c **** static void CYMEMZERO(void *s, size_t n);
  61:.\Generated_Source\PSoC5/cyfitter_cfg.c **** CY_CFG_UNUSED
  62:.\Generated_Source\PSoC5/cyfitter_cfg.c **** static void CYMEMZERO(void *s, size_t n)
  63:.\Generated_Source\PSoC5/cyfitter_cfg.c **** {
  64:.\Generated_Source\PSoC5/cyfitter_cfg.c **** 	(void)memset(s, 0, n);
  65:.\Generated_Source\PSoC5/cyfitter_cfg.c **** }
  66:.\Generated_Source\PSoC5/cyfitter_cfg.c **** CY_CFG_UNUSED
  67:.\Generated_Source\PSoC5/cyfitter_cfg.c **** static void CYCONFIGCPY(void *dest, const void *src, size_t n);
  68:.\Generated_Source\PSoC5/cyfitter_cfg.c **** CY_CFG_UNUSED
  69:.\Generated_Source\PSoC5/cyfitter_cfg.c **** static void CYCONFIGCPY(void *dest, const void *src, size_t n)
  70:.\Generated_Source\PSoC5/cyfitter_cfg.c **** {
  71:.\Generated_Source\PSoC5/cyfitter_cfg.c **** 	(void)memcpy(dest, src, n);
  72:.\Generated_Source\PSoC5/cyfitter_cfg.c **** }
  73:.\Generated_Source\PSoC5/cyfitter_cfg.c **** CY_CFG_UNUSED
  74:.\Generated_Source\PSoC5/cyfitter_cfg.c **** static void CYCONFIGCPYCODE(void *dest, const void *src, size_t n);
  75:.\Generated_Source\PSoC5/cyfitter_cfg.c **** CY_CFG_UNUSED
  76:.\Generated_Source\PSoC5/cyfitter_cfg.c **** static void CYCONFIGCPYCODE(void *dest, const void *src, size_t n)
  77:.\Generated_Source\PSoC5/cyfitter_cfg.c **** {
  78:.\Generated_Source\PSoC5/cyfitter_cfg.c **** 	(void)memcpy(dest, src, n);
  79:.\Generated_Source\PSoC5/cyfitter_cfg.c **** }
  80:.\Generated_Source\PSoC5/cyfitter_cfg.c **** 
  81:.\Generated_Source\PSoC5/cyfitter_cfg.c **** 
  82:.\Generated_Source\PSoC5/cyfitter_cfg.c **** 
  83:.\Generated_Source\PSoC5/cyfitter_cfg.c **** /* Clock startup error codes                                                   */
  84:.\Generated_Source\PSoC5/cyfitter_cfg.c **** #define CYCLOCKSTART_NO_ERROR    0u
  85:.\Generated_Source\PSoC5/cyfitter_cfg.c **** #define CYCLOCKSTART_XTAL_ERROR  1u
  86:.\Generated_Source\PSoC5/cyfitter_cfg.c **** #define CYCLOCKSTART_32KHZ_ERROR 2u
  87:.\Generated_Source\PSoC5/cyfitter_cfg.c **** #define CYCLOCKSTART_PLL_ERROR   3u
  88:.\Generated_Source\PSoC5/cyfitter_cfg.c **** 
  89:.\Generated_Source\PSoC5/cyfitter_cfg.c **** #ifdef CY_NEED_CYCLOCKSTARTUPERROR
ARM GAS  C:\Users\YongY\AppData\Local\Temp\cchW9XSi.s 			page 3


  90:.\Generated_Source\PSoC5/cyfitter_cfg.c **** /*******************************************************************************
  91:.\Generated_Source\PSoC5/cyfitter_cfg.c **** * Function Name: CyClockStartupError
  92:.\Generated_Source\PSoC5/cyfitter_cfg.c **** ********************************************************************************
  93:.\Generated_Source\PSoC5/cyfitter_cfg.c **** * Summary:
  94:.\Generated_Source\PSoC5/cyfitter_cfg.c **** *  If an error is encountered during clock configuration (crystal startup error,
  95:.\Generated_Source\PSoC5/cyfitter_cfg.c **** *  PLL lock error, etc.), the system will end up here.  Unless reimplemented by
  96:.\Generated_Source\PSoC5/cyfitter_cfg.c **** *  the customer, this function will stop in an infinite loop.
  97:.\Generated_Source\PSoC5/cyfitter_cfg.c **** *
  98:.\Generated_Source\PSoC5/cyfitter_cfg.c **** * Parameters:
  99:.\Generated_Source\PSoC5/cyfitter_cfg.c **** *   void
 100:.\Generated_Source\PSoC5/cyfitter_cfg.c **** *
 101:.\Generated_Source\PSoC5/cyfitter_cfg.c **** * Return:
 102:.\Generated_Source\PSoC5/cyfitter_cfg.c **** *   void
 103:.\Generated_Source\PSoC5/cyfitter_cfg.c **** *
 104:.\Generated_Source\PSoC5/cyfitter_cfg.c **** *******************************************************************************/
 105:.\Generated_Source\PSoC5/cyfitter_cfg.c **** CY_CFG_UNUSED
 106:.\Generated_Source\PSoC5/cyfitter_cfg.c **** static void CyClockStartupError(uint8 errorCode);
 107:.\Generated_Source\PSoC5/cyfitter_cfg.c **** CY_CFG_UNUSED
 108:.\Generated_Source\PSoC5/cyfitter_cfg.c **** static void CyClockStartupError(uint8 errorCode)
 109:.\Generated_Source\PSoC5/cyfitter_cfg.c **** {
  26              		.loc 1 109 0
  27              		.cfi_startproc
  28              		@ Volatile: function does not return.
  29              		@ args = 0, pretend = 0, frame = 0
  30              		@ frame_needed = 0, uses_anonymous_args = 0
  31              		@ link register save eliminated.
  32              	.LVL0:
  33              	.L2:
 110:.\Generated_Source\PSoC5/cyfitter_cfg.c ****     /* To remove the compiler warning if errorCode not used.                */
 111:.\Generated_Source\PSoC5/cyfitter_cfg.c ****     errorCode = errorCode;
 112:.\Generated_Source\PSoC5/cyfitter_cfg.c **** 
 113:.\Generated_Source\PSoC5/cyfitter_cfg.c ****     /* `#START CyClockStartupError` */
 114:.\Generated_Source\PSoC5/cyfitter_cfg.c **** 
 115:.\Generated_Source\PSoC5/cyfitter_cfg.c ****     /* If we have a clock startup error (bad MHz crystal, PLL lock, etc.),  */
 116:.\Generated_Source\PSoC5/cyfitter_cfg.c ****     /* we will end up here to allow the customer to implement something to  */
 117:.\Generated_Source\PSoC5/cyfitter_cfg.c ****     /* deal with the clock condition.                                       */
 118:.\Generated_Source\PSoC5/cyfitter_cfg.c **** 
 119:.\Generated_Source\PSoC5/cyfitter_cfg.c ****     /* `#END` */
 120:.\Generated_Source\PSoC5/cyfitter_cfg.c **** 
 121:.\Generated_Source\PSoC5/cyfitter_cfg.c ****     /* If nothing else, stop here since the clocks have not started         */
 122:.\Generated_Source\PSoC5/cyfitter_cfg.c ****     /* correctly.                                                           */
 123:.\Generated_Source\PSoC5/cyfitter_cfg.c ****     while(1) {}
  34              		.loc 1 123 0 discriminator 1
  35 0000 FEE7     		b	.L2
  36              		.cfi_endproc
  37              	.LFE3:
  38              		.size	CyClockStartupError, .-CyClockStartupError
  39 0002 00BF     		.section	.text.cfg_write_bytes32,"ax",%progbits
  40              		.align	2
  41              		.thumb
  42              		.thumb_func
  43              		.type	cfg_write_bytes32, %function
  44              	cfg_write_bytes32:
  45              	.LFB4:
 124:.\Generated_Source\PSoC5/cyfitter_cfg.c **** }
 125:.\Generated_Source\PSoC5/cyfitter_cfg.c **** #endif
 126:.\Generated_Source\PSoC5/cyfitter_cfg.c **** 
ARM GAS  C:\Users\YongY\AppData\Local\Temp\cchW9XSi.s 			page 4


 127:.\Generated_Source\PSoC5/cyfitter_cfg.c **** #define CY_CFG_BASE_ADDR_COUNT 21u
 128:.\Generated_Source\PSoC5/cyfitter_cfg.c **** CYPACKED typedef struct
 129:.\Generated_Source\PSoC5/cyfitter_cfg.c **** {
 130:.\Generated_Source\PSoC5/cyfitter_cfg.c **** 	uint8 offset;
 131:.\Generated_Source\PSoC5/cyfitter_cfg.c **** 	uint8 value;
 132:.\Generated_Source\PSoC5/cyfitter_cfg.c **** } CYPACKED_ATTR cy_cfg_addrvalue_t;
 133:.\Generated_Source\PSoC5/cyfitter_cfg.c **** 
 134:.\Generated_Source\PSoC5/cyfitter_cfg.c **** #define cy_cfg_addr_table ((const uint32 CYFAR *)0x48000000u)
 135:.\Generated_Source\PSoC5/cyfitter_cfg.c **** #define cy_cfg_data_table ((const cy_cfg_addrvalue_t CYFAR *)0x48000054u)
 136:.\Generated_Source\PSoC5/cyfitter_cfg.c **** 
 137:.\Generated_Source\PSoC5/cyfitter_cfg.c **** /* UDB_0_0_0_CONFIG Address: CYDEV_UCFG_B1_P5_U0_BASE Size (bytes): 128 */
 138:.\Generated_Source\PSoC5/cyfitter_cfg.c **** #define BS_UDB_0_0_0_CONFIG_VAL ((const uint8 CYFAR *)0x48000250u)
 139:.\Generated_Source\PSoC5/cyfitter_cfg.c **** 
 140:.\Generated_Source\PSoC5/cyfitter_cfg.c **** /* IOPINS0_0 Address: CYREG_PRT0_DM0 Size (bytes): 8 */
 141:.\Generated_Source\PSoC5/cyfitter_cfg.c **** #define BS_IOPINS0_0_VAL ((const uint8 CYFAR *)0x480002D0u)
 142:.\Generated_Source\PSoC5/cyfitter_cfg.c **** 
 143:.\Generated_Source\PSoC5/cyfitter_cfg.c **** /* IOPINS0_8 Address: CYREG_PRT15_DR Size (bytes): 10 */
 144:.\Generated_Source\PSoC5/cyfitter_cfg.c **** #define BS_IOPINS0_8_VAL ((const uint8 CYFAR *)0x480002D8u)
 145:.\Generated_Source\PSoC5/cyfitter_cfg.c **** 
 146:.\Generated_Source\PSoC5/cyfitter_cfg.c **** /* IOPINS0_1 Address: CYREG_PRT1_DR Size (bytes): 10 */
 147:.\Generated_Source\PSoC5/cyfitter_cfg.c **** #define BS_IOPINS0_1_VAL ((const uint8 CYFAR *)0x480002E4u)
 148:.\Generated_Source\PSoC5/cyfitter_cfg.c **** 
 149:.\Generated_Source\PSoC5/cyfitter_cfg.c **** /* IOPINS0_2 Address: CYREG_PRT2_DM0 Size (bytes): 8 */
 150:.\Generated_Source\PSoC5/cyfitter_cfg.c **** #define BS_IOPINS0_2_VAL ((const uint8 CYFAR *)0x480002F0u)
 151:.\Generated_Source\PSoC5/cyfitter_cfg.c **** 
 152:.\Generated_Source\PSoC5/cyfitter_cfg.c **** /* IOPINS0_5 Address: CYREG_PRT5_DM0 Size (bytes): 8 */
 153:.\Generated_Source\PSoC5/cyfitter_cfg.c **** #define BS_IOPINS0_5_VAL ((const uint8 CYFAR *)0x480002F8u)
 154:.\Generated_Source\PSoC5/cyfitter_cfg.c **** 
 155:.\Generated_Source\PSoC5/cyfitter_cfg.c **** /* IOPINS0_6 Address: CYREG_PRT6_DR Size (bytes): 10 */
 156:.\Generated_Source\PSoC5/cyfitter_cfg.c **** #define BS_IOPINS0_6_VAL ((const uint8 CYFAR *)0x48000300u)
 157:.\Generated_Source\PSoC5/cyfitter_cfg.c **** 
 158:.\Generated_Source\PSoC5/cyfitter_cfg.c **** /* CYDEV_CLKDIST_ACFG0_CFG0 Address: CYREG_CLKDIST_ACFG0_CFG0 Size (bytes): 4 */
 159:.\Generated_Source\PSoC5/cyfitter_cfg.c **** #define BS_CYDEV_CLKDIST_ACFG0_CFG0_VAL ((const uint8 CYFAR *)0x4800030Cu)
 160:.\Generated_Source\PSoC5/cyfitter_cfg.c **** 
 161:.\Generated_Source\PSoC5/cyfitter_cfg.c **** 
 162:.\Generated_Source\PSoC5/cyfitter_cfg.c **** /*******************************************************************************
 163:.\Generated_Source\PSoC5/cyfitter_cfg.c **** * Function Name: cfg_write_bytes32
 164:.\Generated_Source\PSoC5/cyfitter_cfg.c **** ********************************************************************************
 165:.\Generated_Source\PSoC5/cyfitter_cfg.c **** * Summary:
 166:.\Generated_Source\PSoC5/cyfitter_cfg.c **** *  This function is used for setting up the chip configuration areas that
 167:.\Generated_Source\PSoC5/cyfitter_cfg.c **** *  contain relatively sparse data.
 168:.\Generated_Source\PSoC5/cyfitter_cfg.c **** *
 169:.\Generated_Source\PSoC5/cyfitter_cfg.c **** * Parameters:
 170:.\Generated_Source\PSoC5/cyfitter_cfg.c **** *   void
 171:.\Generated_Source\PSoC5/cyfitter_cfg.c **** *
 172:.\Generated_Source\PSoC5/cyfitter_cfg.c **** * Return:
 173:.\Generated_Source\PSoC5/cyfitter_cfg.c **** *   void
 174:.\Generated_Source\PSoC5/cyfitter_cfg.c **** *
 175:.\Generated_Source\PSoC5/cyfitter_cfg.c **** *******************************************************************************/
 176:.\Generated_Source\PSoC5/cyfitter_cfg.c **** static void cfg_write_bytes32(const uint32 addr_table[], const cy_cfg_addrvalue_t data_table[]);
 177:.\Generated_Source\PSoC5/cyfitter_cfg.c **** static void cfg_write_bytes32(const uint32 addr_table[], const cy_cfg_addrvalue_t data_table[])
 178:.\Generated_Source\PSoC5/cyfitter_cfg.c **** {
  46              		.loc 1 178 0
  47              		.cfi_startproc
  48              		@ args = 0, pretend = 0, frame = 0
  49              		@ frame_needed = 0, uses_anonymous_args = 0
  50              		@ link register save eliminated.
ARM GAS  C:\Users\YongY\AppData\Local\Temp\cchW9XSi.s 			page 5


  51              	.LVL1:
  52 0000 F0B4     		push	{r4, r5, r6, r7}
  53              		.cfi_def_cfa_offset 16
  54              		.cfi_offset 4, -16
  55              		.cfi_offset 5, -12
  56              		.cfi_offset 6, -8
  57              		.cfi_offset 7, -4
  58              	.LVL2:
 179:.\Generated_Source\PSoC5/cyfitter_cfg.c **** 	/* For 32-bit little-endian architectures */
 180:.\Generated_Source\PSoC5/cyfitter_cfg.c **** 	uint32 i, j = 0u;
  59              		.loc 1 180 0
  60 0002 0022     		movs	r2, #0
 181:.\Generated_Source\PSoC5/cyfitter_cfg.c **** 	for (i = 0u; i < CY_CFG_BASE_ADDR_COUNT; i++)
  61              		.loc 1 181 0
  62 0004 1746     		mov	r7, r2
  63 0006 11E0     		b	.L4
  64              	.LVL3:
  65              	.L7:
  66              	.LBB2:
 182:.\Generated_Source\PSoC5/cyfitter_cfg.c **** 	{
 183:.\Generated_Source\PSoC5/cyfitter_cfg.c **** 		uint32 baseAddr = addr_table[i];
  67              		.loc 1 183 0
  68 0008 50F82760 		ldr	r6, [r0, r7, lsl #2]
  69              	.LVL4:
 184:.\Generated_Source\PSoC5/cyfitter_cfg.c **** 		uint8 count = (uint8)baseAddr;
  70              		.loc 1 184 0
  71 000c F3B2     		uxtb	r3, r6
  72              	.LVL5:
 185:.\Generated_Source\PSoC5/cyfitter_cfg.c **** 		baseAddr &= 0xFFFFFF00u;
  73              		.loc 1 185 0
  74 000e 26F0FF06 		bic	r6, r6, #255
  75              	.LVL6:
 186:.\Generated_Source\PSoC5/cyfitter_cfg.c **** 		while (count != 0u)
  76              		.loc 1 186 0
  77 0012 08E0     		b	.L5
  78              	.L6:
 187:.\Generated_Source\PSoC5/cyfitter_cfg.c **** 		{
 188:.\Generated_Source\PSoC5/cyfitter_cfg.c **** 			CY_SET_XTND_REG8((void CYFAR *)(baseAddr + data_table[j].offset), data_table[j].value);
  79              		.loc 1 188 0
  80 0014 01EB4205 		add	r5, r1, r2, lsl #1
  81 0018 11F81240 		ldrb	r4, [r1, r2, lsl #1]	@ zero_extendqisi2
  82 001c 6D78     		ldrb	r5, [r5, #1]	@ zero_extendqisi2
  83 001e A555     		strb	r5, [r4, r6]
 189:.\Generated_Source\PSoC5/cyfitter_cfg.c **** 			j++;
  84              		.loc 1 189 0
  85 0020 0132     		adds	r2, r2, #1
  86              	.LVL7:
 190:.\Generated_Source\PSoC5/cyfitter_cfg.c **** 			count--;
  87              		.loc 1 190 0
  88 0022 013B     		subs	r3, r3, #1
  89              	.LVL8:
  90 0024 DBB2     		uxtb	r3, r3
  91              	.LVL9:
  92              	.L5:
 186:.\Generated_Source\PSoC5/cyfitter_cfg.c **** 		{
  93              		.loc 1 186 0
  94 0026 002B     		cmp	r3, #0
ARM GAS  C:\Users\YongY\AppData\Local\Temp\cchW9XSi.s 			page 6


  95 0028 F4D1     		bne	.L6
  96              	.LBE2:
 181:.\Generated_Source\PSoC5/cyfitter_cfg.c **** 	{
  97              		.loc 1 181 0 discriminator 2
  98 002a 0137     		adds	r7, r7, #1
  99              	.LVL10:
 100              	.L4:
 181:.\Generated_Source\PSoC5/cyfitter_cfg.c **** 	{
 101              		.loc 1 181 0 is_stmt 0 discriminator 1
 102 002c 142F     		cmp	r7, #20
 103 002e EBD9     		bls	.L7
 191:.\Generated_Source\PSoC5/cyfitter_cfg.c **** 		}
 192:.\Generated_Source\PSoC5/cyfitter_cfg.c **** 	}
 193:.\Generated_Source\PSoC5/cyfitter_cfg.c **** }
 104              		.loc 1 193 0 is_stmt 1
 105 0030 F0BC     		pop	{r4, r5, r6, r7}
 106              		.cfi_restore 7
 107              		.cfi_restore 6
 108              		.cfi_restore 5
 109              		.cfi_restore 4
 110              		.cfi_def_cfa_offset 0
 111              	.LVL11:
 112 0032 7047     		bx	lr
 113              		.cfi_endproc
 114              	.LFE4:
 115              		.size	cfg_write_bytes32, .-cfg_write_bytes32
 116              		.section	.text.AnalogSetDefault,"ax",%progbits
 117              		.align	2
 118              		.thumb
 119              		.thumb_func
 120              		.type	AnalogSetDefault, %function
 121              	AnalogSetDefault:
 122              	.LFB6:
 194:.\Generated_Source\PSoC5/cyfitter_cfg.c **** 
 195:.\Generated_Source\PSoC5/cyfitter_cfg.c **** /*******************************************************************************
 196:.\Generated_Source\PSoC5/cyfitter_cfg.c **** * Function Name: ClockSetup
 197:.\Generated_Source\PSoC5/cyfitter_cfg.c **** ********************************************************************************
 198:.\Generated_Source\PSoC5/cyfitter_cfg.c **** *
 199:.\Generated_Source\PSoC5/cyfitter_cfg.c **** * Summary:
 200:.\Generated_Source\PSoC5/cyfitter_cfg.c **** *  Performs the initialization of all of the clocks in the device based on the
 201:.\Generated_Source\PSoC5/cyfitter_cfg.c **** *  settings in the Clock tab of the DWR.  This includes enabling the requested
 202:.\Generated_Source\PSoC5/cyfitter_cfg.c **** *  clocks and setting the necessary dividers to produce the desired frequency. 
 203:.\Generated_Source\PSoC5/cyfitter_cfg.c **** *
 204:.\Generated_Source\PSoC5/cyfitter_cfg.c **** * Parameters:
 205:.\Generated_Source\PSoC5/cyfitter_cfg.c **** *  void
 206:.\Generated_Source\PSoC5/cyfitter_cfg.c **** *
 207:.\Generated_Source\PSoC5/cyfitter_cfg.c **** * Return:
 208:.\Generated_Source\PSoC5/cyfitter_cfg.c **** *  void
 209:.\Generated_Source\PSoC5/cyfitter_cfg.c **** *
 210:.\Generated_Source\PSoC5/cyfitter_cfg.c **** *******************************************************************************/
 211:.\Generated_Source\PSoC5/cyfitter_cfg.c **** static void ClockSetup(void);
 212:.\Generated_Source\PSoC5/cyfitter_cfg.c **** static void ClockSetup(void)
 213:.\Generated_Source\PSoC5/cyfitter_cfg.c **** {
 214:.\Generated_Source\PSoC5/cyfitter_cfg.c **** 	uint32 timeout;
 215:.\Generated_Source\PSoC5/cyfitter_cfg.c **** 	uint8 pllLock;
 216:.\Generated_Source\PSoC5/cyfitter_cfg.c **** 
 217:.\Generated_Source\PSoC5/cyfitter_cfg.c **** 
ARM GAS  C:\Users\YongY\AppData\Local\Temp\cchW9XSi.s 			page 7


 218:.\Generated_Source\PSoC5/cyfitter_cfg.c **** 	/* Configure Digital Clocks based on settings from Clock DWR */
 219:.\Generated_Source\PSoC5/cyfitter_cfg.c **** 	CY_SET_XTND_REG16((void CYFAR *)(CYREG_CLKDIST_DCFG0_CFG0), 0x0000u);
 220:.\Generated_Source\PSoC5/cyfitter_cfg.c **** 	CY_SET_XTND_REG8((void CYFAR *)(CYREG_CLKDIST_DCFG0_CFG0 + 0x2u), 0x50u);
 221:.\Generated_Source\PSoC5/cyfitter_cfg.c **** 	CY_SET_XTND_REG16((void CYFAR *)(CYREG_CLKDIST_DCFG1_CFG0), 0x000Bu);
 222:.\Generated_Source\PSoC5/cyfitter_cfg.c **** 	CY_SET_XTND_REG8((void CYFAR *)(CYREG_CLKDIST_DCFG1_CFG0 + 0x2u), 0x18u);
 223:.\Generated_Source\PSoC5/cyfitter_cfg.c **** 
 224:.\Generated_Source\PSoC5/cyfitter_cfg.c **** 	/* Configure Analog Clocks based on settings from Clock DWR */
 225:.\Generated_Source\PSoC5/cyfitter_cfg.c **** 	CYCONFIGCPY((void CYFAR *)(CYREG_CLKDIST_ACFG0_CFG0), (const void CYFAR *)(BS_CYDEV_CLKDIST_ACFG0_
 226:.\Generated_Source\PSoC5/cyfitter_cfg.c **** 
 227:.\Generated_Source\PSoC5/cyfitter_cfg.c **** 	/* Configure ILO based on settings from Clock DWR */
 228:.\Generated_Source\PSoC5/cyfitter_cfg.c **** 	CY_SET_XTND_REG8((void CYFAR *)(CYREG_SLOWCLK_ILO_CR0), 0x02u);
 229:.\Generated_Source\PSoC5/cyfitter_cfg.c **** 	CY_SET_XTND_REG8((void CYFAR *)(CYREG_CLKDIST_CR), 0x08u);
 230:.\Generated_Source\PSoC5/cyfitter_cfg.c **** 
 231:.\Generated_Source\PSoC5/cyfitter_cfg.c **** 	/* Configure IMO based on settings from Clock DWR */
 232:.\Generated_Source\PSoC5/cyfitter_cfg.c **** 	CY_SET_XTND_REG8((void CYFAR *)(CYREG_FASTCLK_IMO_CR), 0x03u);
 233:.\Generated_Source\PSoC5/cyfitter_cfg.c **** 	CY_SET_XTND_REG8((void CYFAR *)(CYREG_IMO_TR1), (CY_GET_XTND_REG8((void CYFAR *)CYREG_FLSHID_CUST_
 234:.\Generated_Source\PSoC5/cyfitter_cfg.c **** 
 235:.\Generated_Source\PSoC5/cyfitter_cfg.c **** 	/* Configure PLL based on settings from Clock DWR */
 236:.\Generated_Source\PSoC5/cyfitter_cfg.c **** 	CY_SET_XTND_REG16((void CYFAR *)(CYREG_FASTCLK_PLL_P), 0x0008u);
 237:.\Generated_Source\PSoC5/cyfitter_cfg.c **** 	CY_SET_XTND_REG16((void CYFAR *)(CYREG_FASTCLK_PLL_CFG0), 0x1251u);
 238:.\Generated_Source\PSoC5/cyfitter_cfg.c **** 	/* Wait up to 250us for the PLL to lock */
 239:.\Generated_Source\PSoC5/cyfitter_cfg.c **** 	pllLock = 0u;
 240:.\Generated_Source\PSoC5/cyfitter_cfg.c **** 	for (timeout = 250u / 10u; (timeout > 0u) && (pllLock != 0x03u); timeout--)
 241:.\Generated_Source\PSoC5/cyfitter_cfg.c **** 	{ 
 242:.\Generated_Source\PSoC5/cyfitter_cfg.c **** 		pllLock = 0x03u & ((uint8)((uint8)pllLock << 1) | ((CY_GET_XTND_REG8((void CYFAR *)CYREG_FASTCLK_
 243:.\Generated_Source\PSoC5/cyfitter_cfg.c **** 		CyDelayCycles(10u * 48u); /* Delay 10us based on 48MHz clock */
 244:.\Generated_Source\PSoC5/cyfitter_cfg.c **** 	}
 245:.\Generated_Source\PSoC5/cyfitter_cfg.c **** 	/* If we ran out of time the PLL didn't lock so go to the error function */
 246:.\Generated_Source\PSoC5/cyfitter_cfg.c **** 	if (timeout == 0u)
 247:.\Generated_Source\PSoC5/cyfitter_cfg.c **** 	{
 248:.\Generated_Source\PSoC5/cyfitter_cfg.c **** 		CyClockStartupError(CYCLOCKSTART_PLL_ERROR);
 249:.\Generated_Source\PSoC5/cyfitter_cfg.c **** 	}
 250:.\Generated_Source\PSoC5/cyfitter_cfg.c **** 
 251:.\Generated_Source\PSoC5/cyfitter_cfg.c **** 	/* Configure Bus/Master Clock based on settings from Clock DWR */
 252:.\Generated_Source\PSoC5/cyfitter_cfg.c **** 	CY_SET_XTND_REG16((void CYFAR *)(CYREG_CLKDIST_MSTR0), 0x0100u);
 253:.\Generated_Source\PSoC5/cyfitter_cfg.c **** 	CY_SET_XTND_REG8((void CYFAR *)(CYREG_CLKDIST_MSTR0), 0x07u);
 254:.\Generated_Source\PSoC5/cyfitter_cfg.c **** 	CY_SET_XTND_REG8((void CYFAR *)(CYREG_CLKDIST_BCFG0), 0x00u);
 255:.\Generated_Source\PSoC5/cyfitter_cfg.c **** 	CY_SET_XTND_REG8((void CYFAR *)(CYREG_CLKDIST_BCFG2), 0x48u);
 256:.\Generated_Source\PSoC5/cyfitter_cfg.c **** 	CY_SET_XTND_REG8((void CYFAR *)(CYREG_CLKDIST_MSTR0), 0x00u);
 257:.\Generated_Source\PSoC5/cyfitter_cfg.c **** 	CY_SET_XTND_REG8((void CYFAR *)(CYREG_CLKDIST_LD), 0x02u);
 258:.\Generated_Source\PSoC5/cyfitter_cfg.c **** 	CY_SET_XTND_REG8((void CYFAR *)(CYREG_CLKDIST_DLY1), 0x04u);
 259:.\Generated_Source\PSoC5/cyfitter_cfg.c **** 
 260:.\Generated_Source\PSoC5/cyfitter_cfg.c **** 	CY_SET_XTND_REG8((void CYFAR *)(CYREG_PM_ACT_CFG2), ((CY_GET_XTND_REG8((void CYFAR *)CYREG_PM_ACT_
 261:.\Generated_Source\PSoC5/cyfitter_cfg.c **** 	CY_SET_XTND_REG8((void CYFAR *)(CYREG_PM_ACT_CFG1), ((CY_GET_XTND_REG8((void CYFAR *)CYREG_PM_ACT_
 262:.\Generated_Source\PSoC5/cyfitter_cfg.c **** 	CY_SET_XTND_REG8((void CYFAR *)(CYREG_PM_ACT_CFG0), ((CY_GET_XTND_REG8((void CYFAR *)CYREG_PM_ACT_
 263:.\Generated_Source\PSoC5/cyfitter_cfg.c **** }
 264:.\Generated_Source\PSoC5/cyfitter_cfg.c **** 
 265:.\Generated_Source\PSoC5/cyfitter_cfg.c **** 
 266:.\Generated_Source\PSoC5/cyfitter_cfg.c **** /* Analog API Functions */
 267:.\Generated_Source\PSoC5/cyfitter_cfg.c **** 
 268:.\Generated_Source\PSoC5/cyfitter_cfg.c **** 
 269:.\Generated_Source\PSoC5/cyfitter_cfg.c **** /*******************************************************************************
 270:.\Generated_Source\PSoC5/cyfitter_cfg.c **** * Function Name: AnalogSetDefault
 271:.\Generated_Source\PSoC5/cyfitter_cfg.c **** ********************************************************************************
 272:.\Generated_Source\PSoC5/cyfitter_cfg.c **** *
 273:.\Generated_Source\PSoC5/cyfitter_cfg.c **** * Summary:
 274:.\Generated_Source\PSoC5/cyfitter_cfg.c **** *  Sets up the analog portions of the chip to default values based on chip
ARM GAS  C:\Users\YongY\AppData\Local\Temp\cchW9XSi.s 			page 8


 275:.\Generated_Source\PSoC5/cyfitter_cfg.c **** *  configuration options from the project.
 276:.\Generated_Source\PSoC5/cyfitter_cfg.c **** *
 277:.\Generated_Source\PSoC5/cyfitter_cfg.c **** * Parameters:
 278:.\Generated_Source\PSoC5/cyfitter_cfg.c **** *  void
 279:.\Generated_Source\PSoC5/cyfitter_cfg.c **** *
 280:.\Generated_Source\PSoC5/cyfitter_cfg.c **** * Return:
 281:.\Generated_Source\PSoC5/cyfitter_cfg.c **** *  void
 282:.\Generated_Source\PSoC5/cyfitter_cfg.c **** *
 283:.\Generated_Source\PSoC5/cyfitter_cfg.c **** *******************************************************************************/
 284:.\Generated_Source\PSoC5/cyfitter_cfg.c **** static void AnalogSetDefault(void);
 285:.\Generated_Source\PSoC5/cyfitter_cfg.c **** static void AnalogSetDefault(void)
 286:.\Generated_Source\PSoC5/cyfitter_cfg.c **** {
 123              		.loc 1 286 0
 124              		.cfi_startproc
 125              		@ args = 0, pretend = 0, frame = 0
 126              		@ frame_needed = 0, uses_anonymous_args = 0
 127              		@ link register save eliminated.
 287:.\Generated_Source\PSoC5/cyfitter_cfg.c **** 	uint8 bg_xover_inl_trim = CY_GET_XTND_REG8((void CYFAR *)(CYREG_FLSHID_MFG_CFG_BG_XOVER_INL_TRIM +
 128              		.loc 1 287 0
 129 0000 0A4B     		ldr	r3, .L10
 130 0002 1B78     		ldrb	r3, [r3]	@ zero_extendqisi2
 131 0004 DBB2     		uxtb	r3, r3
 132              	.LVL12:
 288:.\Generated_Source\PSoC5/cyfitter_cfg.c **** 	CY_SET_XTND_REG8((void CYFAR *)(CYREG_BG_DFT0), (bg_xover_inl_trim & 0x07u));
 133              		.loc 1 288 0
 134 0006 03F00701 		and	r1, r3, #7
 135 000a 094A     		ldr	r2, .L10+4
 136 000c 1170     		strb	r1, [r2]
 289:.\Generated_Source\PSoC5/cyfitter_cfg.c **** 	CY_SET_XTND_REG8((void CYFAR *)(CYREG_BG_DFT1), ((bg_xover_inl_trim >> 4) & 0x0Fu));
 137              		.loc 1 289 0
 138 000e 1B09     		lsrs	r3, r3, #4
 139              	.LVL13:
 140 0010 0132     		adds	r2, r2, #1
 141 0012 1370     		strb	r3, [r2]
 290:.\Generated_Source\PSoC5/cyfitter_cfg.c **** 	CY_SET_XTND_REG8((void CYFAR *)CYREG_PRT0_AG, 0x02u);
 142              		.loc 1 290 0
 143 0014 0222     		movs	r2, #2
 144 0016 074B     		ldr	r3, .L10+8
 145 0018 1A70     		strb	r2, [r3]
 291:.\Generated_Source\PSoC5/cyfitter_cfg.c **** 	CY_SET_XTND_REG8((void CYFAR *)CYREG_DAC2_SW0, 0x20u);
 146              		.loc 1 291 0
 147 001a 2022     		movs	r2, #32
 148 001c 03F68313 		addw	r3, r3, #2435
 149 0020 1A70     		strb	r2, [r3]
 292:.\Generated_Source\PSoC5/cyfitter_cfg.c **** 	CY_SET_XTND_REG8((void CYFAR *)CYREG_PUMP_CR0, 0x44u);
 150              		.loc 1 292 0
 151 0022 4422     		movs	r2, #68
 152 0024 A3F21A23 		subw	r3, r3, #538
 153 0028 1A70     		strb	r2, [r3]
 154 002a 7047     		bx	lr
 155              	.L11:
 156              		.align	2
 157              	.L10:
 158 002c CF010049 		.word	1224737231
 159 0030 6E580040 		.word	1073764462
 160 0034 0D510040 		.word	1073762573
 161              		.cfi_endproc
ARM GAS  C:\Users\YongY\AppData\Local\Temp\cchW9XSi.s 			page 9


 162              	.LFE6:
 163              		.size	AnalogSetDefault, .-AnalogSetDefault
 164              		.section	.text.CYMEMZERO,"ax",%progbits
 165              		.align	2
 166              		.thumb
 167              		.thumb_func
 168              		.type	CYMEMZERO, %function
 169              	CYMEMZERO:
 170              	.LFB0:
  63:.\Generated_Source\PSoC5/cyfitter_cfg.c **** 	(void)memset(s, 0, n);
 171              		.loc 1 63 0
 172              		.cfi_startproc
 173              		@ args = 0, pretend = 0, frame = 0
 174              		@ frame_needed = 0, uses_anonymous_args = 0
 175              	.LVL14:
 176 0000 08B5     		push	{r3, lr}
 177              		.cfi_def_cfa_offset 8
 178              		.cfi_offset 3, -8
 179              		.cfi_offset 14, -4
 180 0002 0A46     		mov	r2, r1
  64:.\Generated_Source\PSoC5/cyfitter_cfg.c **** }
 181              		.loc 1 64 0
 182 0004 0021     		movs	r1, #0
 183              	.LVL15:
 184 0006 FFF7FEFF 		bl	memset
 185              	.LVL16:
 186 000a 08BD     		pop	{r3, pc}
 187              		.cfi_endproc
 188              	.LFE0:
 189              		.size	CYMEMZERO, .-CYMEMZERO
 190              		.section	.text.CYCONFIGCPY,"ax",%progbits
 191              		.align	2
 192              		.thumb
 193              		.thumb_func
 194              		.type	CYCONFIGCPY, %function
 195              	CYCONFIGCPY:
 196              	.LFB1:
  70:.\Generated_Source\PSoC5/cyfitter_cfg.c **** 	(void)memcpy(dest, src, n);
 197              		.loc 1 70 0
 198              		.cfi_startproc
 199              		@ args = 0, pretend = 0, frame = 0
 200              		@ frame_needed = 0, uses_anonymous_args = 0
 201              	.LVL17:
 202 0000 08B5     		push	{r3, lr}
 203              		.cfi_def_cfa_offset 8
 204              		.cfi_offset 3, -8
 205              		.cfi_offset 14, -4
  71:.\Generated_Source\PSoC5/cyfitter_cfg.c **** }
 206              		.loc 1 71 0
 207 0002 FFF7FEFF 		bl	memcpy
 208              	.LVL18:
 209 0006 08BD     		pop	{r3, pc}
 210              		.cfi_endproc
 211              	.LFE1:
 212              		.size	CYCONFIGCPY, .-CYCONFIGCPY
 213              		.section	.text.ClockSetup,"ax",%progbits
 214              		.align	2
ARM GAS  C:\Users\YongY\AppData\Local\Temp\cchW9XSi.s 			page 10


 215              		.thumb
 216              		.thumb_func
 217              		.type	ClockSetup, %function
 218              	ClockSetup:
 219              	.LFB5:
 213:.\Generated_Source\PSoC5/cyfitter_cfg.c **** 	uint32 timeout;
 220              		.loc 1 213 0
 221              		.cfi_startproc
 222              		@ args = 0, pretend = 0, frame = 0
 223              		@ frame_needed = 0, uses_anonymous_args = 0
 224 0000 38B5     		push	{r3, r4, r5, lr}
 225              		.cfi_def_cfa_offset 16
 226              		.cfi_offset 3, -16
 227              		.cfi_offset 4, -12
 228              		.cfi_offset 5, -8
 229              		.cfi_offset 14, -4
 219:.\Generated_Source\PSoC5/cyfitter_cfg.c **** 	CY_SET_XTND_REG8((void CYFAR *)(CYREG_CLKDIST_DCFG0_CFG0 + 0x2u), 0x50u);
 230              		.loc 1 219 0
 231 0002 0024     		movs	r4, #0
 232 0004 2F4B     		ldr	r3, .L22
 233 0006 1C80     		strh	r4, [r3]	@ movhi
 220:.\Generated_Source\PSoC5/cyfitter_cfg.c **** 	CY_SET_XTND_REG16((void CYFAR *)(CYREG_CLKDIST_DCFG1_CFG0), 0x000Bu);
 234              		.loc 1 220 0
 235 0008 5022     		movs	r2, #80
 236 000a 0233     		adds	r3, r3, #2
 237 000c 1A70     		strb	r2, [r3]
 221:.\Generated_Source\PSoC5/cyfitter_cfg.c **** 	CY_SET_XTND_REG8((void CYFAR *)(CYREG_CLKDIST_DCFG1_CFG0 + 0x2u), 0x18u);
 238              		.loc 1 221 0
 239 000e 0B22     		movs	r2, #11
 240 0010 0233     		adds	r3, r3, #2
 241 0012 1A80     		strh	r2, [r3]	@ movhi
 222:.\Generated_Source\PSoC5/cyfitter_cfg.c **** 
 242              		.loc 1 222 0
 243 0014 1822     		movs	r2, #24
 244 0016 0233     		adds	r3, r3, #2
 245 0018 1A70     		strb	r2, [r3]
 225:.\Generated_Source\PSoC5/cyfitter_cfg.c **** 
 246              		.loc 1 225 0
 247 001a 2B48     		ldr	r0, .L22+4
 248 001c 2B49     		ldr	r1, .L22+8
 249 001e 0422     		movs	r2, #4
 250 0020 FFF7FEFF 		bl	CYCONFIGCPY
 251              	.LVL19:
 228:.\Generated_Source\PSoC5/cyfitter_cfg.c **** 	CY_SET_XTND_REG8((void CYFAR *)(CYREG_CLKDIST_CR), 0x08u);
 252              		.loc 1 228 0
 253 0024 0222     		movs	r2, #2
 254 0026 2A4B     		ldr	r3, .L22+12
 255 0028 1A70     		strb	r2, [r3]
 229:.\Generated_Source\PSoC5/cyfitter_cfg.c **** 
 256              		.loc 1 229 0
 257 002a 0822     		movs	r2, #8
 258 002c 4FF04023 		mov	r3, #1073758208
 259 0030 1A70     		strb	r2, [r3]
 232:.\Generated_Source\PSoC5/cyfitter_cfg.c **** 	CY_SET_XTND_REG8((void CYFAR *)(CYREG_IMO_TR1), (CY_GET_XTND_REG8((void CYFAR *)CYREG_FLSHID_CUST_
 260              		.loc 1 232 0
 261 0032 0321     		movs	r1, #3
 262 0034 03F50073 		add	r3, r3, #512
ARM GAS  C:\Users\YongY\AppData\Local\Temp\cchW9XSi.s 			page 11


 263 0038 1970     		strb	r1, [r3]
 233:.\Generated_Source\PSoC5/cyfitter_cfg.c **** 
 264              		.loc 1 233 0
 265 003a 264B     		ldr	r3, .L22+16
 266 003c 1B78     		ldrb	r3, [r3]	@ zero_extendqisi2
 267 003e DBB2     		uxtb	r3, r3
 268 0040 2549     		ldr	r1, .L22+20
 269 0042 0B70     		strb	r3, [r1]
 236:.\Generated_Source\PSoC5/cyfitter_cfg.c **** 	CY_SET_XTND_REG16((void CYFAR *)(CYREG_FASTCLK_PLL_CFG0), 0x1251u);
 270              		.loc 1 236 0
 271 0044 254B     		ldr	r3, .L22+24
 272 0046 1A80     		strh	r2, [r3]	@ movhi
 237:.\Generated_Source\PSoC5/cyfitter_cfg.c **** 	/* Wait up to 250us for the PLL to lock */
 273              		.loc 1 237 0
 274 0048 41F25122 		movw	r2, #4689
 275 004c 023B     		subs	r3, r3, #2
 276 004e 1A80     		strh	r2, [r3]	@ movhi
 277              	.LVL20:
 240:.\Generated_Source\PSoC5/cyfitter_cfg.c **** 	{ 
 278              		.loc 1 240 0
 279 0050 1925     		movs	r5, #25
 280 0052 0CE0     		b	.L17
 281              	.LVL21:
 282              	.L19:
 242:.\Generated_Source\PSoC5/cyfitter_cfg.c **** 		CyDelayCycles(10u * 48u); /* Delay 10us based on 48MHz clock */
 283              		.loc 1 242 0 discriminator 4
 284 0054 224B     		ldr	r3, .L22+28
 285 0056 1B78     		ldrb	r3, [r3]	@ zero_extendqisi2
 286 0058 03F00103 		and	r3, r3, #1
 287 005c 43EA4404 		orr	r4, r3, r4, lsl #1
 288              	.LVL22:
 289 0060 04F00304 		and	r4, r4, #3
 290              	.LVL23:
 243:.\Generated_Source\PSoC5/cyfitter_cfg.c **** 	}
 291              		.loc 1 243 0 discriminator 4
 292 0064 4FF4F070 		mov	r0, #480
 293 0068 FFF7FEFF 		bl	CyDelayCycles
 294              	.LVL24:
 240:.\Generated_Source\PSoC5/cyfitter_cfg.c **** 	{ 
 295              		.loc 1 240 0 discriminator 4
 296 006c 013D     		subs	r5, r5, #1
 297              	.LVL25:
 298              	.L17:
 240:.\Generated_Source\PSoC5/cyfitter_cfg.c **** 	{ 
 299              		.loc 1 240 0 is_stmt 0 discriminator 1
 300 006e 0DB1     		cbz	r5, .L18
 240:.\Generated_Source\PSoC5/cyfitter_cfg.c **** 	{ 
 301              		.loc 1 240 0 discriminator 3
 302 0070 032C     		cmp	r4, #3
 303 0072 EFD1     		bne	.L19
 304              	.L18:
 246:.\Generated_Source\PSoC5/cyfitter_cfg.c **** 	{
 305              		.loc 1 246 0 is_stmt 1
 306 0074 15B9     		cbnz	r5, .L20
 248:.\Generated_Source\PSoC5/cyfitter_cfg.c **** 	}
 307              		.loc 1 248 0
 308 0076 0320     		movs	r0, #3
ARM GAS  C:\Users\YongY\AppData\Local\Temp\cchW9XSi.s 			page 12


 309 0078 FFF7FEFF 		bl	CyClockStartupError
 310              	.LVL26:
 311              	.L20:
 252:.\Generated_Source\PSoC5/cyfitter_cfg.c **** 	CY_SET_XTND_REG8((void CYFAR *)(CYREG_CLKDIST_MSTR0), 0x07u);
 312              		.loc 1 252 0
 313 007c 194B     		ldr	r3, .L22+32
 314 007e 4FF48072 		mov	r2, #256
 315 0082 1A80     		strh	r2, [r3]	@ movhi
 253:.\Generated_Source\PSoC5/cyfitter_cfg.c **** 	CY_SET_XTND_REG8((void CYFAR *)(CYREG_CLKDIST_BCFG0), 0x00u);
 316              		.loc 1 253 0
 317 0084 0722     		movs	r2, #7
 318 0086 1A70     		strb	r2, [r3]
 254:.\Generated_Source\PSoC5/cyfitter_cfg.c **** 	CY_SET_XTND_REG8((void CYFAR *)(CYREG_CLKDIST_BCFG2), 0x48u);
 319              		.loc 1 254 0
 320 0088 0022     		movs	r2, #0
 321 008a 1749     		ldr	r1, .L22+36
 322 008c 0A70     		strb	r2, [r1]
 255:.\Generated_Source\PSoC5/cyfitter_cfg.c **** 	CY_SET_XTND_REG8((void CYFAR *)(CYREG_CLKDIST_MSTR0), 0x00u);
 323              		.loc 1 255 0
 324 008e 4820     		movs	r0, #72
 325 0090 0231     		adds	r1, r1, #2
 326 0092 0870     		strb	r0, [r1]
 256:.\Generated_Source\PSoC5/cyfitter_cfg.c **** 	CY_SET_XTND_REG8((void CYFAR *)(CYREG_CLKDIST_LD), 0x02u);
 327              		.loc 1 256 0
 328 0094 1A70     		strb	r2, [r3]
 257:.\Generated_Source\PSoC5/cyfitter_cfg.c **** 	CY_SET_XTND_REG8((void CYFAR *)(CYREG_CLKDIST_DLY1), 0x04u);
 329              		.loc 1 257 0
 330 0096 0222     		movs	r2, #2
 331 0098 033B     		subs	r3, r3, #3
 332 009a 1A70     		strb	r2, [r3]
 258:.\Generated_Source\PSoC5/cyfitter_cfg.c **** 
 333              		.loc 1 258 0
 334 009c 0422     		movs	r2, #4
 335 009e 0A33     		adds	r3, r3, #10
 336 00a0 1A70     		strb	r2, [r3]
 260:.\Generated_Source\PSoC5/cyfitter_cfg.c **** 	CY_SET_XTND_REG8((void CYFAR *)(CYREG_PM_ACT_CFG1), ((CY_GET_XTND_REG8((void CYFAR *)CYREG_PM_ACT_
 337              		.loc 1 260 0
 338 00a2 124A     		ldr	r2, .L22+40
 339 00a4 1378     		ldrb	r3, [r2]	@ zero_extendqisi2
 340 00a6 43F00303 		orr	r3, r3, #3
 341 00aa 1370     		strb	r3, [r2]
 261:.\Generated_Source\PSoC5/cyfitter_cfg.c **** 	CY_SET_XTND_REG8((void CYFAR *)(CYREG_PM_ACT_CFG0), ((CY_GET_XTND_REG8((void CYFAR *)CYREG_PM_ACT_
 342              		.loc 1 261 0
 343 00ac 013A     		subs	r2, r2, #1
 344 00ae 1378     		ldrb	r3, [r2]	@ zero_extendqisi2
 345 00b0 43F00103 		orr	r3, r3, #1
 346 00b4 1370     		strb	r3, [r2]
 262:.\Generated_Source\PSoC5/cyfitter_cfg.c **** }
 347              		.loc 1 262 0
 348 00b6 013A     		subs	r2, r2, #1
 349 00b8 1378     		ldrb	r3, [r2]	@ zero_extendqisi2
 350 00ba 43F08003 		orr	r3, r3, #128
 351 00be 1370     		strb	r3, [r2]
 352 00c0 38BD     		pop	{r3, r4, r5, pc}
 353              	.LVL27:
 354              	.L23:
 355 00c2 00BF     		.align	2
ARM GAS  C:\Users\YongY\AppData\Local\Temp\cchW9XSi.s 			page 13


 356              	.L22:
 357 00c4 80400040 		.word	1073758336
 358 00c8 00410040 		.word	1073758464
 359 00cc 0C030048 		.word	1207960332
 360 00d0 00430040 		.word	1073758976
 361 00d4 08010049 		.word	1224737032
 362 00d8 A1460040 		.word	1073759905
 363 00dc 22420040 		.word	1073758754
 364 00e0 25420040 		.word	1073758757
 365 00e4 04400040 		.word	1073758212
 366 00e8 06400040 		.word	1073758214
 367 00ec A2430040 		.word	1073759138
 368              		.cfi_endproc
 369              	.LFE5:
 370              		.size	ClockSetup, .-ClockSetup
 371              		.section	.text.SetAnalogRoutingPumps,"ax",%progbits
 372              		.align	2
 373              		.global	SetAnalogRoutingPumps
 374              		.thumb
 375              		.thumb_func
 376              		.type	SetAnalogRoutingPumps, %function
 377              	SetAnalogRoutingPumps:
 378              	.LFB7:
 293:.\Generated_Source\PSoC5/cyfitter_cfg.c **** }
 294:.\Generated_Source\PSoC5/cyfitter_cfg.c **** 
 295:.\Generated_Source\PSoC5/cyfitter_cfg.c **** 
 296:.\Generated_Source\PSoC5/cyfitter_cfg.c **** /*******************************************************************************
 297:.\Generated_Source\PSoC5/cyfitter_cfg.c **** * Function Name: SetAnalogRoutingPumps
 298:.\Generated_Source\PSoC5/cyfitter_cfg.c **** ********************************************************************************
 299:.\Generated_Source\PSoC5/cyfitter_cfg.c **** *
 300:.\Generated_Source\PSoC5/cyfitter_cfg.c **** * Summary:
 301:.\Generated_Source\PSoC5/cyfitter_cfg.c **** * Enables or disables the analog pumps feeding analog routing switches.
 302:.\Generated_Source\PSoC5/cyfitter_cfg.c **** * Intended to be called at startup, based on the Vdda system configuration;
 303:.\Generated_Source\PSoC5/cyfitter_cfg.c **** * may be called during operation when the user informs us that the Vdda voltage
 304:.\Generated_Source\PSoC5/cyfitter_cfg.c **** * crossed the pump threshold.
 305:.\Generated_Source\PSoC5/cyfitter_cfg.c **** *
 306:.\Generated_Source\PSoC5/cyfitter_cfg.c **** * Parameters:
 307:.\Generated_Source\PSoC5/cyfitter_cfg.c **** *  enabled - 1 to enable the pumps, 0 to disable the pumps
 308:.\Generated_Source\PSoC5/cyfitter_cfg.c **** *
 309:.\Generated_Source\PSoC5/cyfitter_cfg.c **** * Return:
 310:.\Generated_Source\PSoC5/cyfitter_cfg.c **** *  void
 311:.\Generated_Source\PSoC5/cyfitter_cfg.c **** *
 312:.\Generated_Source\PSoC5/cyfitter_cfg.c **** *******************************************************************************/
 313:.\Generated_Source\PSoC5/cyfitter_cfg.c **** void SetAnalogRoutingPumps(uint8 enabled)
 314:.\Generated_Source\PSoC5/cyfitter_cfg.c **** {
 379              		.loc 1 314 0
 380              		.cfi_startproc
 381              		@ args = 0, pretend = 0, frame = 0
 382              		@ frame_needed = 0, uses_anonymous_args = 0
 383              		@ link register save eliminated.
 384              	.LVL28:
 315:.\Generated_Source\PSoC5/cyfitter_cfg.c **** 	uint8 regValue = CY_GET_XTND_REG8((void CYFAR *)CYREG_PUMP_CR0);
 385              		.loc 1 315 0
 386 0000 054B     		ldr	r3, .L27
 387 0002 1B78     		ldrb	r3, [r3]	@ zero_extendqisi2
 388 0004 DBB2     		uxtb	r3, r3
 389              	.LVL29:
ARM GAS  C:\Users\YongY\AppData\Local\Temp\cchW9XSi.s 			page 14


 316:.\Generated_Source\PSoC5/cyfitter_cfg.c **** 	if (enabled != 0u)
 390              		.loc 1 316 0
 391 0006 10B1     		cbz	r0, .L25
 317:.\Generated_Source\PSoC5/cyfitter_cfg.c **** 	{
 318:.\Generated_Source\PSoC5/cyfitter_cfg.c **** 		regValue |= 0x22u;
 392              		.loc 1 318 0
 393 0008 43F02203 		orr	r3, r3, #34
 394              	.LVL30:
 395 000c 01E0     		b	.L26
 396              	.L25:
 319:.\Generated_Source\PSoC5/cyfitter_cfg.c **** 	}
 320:.\Generated_Source\PSoC5/cyfitter_cfg.c **** 	else
 321:.\Generated_Source\PSoC5/cyfitter_cfg.c **** 	{
 322:.\Generated_Source\PSoC5/cyfitter_cfg.c **** 		regValue &= (uint8)~0x22u;
 397              		.loc 1 322 0
 398 000e 03F0DD03 		and	r3, r3, #221
 399              	.LVL31:
 400              	.L26:
 323:.\Generated_Source\PSoC5/cyfitter_cfg.c **** 	}
 324:.\Generated_Source\PSoC5/cyfitter_cfg.c **** 	CY_SET_XTND_REG8((void CYFAR *)CYREG_PUMP_CR0, regValue);
 401              		.loc 1 324 0
 402 0012 014A     		ldr	r2, .L27
 403 0014 1370     		strb	r3, [r2]
 404 0016 7047     		bx	lr
 405              	.L28:
 406              		.align	2
 407              	.L27:
 408 0018 76580040 		.word	1073764470
 409              		.cfi_endproc
 410              	.LFE7:
 411              		.size	SetAnalogRoutingPumps, .-SetAnalogRoutingPumps
 412              		.section	.text.AMux_1_Set,"ax",%progbits
 413              		.align	2
 414              		.global	AMux_1_Set
 415              		.thumb
 416              		.thumb_func
 417              		.type	AMux_1_Set, %function
 418              	AMux_1_Set:
 419              	.LFB8:
 325:.\Generated_Source\PSoC5/cyfitter_cfg.c **** }
 326:.\Generated_Source\PSoC5/cyfitter_cfg.c **** 
 327:.\Generated_Source\PSoC5/cyfitter_cfg.c **** #define CY_AMUX_UNUSED CYREG_BOOST_SR
 328:.\Generated_Source\PSoC5/cyfitter_cfg.c **** /* This is an implementation detail of the AMux. Code that depends on it may be
 329:.\Generated_Source\PSoC5/cyfitter_cfg.c ****    incompatible with other versions of PSoC Creator. */
 330:.\Generated_Source\PSoC5/cyfitter_cfg.c **** uint8 CYXDATA * const CYCODE AMux_1__addrTable[6] = {
 331:.\Generated_Source\PSoC5/cyfitter_cfg.c **** 	(uint8 CYXDATA *)CYREG_PRT0_AG, (uint8 CYXDATA *)CYREG_DSM0_SW0, 
 332:.\Generated_Source\PSoC5/cyfitter_cfg.c **** 	(uint8 CYXDATA *)CYREG_PRT0_AG, (uint8 CYXDATA *)CYREG_DSM0_SW0, 
 333:.\Generated_Source\PSoC5/cyfitter_cfg.c **** 	(uint8 CYXDATA *)CYREG_PRT0_AG, (uint8 CYXDATA *)CYREG_DSM0_SW0, 
 334:.\Generated_Source\PSoC5/cyfitter_cfg.c **** };
 335:.\Generated_Source\PSoC5/cyfitter_cfg.c **** 
 336:.\Generated_Source\PSoC5/cyfitter_cfg.c **** /* This is an implementation detail of the AMux. Code that depends on it may be
 337:.\Generated_Source\PSoC5/cyfitter_cfg.c ****    incompatible with other versions of PSoC Creator. */
 338:.\Generated_Source\PSoC5/cyfitter_cfg.c **** const uint8 CYCODE AMux_1__maskTable[6] = {
 339:.\Generated_Source\PSoC5/cyfitter_cfg.c **** 	0x01u, 0x10u, 
 340:.\Generated_Source\PSoC5/cyfitter_cfg.c **** 	0x04u, 0x40u, 
 341:.\Generated_Source\PSoC5/cyfitter_cfg.c **** 	0x08u, 0x80u, 
 342:.\Generated_Source\PSoC5/cyfitter_cfg.c **** };
ARM GAS  C:\Users\YongY\AppData\Local\Temp\cchW9XSi.s 			page 15


 343:.\Generated_Source\PSoC5/cyfitter_cfg.c **** 
 344:.\Generated_Source\PSoC5/cyfitter_cfg.c **** /*******************************************************************************
 345:.\Generated_Source\PSoC5/cyfitter_cfg.c **** * Function Name: AMux_1_Set
 346:.\Generated_Source\PSoC5/cyfitter_cfg.c **** ********************************************************************************
 347:.\Generated_Source\PSoC5/cyfitter_cfg.c **** * Summary:
 348:.\Generated_Source\PSoC5/cyfitter_cfg.c **** *  This function is used to set a particular channel as active on the AMux.
 349:.\Generated_Source\PSoC5/cyfitter_cfg.c **** *
 350:.\Generated_Source\PSoC5/cyfitter_cfg.c **** * Parameters:  
 351:.\Generated_Source\PSoC5/cyfitter_cfg.c **** *   channel - The mux channel input to set as active
 352:.\Generated_Source\PSoC5/cyfitter_cfg.c **** *
 353:.\Generated_Source\PSoC5/cyfitter_cfg.c **** * Return:
 354:.\Generated_Source\PSoC5/cyfitter_cfg.c **** *   void
 355:.\Generated_Source\PSoC5/cyfitter_cfg.c **** *
 356:.\Generated_Source\PSoC5/cyfitter_cfg.c **** *******************************************************************************/
 357:.\Generated_Source\PSoC5/cyfitter_cfg.c **** void AMux_1_Set(uint8 channel)
 358:.\Generated_Source\PSoC5/cyfitter_cfg.c **** {
 420              		.loc 1 358 0
 421              		.cfi_startproc
 422              		@ args = 0, pretend = 0, frame = 0
 423              		@ frame_needed = 0, uses_anonymous_args = 0
 424              		@ link register save eliminated.
 359:.\Generated_Source\PSoC5/cyfitter_cfg.c **** 	if (channel < 3)
 425              		.loc 1 359 0
 426 0000 0228     		cmp	r0, #2
 427 0002 15D8     		bhi	.L33
 358:.\Generated_Source\PSoC5/cyfitter_cfg.c **** 	if (channel < 3)
 428              		.loc 1 358 0
 429 0004 10B4     		push	{r4}
 430              		.cfi_def_cfa_offset 4
 431              		.cfi_offset 4, -4
 360:.\Generated_Source\PSoC5/cyfitter_cfg.c **** 	{
 361:.\Generated_Source\PSoC5/cyfitter_cfg.c **** 		channel += channel;
 432              		.loc 1 361 0
 433 0006 4000     		lsls	r0, r0, #1
 434 0008 C0B2     		uxtb	r0, r0
 362:.\Generated_Source\PSoC5/cyfitter_cfg.c **** 		*AMux_1__addrTable[channel] |= AMux_1__maskTable[channel];
 435              		.loc 1 362 0
 436 000a 0A4B     		ldr	r3, .L34
 437 000c 53F82010 		ldr	r1, [r3, r0, lsl #2]
 438 0010 1A18     		adds	r2, r3, r0
 439 0012 147E     		ldrb	r4, [r2, #24]	@ zero_extendqisi2
 440 0014 0A78     		ldrb	r2, [r1]	@ zero_extendqisi2
 441 0016 2243     		orrs	r2, r2, r4
 442 0018 0A70     		strb	r2, [r1]
 363:.\Generated_Source\PSoC5/cyfitter_cfg.c **** 		channel++;
 443              		.loc 1 363 0
 444 001a 0130     		adds	r0, r0, #1
 445 001c C0B2     		uxtb	r0, r0
 364:.\Generated_Source\PSoC5/cyfitter_cfg.c **** 		*AMux_1__addrTable[channel] |= AMux_1__maskTable[channel];
 446              		.loc 1 364 0
 447 001e 53F82020 		ldr	r2, [r3, r0, lsl #2]
 448 0022 1844     		add	r0, r0, r3
 449 0024 017E     		ldrb	r1, [r0, #24]	@ zero_extendqisi2
 450 0026 1378     		ldrb	r3, [r2]	@ zero_extendqisi2
 451 0028 0B43     		orrs	r3, r3, r1
 452 002a 1370     		strb	r3, [r2]
 365:.\Generated_Source\PSoC5/cyfitter_cfg.c **** 	}
ARM GAS  C:\Users\YongY\AppData\Local\Temp\cchW9XSi.s 			page 16


 366:.\Generated_Source\PSoC5/cyfitter_cfg.c **** }
 453              		.loc 1 366 0
 454 002c 5DF8044B 		ldr	r4, [sp], #4
 455              		.cfi_restore 4
 456              		.cfi_def_cfa_offset 0
 457              	.L33:
 458 0030 7047     		bx	lr
 459              	.L35:
 460 0032 00BF     		.align	2
 461              	.L34:
 462 0034 00000000 		.word	.LANCHOR0
 463              		.cfi_endproc
 464              	.LFE8:
 465              		.size	AMux_1_Set, .-AMux_1_Set
 466              		.section	.text.AMux_1_Unset,"ax",%progbits
 467              		.align	2
 468              		.global	AMux_1_Unset
 469              		.thumb
 470              		.thumb_func
 471              		.type	AMux_1_Unset, %function
 472              	AMux_1_Unset:
 473              	.LFB9:
 367:.\Generated_Source\PSoC5/cyfitter_cfg.c **** 
 368:.\Generated_Source\PSoC5/cyfitter_cfg.c **** /*******************************************************************************
 369:.\Generated_Source\PSoC5/cyfitter_cfg.c **** * Function Name: AMux_1_Unset
 370:.\Generated_Source\PSoC5/cyfitter_cfg.c **** ********************************************************************************
 371:.\Generated_Source\PSoC5/cyfitter_cfg.c **** * Summary:
 372:.\Generated_Source\PSoC5/cyfitter_cfg.c **** *  This function is used to clear a particular channel from being active on the
 373:.\Generated_Source\PSoC5/cyfitter_cfg.c **** *  AMux.
 374:.\Generated_Source\PSoC5/cyfitter_cfg.c **** *
 375:.\Generated_Source\PSoC5/cyfitter_cfg.c **** * Parameters:  
 376:.\Generated_Source\PSoC5/cyfitter_cfg.c **** *   channel - The mux channel input to mark inactive
 377:.\Generated_Source\PSoC5/cyfitter_cfg.c **** *
 378:.\Generated_Source\PSoC5/cyfitter_cfg.c **** * Return:
 379:.\Generated_Source\PSoC5/cyfitter_cfg.c **** *   void
 380:.\Generated_Source\PSoC5/cyfitter_cfg.c **** *
 381:.\Generated_Source\PSoC5/cyfitter_cfg.c **** *******************************************************************************/
 382:.\Generated_Source\PSoC5/cyfitter_cfg.c **** void AMux_1_Unset(uint8 channel)
 383:.\Generated_Source\PSoC5/cyfitter_cfg.c **** {
 474              		.loc 1 383 0
 475              		.cfi_startproc
 476              		@ args = 0, pretend = 0, frame = 0
 477              		@ frame_needed = 0, uses_anonymous_args = 0
 478              		@ link register save eliminated.
 384:.\Generated_Source\PSoC5/cyfitter_cfg.c **** 	if (channel < 3)
 479              		.loc 1 384 0
 480 0000 0228     		cmp	r0, #2
 481 0002 17D8     		bhi	.L40
 383:.\Generated_Source\PSoC5/cyfitter_cfg.c **** 	if (channel < 3)
 482              		.loc 1 383 0
 483 0004 10B4     		push	{r4}
 484              		.cfi_def_cfa_offset 4
 485              		.cfi_offset 4, -4
 385:.\Generated_Source\PSoC5/cyfitter_cfg.c **** 	{
 386:.\Generated_Source\PSoC5/cyfitter_cfg.c **** 		channel += channel;
 486              		.loc 1 386 0
 487 0006 4000     		lsls	r0, r0, #1
ARM GAS  C:\Users\YongY\AppData\Local\Temp\cchW9XSi.s 			page 17


 488 0008 C0B2     		uxtb	r0, r0
 387:.\Generated_Source\PSoC5/cyfitter_cfg.c **** 		*AMux_1__addrTable[channel] &= (uint8)~AMux_1__maskTable[channel];
 489              		.loc 1 387 0
 490 000a 0B4B     		ldr	r3, .L41
 491 000c 53F82010 		ldr	r1, [r3, r0, lsl #2]
 492 0010 1A18     		adds	r2, r3, r0
 493 0012 147E     		ldrb	r4, [r2, #24]	@ zero_extendqisi2
 494 0014 0A78     		ldrb	r2, [r1]	@ zero_extendqisi2
 495 0016 22EA0402 		bic	r2, r2, r4
 496 001a 0A70     		strb	r2, [r1]
 388:.\Generated_Source\PSoC5/cyfitter_cfg.c **** 		channel++;
 497              		.loc 1 388 0
 498 001c 0130     		adds	r0, r0, #1
 499 001e C0B2     		uxtb	r0, r0
 389:.\Generated_Source\PSoC5/cyfitter_cfg.c **** 		*AMux_1__addrTable[channel] &= (uint8)~AMux_1__maskTable[channel];
 500              		.loc 1 389 0
 501 0020 53F82020 		ldr	r2, [r3, r0, lsl #2]
 502 0024 1844     		add	r0, r0, r3
 503 0026 017E     		ldrb	r1, [r0, #24]	@ zero_extendqisi2
 504 0028 1378     		ldrb	r3, [r2]	@ zero_extendqisi2
 505 002a 23EA0103 		bic	r3, r3, r1
 506 002e 1370     		strb	r3, [r2]
 390:.\Generated_Source\PSoC5/cyfitter_cfg.c **** 	}
 391:.\Generated_Source\PSoC5/cyfitter_cfg.c **** }
 507              		.loc 1 391 0
 508 0030 5DF8044B 		ldr	r4, [sp], #4
 509              		.cfi_restore 4
 510              		.cfi_def_cfa_offset 0
 511              	.L40:
 512 0034 7047     		bx	lr
 513              	.L42:
 514 0036 00BF     		.align	2
 515              	.L41:
 516 0038 00000000 		.word	.LANCHOR0
 517              		.cfi_endproc
 518              	.LFE9:
 519              		.size	AMux_1_Unset, .-AMux_1_Unset
 520              		.section	.text.ADC_SOUND_IN_AMux_Set,"ax",%progbits
 521              		.align	2
 522              		.global	ADC_SOUND_IN_AMux_Set
 523              		.thumb
 524              		.thumb_func
 525              		.type	ADC_SOUND_IN_AMux_Set, %function
 526              	ADC_SOUND_IN_AMux_Set:
 527              	.LFB10:
 392:.\Generated_Source\PSoC5/cyfitter_cfg.c **** 
 393:.\Generated_Source\PSoC5/cyfitter_cfg.c **** /* This is an implementation detail of the AMux. Code that depends on it may be
 394:.\Generated_Source\PSoC5/cyfitter_cfg.c ****    incompatible with other versions of PSoC Creator. */
 395:.\Generated_Source\PSoC5/cyfitter_cfg.c **** uint8 CYXDATA * const CYCODE ADC_SOUND_IN_AMux__addrTable[2] = {
 396:.\Generated_Source\PSoC5/cyfitter_cfg.c **** 	(uint8 CYXDATA *)CYREG_DSM0_SW3, 
 397:.\Generated_Source\PSoC5/cyfitter_cfg.c **** 	(uint8 CYXDATA *)CY_AMUX_UNUSED, 
 398:.\Generated_Source\PSoC5/cyfitter_cfg.c **** };
 399:.\Generated_Source\PSoC5/cyfitter_cfg.c **** 
 400:.\Generated_Source\PSoC5/cyfitter_cfg.c **** /* This is an implementation detail of the AMux. Code that depends on it may be
 401:.\Generated_Source\PSoC5/cyfitter_cfg.c ****    incompatible with other versions of PSoC Creator. */
 402:.\Generated_Source\PSoC5/cyfitter_cfg.c **** const uint8 CYCODE ADC_SOUND_IN_AMux__maskTable[2] = {
 403:.\Generated_Source\PSoC5/cyfitter_cfg.c **** 	0x40u, 
ARM GAS  C:\Users\YongY\AppData\Local\Temp\cchW9XSi.s 			page 18


 404:.\Generated_Source\PSoC5/cyfitter_cfg.c **** 	0x00u, 
 405:.\Generated_Source\PSoC5/cyfitter_cfg.c **** };
 406:.\Generated_Source\PSoC5/cyfitter_cfg.c **** 
 407:.\Generated_Source\PSoC5/cyfitter_cfg.c **** /*******************************************************************************
 408:.\Generated_Source\PSoC5/cyfitter_cfg.c **** * Function Name: ADC_SOUND_IN_AMux_Set
 409:.\Generated_Source\PSoC5/cyfitter_cfg.c **** ********************************************************************************
 410:.\Generated_Source\PSoC5/cyfitter_cfg.c **** * Summary:
 411:.\Generated_Source\PSoC5/cyfitter_cfg.c **** *  This function is used to set a particular channel as active on the AMux.
 412:.\Generated_Source\PSoC5/cyfitter_cfg.c **** *
 413:.\Generated_Source\PSoC5/cyfitter_cfg.c **** * Parameters:  
 414:.\Generated_Source\PSoC5/cyfitter_cfg.c **** *   channel - The mux channel input to set as active
 415:.\Generated_Source\PSoC5/cyfitter_cfg.c **** *
 416:.\Generated_Source\PSoC5/cyfitter_cfg.c **** * Return:
 417:.\Generated_Source\PSoC5/cyfitter_cfg.c **** *   void
 418:.\Generated_Source\PSoC5/cyfitter_cfg.c **** *
 419:.\Generated_Source\PSoC5/cyfitter_cfg.c **** *******************************************************************************/
 420:.\Generated_Source\PSoC5/cyfitter_cfg.c **** void ADC_SOUND_IN_AMux_Set(uint8 channel)
 421:.\Generated_Source\PSoC5/cyfitter_cfg.c **** {
 528              		.loc 1 421 0
 529              		.cfi_startproc
 530              		@ args = 0, pretend = 0, frame = 0
 531              		@ frame_needed = 0, uses_anonymous_args = 0
 532              		@ link register save eliminated.
 533              	.LVL32:
 422:.\Generated_Source\PSoC5/cyfitter_cfg.c **** 	if (channel < 2)
 534              		.loc 1 422 0
 535 0000 0128     		cmp	r0, #1
 536 0002 09D8     		bhi	.L43
 423:.\Generated_Source\PSoC5/cyfitter_cfg.c **** 	{
 424:.\Generated_Source\PSoC5/cyfitter_cfg.c **** 		*ADC_SOUND_IN_AMux__addrTable[channel] |= ADC_SOUND_IN_AMux__maskTable[channel];
 537              		.loc 1 424 0
 538 0004 054B     		ldr	r3, .L45
 539 0006 03EB8002 		add	r2, r3, r0, lsl #2
 540 000a 126A     		ldr	r2, [r2, #32]
 541 000c 1844     		add	r0, r0, r3
 542              	.LVL33:
 543 000e 90F82810 		ldrb	r1, [r0, #40]	@ zero_extendqisi2
 544 0012 1378     		ldrb	r3, [r2]	@ zero_extendqisi2
 545 0014 0B43     		orrs	r3, r3, r1
 546 0016 1370     		strb	r3, [r2]
 547              	.L43:
 548 0018 7047     		bx	lr
 549              	.L46:
 550 001a 00BF     		.align	2
 551              	.L45:
 552 001c 00000000 		.word	.LANCHOR0
 553              		.cfi_endproc
 554              	.LFE10:
 555              		.size	ADC_SOUND_IN_AMux_Set, .-ADC_SOUND_IN_AMux_Set
 556              		.section	.text.ADC_SOUND_IN_AMux_Unset,"ax",%progbits
 557              		.align	2
 558              		.global	ADC_SOUND_IN_AMux_Unset
 559              		.thumb
 560              		.thumb_func
 561              		.type	ADC_SOUND_IN_AMux_Unset, %function
 562              	ADC_SOUND_IN_AMux_Unset:
 563              	.LFB11:
ARM GAS  C:\Users\YongY\AppData\Local\Temp\cchW9XSi.s 			page 19


 425:.\Generated_Source\PSoC5/cyfitter_cfg.c **** 	}
 426:.\Generated_Source\PSoC5/cyfitter_cfg.c **** }
 427:.\Generated_Source\PSoC5/cyfitter_cfg.c **** 
 428:.\Generated_Source\PSoC5/cyfitter_cfg.c **** /*******************************************************************************
 429:.\Generated_Source\PSoC5/cyfitter_cfg.c **** * Function Name: ADC_SOUND_IN_AMux_Unset
 430:.\Generated_Source\PSoC5/cyfitter_cfg.c **** ********************************************************************************
 431:.\Generated_Source\PSoC5/cyfitter_cfg.c **** * Summary:
 432:.\Generated_Source\PSoC5/cyfitter_cfg.c **** *  This function is used to clear a particular channel from being active on the
 433:.\Generated_Source\PSoC5/cyfitter_cfg.c **** *  AMux.
 434:.\Generated_Source\PSoC5/cyfitter_cfg.c **** *
 435:.\Generated_Source\PSoC5/cyfitter_cfg.c **** * Parameters:  
 436:.\Generated_Source\PSoC5/cyfitter_cfg.c **** *   channel - The mux channel input to mark inactive
 437:.\Generated_Source\PSoC5/cyfitter_cfg.c **** *
 438:.\Generated_Source\PSoC5/cyfitter_cfg.c **** * Return:
 439:.\Generated_Source\PSoC5/cyfitter_cfg.c **** *   void
 440:.\Generated_Source\PSoC5/cyfitter_cfg.c **** *
 441:.\Generated_Source\PSoC5/cyfitter_cfg.c **** *******************************************************************************/
 442:.\Generated_Source\PSoC5/cyfitter_cfg.c **** void ADC_SOUND_IN_AMux_Unset(uint8 channel)
 443:.\Generated_Source\PSoC5/cyfitter_cfg.c **** {
 564              		.loc 1 443 0
 565              		.cfi_startproc
 566              		@ args = 0, pretend = 0, frame = 0
 567              		@ frame_needed = 0, uses_anonymous_args = 0
 568              		@ link register save eliminated.
 569              	.LVL34:
 444:.\Generated_Source\PSoC5/cyfitter_cfg.c **** 	if (channel < 2)
 570              		.loc 1 444 0
 571 0000 0128     		cmp	r0, #1
 572 0002 0AD8     		bhi	.L47
 445:.\Generated_Source\PSoC5/cyfitter_cfg.c **** 	{
 446:.\Generated_Source\PSoC5/cyfitter_cfg.c **** 		*ADC_SOUND_IN_AMux__addrTable[channel] &= (uint8)~ADC_SOUND_IN_AMux__maskTable[channel];
 573              		.loc 1 446 0
 574 0004 054B     		ldr	r3, .L49
 575 0006 03EB8002 		add	r2, r3, r0, lsl #2
 576 000a 126A     		ldr	r2, [r2, #32]
 577 000c 1844     		add	r0, r0, r3
 578              	.LVL35:
 579 000e 90F82810 		ldrb	r1, [r0, #40]	@ zero_extendqisi2
 580 0012 1378     		ldrb	r3, [r2]	@ zero_extendqisi2
 581 0014 23EA0103 		bic	r3, r3, r1
 582 0018 1370     		strb	r3, [r2]
 583              	.L47:
 584 001a 7047     		bx	lr
 585              	.L50:
 586              		.align	2
 587              	.L49:
 588 001c 00000000 		.word	.LANCHOR0
 589              		.cfi_endproc
 590              	.LFE11:
 591              		.size	ADC_SOUND_IN_AMux_Unset, .-ADC_SOUND_IN_AMux_Unset
 592              		.section	.text.cyfitter_cfg,"ax",%progbits
 593              		.align	2
 594              		.global	cyfitter_cfg
 595              		.thumb
 596              		.thumb_func
 597              		.type	cyfitter_cfg, %function
 598              	cyfitter_cfg:
ARM GAS  C:\Users\YongY\AppData\Local\Temp\cchW9XSi.s 			page 20


 599              	.LFB12:
 447:.\Generated_Source\PSoC5/cyfitter_cfg.c **** 	}
 448:.\Generated_Source\PSoC5/cyfitter_cfg.c **** }
 449:.\Generated_Source\PSoC5/cyfitter_cfg.c **** 
 450:.\Generated_Source\PSoC5/cyfitter_cfg.c **** 
 451:.\Generated_Source\PSoC5/cyfitter_cfg.c **** 
 452:.\Generated_Source\PSoC5/cyfitter_cfg.c **** /*******************************************************************************
 453:.\Generated_Source\PSoC5/cyfitter_cfg.c **** * Function Name: cyfitter_cfg
 454:.\Generated_Source\PSoC5/cyfitter_cfg.c **** ********************************************************************************
 455:.\Generated_Source\PSoC5/cyfitter_cfg.c **** * Summary:
 456:.\Generated_Source\PSoC5/cyfitter_cfg.c **** *  This function is called by the start-up code for the selected device. It
 457:.\Generated_Source\PSoC5/cyfitter_cfg.c **** *  performs all of the necessary device configuration based on the design
 458:.\Generated_Source\PSoC5/cyfitter_cfg.c **** *  settings.  This includes settings from the Design Wide Resources (DWR) such
 459:.\Generated_Source\PSoC5/cyfitter_cfg.c **** *  as Clocks and Pins as well as any component configuration that is necessary.
 460:.\Generated_Source\PSoC5/cyfitter_cfg.c **** *
 461:.\Generated_Source\PSoC5/cyfitter_cfg.c **** * Parameters:  
 462:.\Generated_Source\PSoC5/cyfitter_cfg.c **** *   void
 463:.\Generated_Source\PSoC5/cyfitter_cfg.c **** *
 464:.\Generated_Source\PSoC5/cyfitter_cfg.c **** * Return:
 465:.\Generated_Source\PSoC5/cyfitter_cfg.c **** *   void
 466:.\Generated_Source\PSoC5/cyfitter_cfg.c **** *
 467:.\Generated_Source\PSoC5/cyfitter_cfg.c **** *******************************************************************************/
 468:.\Generated_Source\PSoC5/cyfitter_cfg.c **** 
 469:.\Generated_Source\PSoC5/cyfitter_cfg.c **** void cyfitter_cfg(void)
 470:.\Generated_Source\PSoC5/cyfitter_cfg.c **** {
 600              		.loc 1 470 0
 601              		.cfi_startproc
 602              		@ args = 0, pretend = 0, frame = 0
 603              		@ frame_needed = 0, uses_anonymous_args = 0
 604 0000 70B5     		push	{r4, r5, r6, lr}
 605              		.cfi_def_cfa_offset 16
 606              		.cfi_offset 4, -16
 607              		.cfi_offset 5, -12
 608              		.cfi_offset 6, -8
 609              		.cfi_offset 14, -4
 471:.\Generated_Source\PSoC5/cyfitter_cfg.c **** #ifdef CYGlobalIntDisable
 472:.\Generated_Source\PSoC5/cyfitter_cfg.c **** 	/* Disable interrupts by default. Let user enable if/when they want. */
 473:.\Generated_Source\PSoC5/cyfitter_cfg.c **** 	CYGlobalIntDisable
 610              		.loc 1 473 0
 611              	@ 473 ".\Generated_Source\PSoC5\cyfitter_cfg.c" 1
 612 0002 72B6     		CPSID   i
 613              	@ 0 "" 2
 474:.\Generated_Source\PSoC5/cyfitter_cfg.c **** #endif
 475:.\Generated_Source\PSoC5/cyfitter_cfg.c **** 
 476:.\Generated_Source\PSoC5/cyfitter_cfg.c **** 	/* Enable/Disable Debug functionality based on settings from System DWR */
 477:.\Generated_Source\PSoC5/cyfitter_cfg.c **** 	CY_SET_XTND_REG8((void CYFAR *)CYREG_MLOGIC_DEBUG, (CY_GET_XTND_REG8((void CYFAR *)CYREG_MLOGIC_DE
 614              		.loc 1 477 0
 615              		.thumb
 616 0004 3A4A     		ldr	r2, .L57
 617 0006 1378     		ldrb	r3, [r2]	@ zero_extendqisi2
 618 0008 43F00403 		orr	r3, r3, #4
 619 000c 1370     		strb	r3, [r2]
 620              	.LVL36:
 621              	.LBB3:
 478:.\Generated_Source\PSoC5/cyfitter_cfg.c **** 
 479:.\Generated_Source\PSoC5/cyfitter_cfg.c **** 	{
 480:.\Generated_Source\PSoC5/cyfitter_cfg.c **** 
ARM GAS  C:\Users\YongY\AppData\Local\Temp\cchW9XSi.s 			page 21


 481:.\Generated_Source\PSoC5/cyfitter_cfg.c **** 		CYPACKED typedef struct {
 482:.\Generated_Source\PSoC5/cyfitter_cfg.c **** 			void CYFAR *address;
 483:.\Generated_Source\PSoC5/cyfitter_cfg.c **** 			uint16 size;
 484:.\Generated_Source\PSoC5/cyfitter_cfg.c **** 		} CYPACKED_ATTR cfg_memset_t;
 485:.\Generated_Source\PSoC5/cyfitter_cfg.c **** 
 486:.\Generated_Source\PSoC5/cyfitter_cfg.c **** 
 487:.\Generated_Source\PSoC5/cyfitter_cfg.c **** 		CYPACKED typedef struct {
 488:.\Generated_Source\PSoC5/cyfitter_cfg.c **** 			void CYFAR *dest;
 489:.\Generated_Source\PSoC5/cyfitter_cfg.c **** 			const void CYFAR *src;
 490:.\Generated_Source\PSoC5/cyfitter_cfg.c **** 			uint16 size;
 491:.\Generated_Source\PSoC5/cyfitter_cfg.c **** 		} CYPACKED_ATTR cfg_memcpy_t;
 492:.\Generated_Source\PSoC5/cyfitter_cfg.c **** 
 493:.\Generated_Source\PSoC5/cyfitter_cfg.c **** 		static const cfg_memset_t CYCODE cfg_memset_list [] = {
 494:.\Generated_Source\PSoC5/cyfitter_cfg.c **** 			/* address, size */
 495:.\Generated_Source\PSoC5/cyfitter_cfg.c **** 			{(void CYFAR *)(CYREG_PRT3_DR), 32u},
 496:.\Generated_Source\PSoC5/cyfitter_cfg.c **** 			{(void CYFAR *)(CYREG_PRT12_DR), 16u},
 497:.\Generated_Source\PSoC5/cyfitter_cfg.c **** 			{(void CYFAR *)(CYDEV_UCFG_B0_P0_U0_BASE), 4096u},
 498:.\Generated_Source\PSoC5/cyfitter_cfg.c **** 			{(void CYFAR *)(CYDEV_UCFG_B1_P2_U0_BASE), 1536u},
 499:.\Generated_Source\PSoC5/cyfitter_cfg.c **** 			{(void CYFAR *)(CYDEV_UCFG_B1_P5_U1_BASE), 384u},
 500:.\Generated_Source\PSoC5/cyfitter_cfg.c **** 			{(void CYFAR *)(CYDEV_UCFG_DSI0_BASE), 2560u},
 501:.\Generated_Source\PSoC5/cyfitter_cfg.c **** 			{(void CYFAR *)(CYDEV_UCFG_DSI12_BASE), 512u},
 502:.\Generated_Source\PSoC5/cyfitter_cfg.c **** 			{(void CYFAR *)(CYREG_BCTL0_MDCLK_EN), 32u},
 503:.\Generated_Source\PSoC5/cyfitter_cfg.c **** 		};
 504:.\Generated_Source\PSoC5/cyfitter_cfg.c **** 
 505:.\Generated_Source\PSoC5/cyfitter_cfg.c **** 		static const cfg_memcpy_t CYCODE cfg_memcpy_list [] = {
 506:.\Generated_Source\PSoC5/cyfitter_cfg.c **** 			/* dest, src, size */
 507:.\Generated_Source\PSoC5/cyfitter_cfg.c **** 			{(void CYFAR *)(CYDEV_UCFG_B1_P5_U0_BASE), BS_UDB_0_0_0_CONFIG_VAL, 128u},
 508:.\Generated_Source\PSoC5/cyfitter_cfg.c **** 		};
 509:.\Generated_Source\PSoC5/cyfitter_cfg.c **** 
 510:.\Generated_Source\PSoC5/cyfitter_cfg.c **** 		uint8 CYDATA i;
 511:.\Generated_Source\PSoC5/cyfitter_cfg.c **** 
 512:.\Generated_Source\PSoC5/cyfitter_cfg.c **** 		/* Zero out critical memory blocks before beginning configuration */
 513:.\Generated_Source\PSoC5/cyfitter_cfg.c **** 		for (i = 0u; i < (sizeof(cfg_memset_list)/sizeof(cfg_memset_list[0])); i++)
 622              		.loc 1 513 0
 623 000e 0024     		movs	r4, #0
 624 0010 0AE0     		b	.L52
 625              	.LVL37:
 626              	.L53:
 627              	.LBB4:
 514:.\Generated_Source\PSoC5/cyfitter_cfg.c **** 		{
 515:.\Generated_Source\PSoC5/cyfitter_cfg.c **** 			const cfg_memset_t CYCODE * CYDATA ms = &cfg_memset_list[i];
 516:.\Generated_Source\PSoC5/cyfitter_cfg.c **** 			CYMEMZERO(ms->address, (size_t)(uint32)(ms->size));
 628              		.loc 1 516 0 discriminator 3
 629 0012 3849     		ldr	r1, .L57+4
 630 0014 6300     		lsls	r3, r4, #1
 631 0016 1A19     		adds	r2, r3, r4
 632 0018 5200     		lsls	r2, r2, #1
 633 001a 0A44     		add	r2, r2, r1
 634 001c D06A     		ldr	r0, [r2, #44]	@ unaligned
 635 001e 118E     		ldrh	r1, [r2, #48]
 636 0020 FFF7FEFF 		bl	CYMEMZERO
 637              	.LVL38:
 638              	.LBE4:
 513:.\Generated_Source\PSoC5/cyfitter_cfg.c **** 		{
 639              		.loc 1 513 0 discriminator 3
 640 0024 0134     		adds	r4, r4, #1
 641              	.LVL39:
ARM GAS  C:\Users\YongY\AppData\Local\Temp\cchW9XSi.s 			page 22


 642 0026 E4B2     		uxtb	r4, r4
 643              	.LVL40:
 644              	.L52:
 513:.\Generated_Source\PSoC5/cyfitter_cfg.c **** 		{
 645              		.loc 1 513 0 is_stmt 0 discriminator 1
 646 0028 072C     		cmp	r4, #7
 647 002a F2D9     		bls	.L53
 648 002c 0024     		movs	r4, #0
 649              	.LVL41:
 650 002e 0BE0     		b	.L54
 651              	.LVL42:
 652              	.L55:
 653              	.LBB5:
 517:.\Generated_Source\PSoC5/cyfitter_cfg.c **** 		}
 518:.\Generated_Source\PSoC5/cyfitter_cfg.c **** 
 519:.\Generated_Source\PSoC5/cyfitter_cfg.c **** 		/* Copy device configuration data into registers */
 520:.\Generated_Source\PSoC5/cyfitter_cfg.c **** 		for (i = 0u; i < (sizeof(cfg_memcpy_list)/sizeof(cfg_memcpy_list[0])); i++)
 521:.\Generated_Source\PSoC5/cyfitter_cfg.c **** 		{
 522:.\Generated_Source\PSoC5/cyfitter_cfg.c **** 			const cfg_memcpy_t CYCODE * CYDATA mc = &cfg_memcpy_list[i];
 523:.\Generated_Source\PSoC5/cyfitter_cfg.c **** 			void * CYDATA destPtr = mc->dest;
 654              		.loc 1 523 0 is_stmt 1 discriminator 3
 655 0030 3049     		ldr	r1, .L57+4
 656 0032 A300     		lsls	r3, r4, #2
 657 0034 1A19     		adds	r2, r3, r4
 658 0036 5200     		lsls	r2, r2, #1
 659 0038 0A44     		add	r2, r2, r1
 660              	.LVL43:
 524:.\Generated_Source\PSoC5/cyfitter_cfg.c **** 			const void * CYDATA srcPtr = mc->src;
 525:.\Generated_Source\PSoC5/cyfitter_cfg.c **** 			uint16 CYDATA numBytes = mc->size;
 526:.\Generated_Source\PSoC5/cyfitter_cfg.c **** 			CYCONFIGCPY(destPtr, srcPtr, numBytes);
 661              		.loc 1 526 0 discriminator 3
 662 003a D06D     		ldr	r0, [r2, #92]	@ unaligned
 663              	.LVL44:
 664 003c 116E     		ldr	r1, [r2, #96]	@ unaligned
 665              	.LVL45:
 666 003e 8022     		movs	r2, #128
 667 0040 FFF7FEFF 		bl	CYCONFIGCPY
 668              	.LVL46:
 669              	.LBE5:
 520:.\Generated_Source\PSoC5/cyfitter_cfg.c **** 		{
 670              		.loc 1 520 0 discriminator 3
 671 0044 0134     		adds	r4, r4, #1
 672              	.LVL47:
 673 0046 E4B2     		uxtb	r4, r4
 674              	.LVL48:
 675              	.L54:
 520:.\Generated_Source\PSoC5/cyfitter_cfg.c **** 		{
 676              		.loc 1 520 0 is_stmt 0 discriminator 1
 677 0048 002C     		cmp	r4, #0
 678 004a F1D0     		beq	.L55
 527:.\Generated_Source\PSoC5/cyfitter_cfg.c **** 		}
 528:.\Generated_Source\PSoC5/cyfitter_cfg.c **** 
 529:.\Generated_Source\PSoC5/cyfitter_cfg.c **** 		cfg_write_bytes32(cy_cfg_addr_table, cy_cfg_data_table);
 679              		.loc 1 529 0 is_stmt 1
 680 004c 4FF09040 		mov	r0, #1207959552
 681 0050 2949     		ldr	r1, .L57+8
 682 0052 FFF7FEFF 		bl	cfg_write_bytes32
ARM GAS  C:\Users\YongY\AppData\Local\Temp\cchW9XSi.s 			page 23


 683              	.LVL49:
 530:.\Generated_Source\PSoC5/cyfitter_cfg.c **** 
 531:.\Generated_Source\PSoC5/cyfitter_cfg.c **** 		/* Perform normal device configuration. Order is not critical for these items. */
 532:.\Generated_Source\PSoC5/cyfitter_cfg.c **** 		CY_SET_XTND_REG8((void CYFAR *)(CYREG_DSM0_CR3), 0x0Au);
 684              		.loc 1 532 0
 685 0056 0A24     		movs	r4, #10
 686              	.LVL50:
 687 0058 284B     		ldr	r3, .L57+12
 688 005a 1C70     		strb	r4, [r3]
 533:.\Generated_Source\PSoC5/cyfitter_cfg.c **** 
 534:.\Generated_Source\PSoC5/cyfitter_cfg.c **** 		/* Enable digital routing */
 535:.\Generated_Source\PSoC5/cyfitter_cfg.c **** 		CY_SET_XTND_REG8((void CYFAR *)CYREG_BCTL0_BANK_CTL, CY_GET_XTND_REG8((void CYFAR *)CYREG_BCTL0_B
 689              		.loc 1 535 0
 690 005c 284A     		ldr	r2, .L57+16
 691 005e 1378     		ldrb	r3, [r2]	@ zero_extendqisi2
 692 0060 43F00203 		orr	r3, r3, #2
 693 0064 1370     		strb	r3, [r2]
 536:.\Generated_Source\PSoC5/cyfitter_cfg.c **** 		CY_SET_XTND_REG8((void CYFAR *)CYREG_BCTL1_BANK_CTL, CY_GET_XTND_REG8((void CYFAR *)CYREG_BCTL1_B
 694              		.loc 1 536 0
 695 0066 1032     		adds	r2, r2, #16
 696 0068 1378     		ldrb	r3, [r2]	@ zero_extendqisi2
 697 006a 43F00203 		orr	r3, r3, #2
 698 006e 1370     		strb	r3, [r2]
 537:.\Generated_Source\PSoC5/cyfitter_cfg.c **** 
 538:.\Generated_Source\PSoC5/cyfitter_cfg.c **** 		/* Enable UDB array */
 539:.\Generated_Source\PSoC5/cyfitter_cfg.c **** 		CY_SET_XTND_REG8((void CYFAR *)CYREG_PM_ACT_CFG0, CY_GET_XTND_REG8((void CYFAR *)CYREG_PM_ACT_CFG
 699              		.loc 1 539 0
 700 0070 244D     		ldr	r5, .L57+20
 701 0072 2B78     		ldrb	r3, [r5]	@ zero_extendqisi2
 702 0074 43F04003 		orr	r3, r3, #64
 703 0078 2B70     		strb	r3, [r5]
 540:.\Generated_Source\PSoC5/cyfitter_cfg.c **** 		CY_SET_XTND_REG8((void CYFAR *)CYREG_PM_AVAIL_CR2, CY_GET_XTND_REG8((void CYFAR *)CYREG_PM_AVAIL_
 704              		.loc 1 540 0
 705 007a A2F58632 		sub	r2, r2, #68608
 706 007e 513A     		subs	r2, r2, #81
 707 0080 1378     		ldrb	r3, [r2]	@ zero_extendqisi2
 708 0082 43F01003 		orr	r3, r3, #16
 709 0086 1370     		strb	r3, [r2]
 710              	.LBE3:
 541:.\Generated_Source\PSoC5/cyfitter_cfg.c **** 	}
 542:.\Generated_Source\PSoC5/cyfitter_cfg.c **** 
 543:.\Generated_Source\PSoC5/cyfitter_cfg.c **** 
 544:.\Generated_Source\PSoC5/cyfitter_cfg.c **** 	/* Perform second pass device configuration. These items must be configured in specific order afte
 545:.\Generated_Source\PSoC5/cyfitter_cfg.c **** 	CYCONFIGCPY((void CYFAR *)(CYREG_PRT0_DM0), (const void CYFAR *)(BS_IOPINS0_0_VAL), 8u);
 711              		.loc 1 545 0
 712 0088 1F48     		ldr	r0, .L57+24
 713 008a 2049     		ldr	r1, .L57+28
 714 008c 0822     		movs	r2, #8
 715 008e FFF7FEFF 		bl	CYCONFIGCPY
 716              	.LVL51:
 546:.\Generated_Source\PSoC5/cyfitter_cfg.c **** 	CYCONFIGCPY((void CYFAR *)(CYREG_PRT15_DR), (const void CYFAR *)(BS_IOPINS0_8_VAL), 10u);
 717              		.loc 1 546 0
 718 0092 1F48     		ldr	r0, .L57+32
 719 0094 1F49     		ldr	r1, .L57+36
 720 0096 2246     		mov	r2, r4
 721 0098 FFF7FEFF 		bl	CYCONFIGCPY
 722              	.LVL52:
ARM GAS  C:\Users\YongY\AppData\Local\Temp\cchW9XSi.s 			page 24


 547:.\Generated_Source\PSoC5/cyfitter_cfg.c **** 	CYCONFIGCPY((void CYFAR *)(CYREG_PRT1_DR), (const void CYFAR *)(BS_IOPINS0_1_VAL), 10u);
 723              		.loc 1 547 0
 724 009c 1E48     		ldr	r0, .L57+40
 725 009e 1F49     		ldr	r1, .L57+44
 726 00a0 2246     		mov	r2, r4
 727 00a2 FFF7FEFF 		bl	CYCONFIGCPY
 728              	.LVL53:
 548:.\Generated_Source\PSoC5/cyfitter_cfg.c **** 	CYCONFIGCPY((void CYFAR *)(CYREG_PRT2_DM0), (const void CYFAR *)(BS_IOPINS0_2_VAL), 8u);
 729              		.loc 1 548 0
 730 00a6 1E48     		ldr	r0, .L57+48
 731 00a8 1E49     		ldr	r1, .L57+52
 732 00aa 0822     		movs	r2, #8
 733 00ac FFF7FEFF 		bl	CYCONFIGCPY
 734              	.LVL54:
 549:.\Generated_Source\PSoC5/cyfitter_cfg.c **** 	CYCONFIGCPY((void CYFAR *)(CYREG_PRT5_DM0), (const void CYFAR *)(BS_IOPINS0_5_VAL), 8u);
 735              		.loc 1 549 0
 736 00b0 1D48     		ldr	r0, .L57+56
 737 00b2 1E49     		ldr	r1, .L57+60
 738 00b4 0822     		movs	r2, #8
 739 00b6 FFF7FEFF 		bl	CYCONFIGCPY
 740              	.LVL55:
 550:.\Generated_Source\PSoC5/cyfitter_cfg.c **** 	CYCONFIGCPY((void CYFAR *)(CYREG_PRT6_DR), (const void CYFAR *)(BS_IOPINS0_6_VAL), 10u);
 741              		.loc 1 550 0
 742 00ba 1D48     		ldr	r0, .L57+64
 743 00bc 1D49     		ldr	r1, .L57+68
 744 00be 2246     		mov	r2, r4
 745 00c0 FFF7FEFF 		bl	CYCONFIGCPY
 746              	.LVL56:
 551:.\Generated_Source\PSoC5/cyfitter_cfg.c **** 	/* Switch Boost to the precision bandgap reference from its internal reference */
 552:.\Generated_Source\PSoC5/cyfitter_cfg.c **** 	CY_SET_REG8((void CYXDATA *)CYREG_BOOST_CR2, (CY_GET_REG8((void CYXDATA *)CYREG_BOOST_CR2) | 0x08u
 747              		.loc 1 552 0
 748 00c4 1C4A     		ldr	r2, .L57+72
 749 00c6 1378     		ldrb	r3, [r2]	@ zero_extendqisi2
 750 00c8 43F00803 		orr	r3, r3, #8
 751 00cc 1370     		strb	r3, [r2]
 553:.\Generated_Source\PSoC5/cyfitter_cfg.c **** 
 554:.\Generated_Source\PSoC5/cyfitter_cfg.c **** 	/* Set Flash Cycles based on max possible frequency in case a glitch occurs during ClockSetup(). *
 555:.\Generated_Source\PSoC5/cyfitter_cfg.c **** 	CY_SET_XTND_REG8((void CYFAR *)(CYREG_CACHE_CC_CTL), (((CYDEV_INSTRUCT_CACHE_ENABLED) != 0) ? 0x01
 752              		.loc 1 555 0
 753 00ce 1B4E     		ldr	r6, .L57+76
 754 00d0 0124     		movs	r4, #1
 755 00d2 3470     		strb	r4, [r6]
 556:.\Generated_Source\PSoC5/cyfitter_cfg.c **** 	/* Setup clocks based on selections from Clock DWR */
 557:.\Generated_Source\PSoC5/cyfitter_cfg.c **** 	ClockSetup();
 756              		.loc 1 557 0
 757 00d4 FFF7FEFF 		bl	ClockSetup
 758              	.LVL57:
 558:.\Generated_Source\PSoC5/cyfitter_cfg.c **** 	/* Set Flash Cycles based on newly configured 24.00MHz Bus Clock. */
 559:.\Generated_Source\PSoC5/cyfitter_cfg.c **** 	CY_SET_XTND_REG8((void CYFAR *)(CYREG_CACHE_CC_CTL), (((CYDEV_INSTRUCT_CACHE_ENABLED) != 0) ? 0x81
 759              		.loc 1 559 0
 760 00d8 8123     		movs	r3, #129
 761 00da 3370     		strb	r3, [r6]
 560:.\Generated_Source\PSoC5/cyfitter_cfg.c **** 	CY_SET_XTND_REG8((void CYFAR *)(CYREG_PANTHER_WAITPIPE), 0x01u);
 762              		.loc 1 560 0
 763 00dc 184B     		ldr	r3, .L57+80
 764 00de 1C70     		strb	r4, [r3]
 561:.\Generated_Source\PSoC5/cyfitter_cfg.c **** 
ARM GAS  C:\Users\YongY\AppData\Local\Temp\cchW9XSi.s 			page 25


 562:.\Generated_Source\PSoC5/cyfitter_cfg.c **** 	/* Perform basic analog initialization to defaults */
 563:.\Generated_Source\PSoC5/cyfitter_cfg.c **** 	AnalogSetDefault();
 765              		.loc 1 563 0
 766 00e0 FFF7FEFF 		bl	AnalogSetDefault
 767              	.LVL58:
 564:.\Generated_Source\PSoC5/cyfitter_cfg.c **** 
 565:.\Generated_Source\PSoC5/cyfitter_cfg.c **** 	/* Configure alternate active mode */
 566:.\Generated_Source\PSoC5/cyfitter_cfg.c **** 	CYCONFIGCPY((void CYFAR *)CYDEV_PM_STBY_BASE, (const void CYFAR *)CYDEV_PM_ACT_BASE, 14u);
 768              		.loc 1 566 0
 769 00e4 1748     		ldr	r0, .L57+84
 770 00e6 2946     		mov	r1, r5
 771 00e8 0E22     		movs	r2, #14
 772 00ea FFF7FEFF 		bl	CYCONFIGCPY
 773              	.LVL59:
 774 00ee 70BD     		pop	{r4, r5, r6, pc}
 775              	.L58:
 776              		.align	2
 777              	.L57:
 778 00f0 E8460040 		.word	1073759976
 779 00f4 00000000 		.word	.LANCHOR0
 780 00f8 54000048 		.word	1207959636
 781 00fc 83580040 		.word	1073764483
 782 0100 03500140 		.word	1073827843
 783 0104 A0430040 		.word	1073759136
 784 0108 02510040 		.word	1073762562
 785 010c D0020048 		.word	1207960272
 786 0110 F0510040 		.word	1073762800
 787 0114 D8020048 		.word	1207960280
 788 0118 10510040 		.word	1073762576
 789 011c E4020048 		.word	1207960292
 790 0120 22510040 		.word	1073762594
 791 0124 F0020048 		.word	1207960304
 792 0128 52510040 		.word	1073762642
 793 012c F8020048 		.word	1207960312
 794 0130 60510040 		.word	1073762656
 795 0134 00030048 		.word	1207960320
 796 0138 22430040 		.word	1073759010
 797 013c 00480040 		.word	1073760256
 798 0140 04000840 		.word	1074266116
 799 0144 B0430040 		.word	1073759152
 800              		.cfi_endproc
 801              	.LFE12:
 802              		.size	cyfitter_cfg, .-cyfitter_cfg
 803              		.global	ADC_SOUND_IN_AMux__maskTable
 804              		.global	ADC_SOUND_IN_AMux__addrTable
 805              		.global	AMux_1__maskTable
 806              		.global	AMux_1__addrTable
 807              		.section	.rodata
 808              		.align	2
 809              		.set	.LANCHOR0,. + 0
 810              		.type	AMux_1__addrTable, %object
 811              		.size	AMux_1__addrTable, 24
 812              	AMux_1__addrTable:
 813 0000 0D510040 		.word	1073762573
 814 0004 005B0040 		.word	1073765120
 815 0008 0D510040 		.word	1073762573
 816 000c 005B0040 		.word	1073765120
ARM GAS  C:\Users\YongY\AppData\Local\Temp\cchW9XSi.s 			page 26


 817 0010 0D510040 		.word	1073762573
 818 0014 005B0040 		.word	1073765120
 819              		.type	AMux_1__maskTable, %object
 820              		.size	AMux_1__maskTable, 6
 821              	AMux_1__maskTable:
 822 0018 01       		.byte	1
 823 0019 10       		.byte	16
 824 001a 04       		.byte	4
 825 001b 40       		.byte	64
 826 001c 08       		.byte	8
 827 001d 80       		.byte	-128
 828 001e 0000     		.space	2
 829              		.type	ADC_SOUND_IN_AMux__addrTable, %object
 830              		.size	ADC_SOUND_IN_AMux__addrTable, 8
 831              	ADC_SOUND_IN_AMux__addrTable:
 832 0020 035B0040 		.word	1073765123
 833 0024 24430040 		.word	1073759012
 834              		.type	ADC_SOUND_IN_AMux__maskTable, %object
 835              		.size	ADC_SOUND_IN_AMux__maskTable, 2
 836              	ADC_SOUND_IN_AMux__maskTable:
 837 0028 40       		.byte	64
 838 0029 00       		.byte	0
 839 002a 0000     		.space	2
 840              		.type	cfg_memset_list.4913, %object
 841              		.size	cfg_memset_list.4913, 48
 842              	cfg_memset_list.4913:
 843 002c 30510040 		.word	1073762608
 844 0030 2000     		.short	32
 845 0032 C0510040 		.4byte	1073762752
 846 0036 1000     		.short	16
 847 0038 00000140 		.word	1073807360
 848 003c 0010     		.short	4096
 849 003e 00140140 		.4byte	1073812480
 850 0042 0006     		.short	1536
 851 0044 801A0140 		.word	1073814144
 852 0048 8001     		.short	384
 853 004a 00400140 		.4byte	1073823744
 854 004e 000A     		.short	2560
 855 0050 004C0140 		.word	1073826816
 856 0054 0002     		.short	512
 857 0056 00500140 		.4byte	1073827840
 858 005a 2000     		.short	32
 859              		.type	cfg_memcpy_list.4914, %object
 860              		.size	cfg_memcpy_list.4914, 10
 861              	cfg_memcpy_list.4914:
 862 005c 001A0140 		.word	1073814016
 863 0060 50020048 		.word	1207960144
 864 0064 8000     		.short	128
 865 0066 0000     		.text
 866              	.Letext0:
 867              		.file 2 "c:\\program files (x86)\\cypress\\psoc creator\\3.3\\psoc creator\\import\\gnu\\arm\\4.9.
 868              		.file 3 ".\\Generated_Source\\PSoC5\\cytypes.h"
 869              		.file 4 ".\\Generated_Source\\PSoC5\\CyLib.h"