ARM GAS  C:\Users\YongY\AppData\Local\Temp\ccT4dZiv.s 			page 1


   1              		.syntax unified
   2              		.cpu cortex-m3
   3              		.fpu softvfp
   4              		.eabi_attribute 20, 1
   5              		.eabi_attribute 21, 1
   6              		.eabi_attribute 23, 3
   7              		.eabi_attribute 24, 1
   8              		.eabi_attribute 25, 1
   9              		.eabi_attribute 26, 1
  10              		.eabi_attribute 30, 1
  11              		.eabi_attribute 34, 1
  12              		.eabi_attribute 18, 4
  13              		.thumb
  14              		.file	"main.c"
  15              		.text
  16              	.Ltext0:
  17              		.cfi_sections	.debug_frame
  18              		.section	.text.InitProject,"ax",%progbits
  19              		.align	2
  20              		.global	InitProject
  21              		.thumb
  22              		.thumb_func
  23              		.type	InitProject, %function
  24              	InitProject:
  25              	.LFB64:
  26              		.file 1 ".\\main.c"
   1:.\main.c      **** /* ========================================
   2:.\main.c      ****  *
   3:.\main.c      ****  * Copyright YOUR COMPANY, THE YEAR
   4:.\main.c      ****  * All Rights Reserved
   5:.\main.c      ****  * UNPUBLISHED, LICENSED SOFTWARE.
   6:.\main.c      ****  *
   7:.\main.c      ****  * CONFIDENTIAL AND PROPRIETARY INFORMATION
   8:.\main.c      ****  * WHICH IS THE PROPERTY OF your company.
   9:.\main.c      ****  *
  10:.\main.c      ****  * ========================================
  11:.\main.c      **** */
  12:.\main.c      **** #include <project.h>
  13:.\main.c      **** #include "GUI.h"
  14:.\main.c      **** #include "tft.h"
  15:.\main.c      **** 
  16:.\main.c      **** void InitProject(void);
  17:.\main.c      **** 
  18:.\main.c      **** int main()
  19:.\main.c      **** {         
  20:.\main.c      ****     InitProject();                             // all of the emWin exmples use MainTask() as the en
  21:.\main.c      ****     unsigned char lcd_position = 0;             // start LCD position and incremtn later
  22:.\main.c      ****     int songStored[100];                        // initialize an empty display array
  23:.\main.c      ****     uint16 adcResult = 0;
  24:.\main.c      ****     for(;;) {
  25:.\main.c      ****     
  26:.\main.c      ****         // ADC 
  27:.\main.c      ****         AMux_1_Select(0); // Select the Sound Input     
  28:.\main.c      ****         if( ADC_SOUND_IN_IsEndConversion(ADC_SOUND_IN_WAIT_FOR_RESULT) ) // Makes sure that convers
  29:.\main.c      ****         {
  30:.\main.c      ****             LCD_Char_1_Position(0, lcd_position);
  31:.\main.c      ****             LCD_Char_1_ClearDisplay();
ARM GAS  C:\Users\YongY\AppData\Local\Temp\ccT4dZiv.s 			page 2


  32:.\main.c      ****             adcResult = ADC_SOUND_IN_GetResult16();		// read the adc and assign the value adcResult
  33:.\main.c      ****         if (adcResult & 0x8000)
  34:.\main.c      ****         {
  35:.\main.c      ****             adcResult = 0;       // ignore negative ADC results
  36:.\main.c      ****         }
  37:.\main.c      ****         else if (adcResult >= 0xfff)
  38:.\main.c      ****         {
  39:.\main.c      ****             adcResult = 0xfff;      // ignore high ADC results
  40:.\main.c      ****         }
  41:.\main.c      ****             LCD_Char_1_PrintNumber(adcResult); // Able to print 0 through A on LCD
  42:.\main.c      ****             CyDelay(100);
  43:.\main.c      ****         }
  44:.\main.c      ****         // IF DAW BTN
  45:.\main.c      ****         if (BTN_LEARN_Read() == 0) {
  46:.\main.c      ****             LED_RED_Write(1);
  47:.\main.c      ****             LED_YELLOW_Write(1);
  48:.\main.c      ****             LED_GREEN_Write(1);
  49:.\main.c      ****             
  50:.\main.c      ****             //DAC 
  51:.\main.c      ****             DAC_SOUND_OUT_SetValue(adcResult);
  52:.\main.c      ****             GUI_DispStringAt("DAW MODE", 50, 50);
  53:.\main.c      ****         }
  54:.\main.c      ****         // IF LEARN BTN
  55:.\main.c      ****         if (BTN_DAW_Read() == 0){ //When switch 2 is pressed 
  56:.\main.c      ****             LED_RED_Write(0);
  57:.\main.c      ****             LED_YELLOW_Write(0);
  58:.\main.c      ****             LED_GREEN_Write(0);
  59:.\main.c      ****             GUI_DispStringAt("LEARN MODE", 50, 50);
  60:.\main.c      ****         }
  61:.\main.c      ****         // DISPLAYING A SONG 
  62:.\main.c      ****         
  63:.\main.c      ****         
  64:.\main.c      ****         // CORRECT AND INCORRECT
  65:.\main.c      ****         
  66:.\main.c      ****         // RECORDING AND PLAYING
  67:.\main.c      ****     
  68:.\main.c      ****     }
  69:.\main.c      **** }
  70:.\main.c      **** 
  71:.\main.c      **** void InitProject()
  72:.\main.c      **** {
  27              		.loc 1 72 0
  28              		.cfi_startproc
  29              		@ args = 0, pretend = 0, frame = 0
  30              		@ frame_needed = 0, uses_anonymous_args = 0
  31 0000 08B5     		push	{r3, lr}
  32              		.cfi_def_cfa_offset 8
  33              		.cfi_offset 3, -8
  34              		.cfi_offset 14, -4
  73:.\main.c      ****     CyGlobalIntEnable;                      // Enable global interrupts
  35              		.loc 1 73 0
  36              	@ 73 ".\main.c" 1
  37 0002 62B6     		CPSIE   i
  38              	@ 0 "" 2
  74:.\main.c      ****     SPIM_1_Start();                         // initialize SPIM component 
  39              		.loc 1 74 0
  40              		.thumb
ARM GAS  C:\Users\YongY\AppData\Local\Temp\ccT4dZiv.s 			page 3


  41 0004 FFF7FEFF 		bl	SPIM_1_Start
  42              	.LVL0:
  75:.\main.c      ****     GUI_Init();                             // initilize graphics library
  43              		.loc 1 75 0
  44 0008 FFF7FEFF 		bl	GUI_Init
  45              	.LVL1:
  76:.\main.c      ****     GUI_Clear();
  46              		.loc 1 76 0
  47 000c FFF7FEFF 		bl	GUI_Clear
  48              	.LVL2:
  77:.\main.c      ****     GUI_SetFont(&GUI_Font8x16);
  49              		.loc 1 77 0
  50 0010 0848     		ldr	r0, .L3
  51 0012 FFF7FEFF 		bl	GUI_SetFont
  52              	.LVL3:
  78:.\main.c      ****     
  79:.\main.c      ****     LCD_Char_1_Start();					// initialize lcd
  53              		.loc 1 79 0
  54 0016 FFF7FEFF 		bl	LCD_Char_1_Start
  55              	.LVL4:
  80:.\main.c      **** 	LCD_Char_1_ClearDisplay();
  56              		.loc 1 80 0
  57 001a 0120     		movs	r0, #1
  58 001c FFF7FEFF 		bl	LCD_Char_1_WriteControl
  59              	.LVL5:
  81:.\main.c      **** 	ADC_SOUND_IN_Start();				// strt the ADC_SOUND_IN
  60              		.loc 1 81 0
  61 0020 FFF7FEFF 		bl	ADC_SOUND_IN_Start
  62              	.LVL6:
  82:.\main.c      **** 	ADC_SOUND_IN_StartConvert();		// start the ADC_SOUND_IN conversion
  63              		.loc 1 82 0
  64 0024 FFF7FEFF 		bl	ADC_SOUND_IN_StartConvert
  65              	.LVL7:
  83:.\main.c      ****     AMux_1_Start();                     // Start the MUX 
  66              		.loc 1 83 0
  67 0028 FFF7FEFF 		bl	AMux_1_Start
  68              	.LVL8:
  84:.\main.c      ****     DAC_SOUND_OUT_Start();  // starts DAC and calls enable()
  69              		.loc 1 84 0
  70 002c FFF7FEFF 		bl	DAC_SOUND_OUT_Start
  71              	.LVL9:
  72 0030 08BD     		pop	{r3, pc}
  73              	.L4:
  74 0032 00BF     		.align	2
  75              	.L3:
  76 0034 00000000 		.word	GUI_Font8x16
  77              		.cfi_endproc
  78              	.LFE64:
  79              		.size	InitProject, .-InitProject
  80              		.section	.text.main,"ax",%progbits
  81              		.align	2
  82              		.global	main
  83              		.thumb
  84              		.thumb_func
  85              		.type	main, %function
  86              	main:
  87              	.LFB63:
ARM GAS  C:\Users\YongY\AppData\Local\Temp\ccT4dZiv.s 			page 4


  19:.\main.c      ****     InitProject();                             // all of the emWin exmples use MainTask() as the en
  88              		.loc 1 19 0
  89              		.cfi_startproc
  90              		@ args = 0, pretend = 0, frame = 0
  91              		@ frame_needed = 0, uses_anonymous_args = 0
  92 0000 10B5     		push	{r4, lr}
  93              		.cfi_def_cfa_offset 8
  94              		.cfi_offset 4, -8
  95              		.cfi_offset 14, -4
  20:.\main.c      ****     unsigned char lcd_position = 0;             // start LCD position and incremtn later
  96              		.loc 1 20 0
  97 0002 FFF7FEFF 		bl	InitProject
  98              	.LVL10:
  23:.\main.c      ****     for(;;) {
  99              		.loc 1 23 0
 100 0006 0024     		movs	r4, #0
 101              	.LVL11:
 102              	.L6:
  27:.\main.c      ****         if( ADC_SOUND_IN_IsEndConversion(ADC_SOUND_IN_WAIT_FOR_RESULT) ) // Makes sure that convers
 103              		.loc 1 27 0
 104 0008 0020     		movs	r0, #0
 105 000a FFF7FEFF 		bl	AMux_1_Select
 106              	.LVL12:
  28:.\main.c      ****         {
 107              		.loc 1 28 0
 108 000e 0020     		movs	r0, #0
 109 0010 FFF7FEFF 		bl	ADC_SOUND_IN_IsEndConversion
 110              	.LVL13:
 111 0014 D0B1     		cbz	r0, .L7
  30:.\main.c      ****             LCD_Char_1_ClearDisplay();
 112              		.loc 1 30 0
 113 0016 0020     		movs	r0, #0
 114 0018 0146     		mov	r1, r0
 115 001a FFF7FEFF 		bl	LCD_Char_1_Position
 116              	.LVL14:
  31:.\main.c      ****             adcResult = ADC_SOUND_IN_GetResult16();		// read the adc and assign the value adcResult
 117              		.loc 1 31 0
 118 001e 0120     		movs	r0, #1
 119 0020 FFF7FEFF 		bl	LCD_Char_1_WriteControl
 120              	.LVL15:
  32:.\main.c      ****         if (adcResult & 0x8000)
 121              		.loc 1 32 0
 122 0024 FFF7FEFF 		bl	ADC_SOUND_IN_GetResult16
 123              	.LVL16:
 124 0028 84B2     		uxth	r4, r0
 125              	.LVL17:
  33:.\main.c      ****         {
 126              		.loc 1 33 0
 127 002a 0028     		cmp	r0, #0
 128 002c 04DB     		blt	.L11
  37:.\main.c      ****         {
 129              		.loc 1 37 0
 130 002e 40F6FE73 		movw	r3, #4094
 131 0032 9C42     		cmp	r4, r3
 132 0034 02D8     		bhi	.L12
 133 0036 03E0     		b	.L8
 134              	.L11:
ARM GAS  C:\Users\YongY\AppData\Local\Temp\ccT4dZiv.s 			page 5


  35:.\main.c      ****         }
 135              		.loc 1 35 0
 136 0038 0024     		movs	r4, #0
 137              	.LVL18:
 138 003a 01E0     		b	.L8
 139              	.LVL19:
 140              	.L12:
  39:.\main.c      ****         }
 141              		.loc 1 39 0
 142 003c 40F6FF74 		movw	r4, #4095
 143              	.LVL20:
 144              	.L8:
  41:.\main.c      ****             CyDelay(100);
 145              		.loc 1 41 0
 146 0040 2046     		mov	r0, r4
 147 0042 FFF7FEFF 		bl	LCD_Char_1_PrintU32Number
 148              	.LVL21:
  42:.\main.c      ****         }
 149              		.loc 1 42 0
 150 0046 6420     		movs	r0, #100
 151 0048 FFF7FEFF 		bl	CyDelay
 152              	.LVL22:
 153              	.L7:
  45:.\main.c      ****             LED_RED_Write(1);
 154              		.loc 1 45 0
 155 004c FFF7FEFF 		bl	BTN_LEARN_Read
 156              	.LVL23:
 157 0050 80B9     		cbnz	r0, .L9
  46:.\main.c      ****             LED_YELLOW_Write(1);
 158              		.loc 1 46 0
 159 0052 0120     		movs	r0, #1
 160 0054 FFF7FEFF 		bl	LED_RED_Write
 161              	.LVL24:
  47:.\main.c      ****             LED_GREEN_Write(1);
 162              		.loc 1 47 0
 163 0058 0120     		movs	r0, #1
 164 005a FFF7FEFF 		bl	LED_YELLOW_Write
 165              	.LVL25:
  48:.\main.c      ****             
 166              		.loc 1 48 0
 167 005e 0120     		movs	r0, #1
 168 0060 FFF7FEFF 		bl	LED_GREEN_Write
 169              	.LVL26:
  51:.\main.c      ****             GUI_DispStringAt("DAW MODE", 50, 50);
 170              		.loc 1 51 0
 171 0064 E0B2     		uxtb	r0, r4
 172 0066 FFF7FEFF 		bl	DAC_SOUND_OUT_SetValue
 173              	.LVL27:
  52:.\main.c      ****         }
 174              		.loc 1 52 0
 175 006a 0B48     		ldr	r0, .L14
 176 006c 3221     		movs	r1, #50
 177 006e 0A46     		mov	r2, r1
 178 0070 FFF7FEFF 		bl	GUI_DispStringAt
 179              	.LVL28:
 180              	.L9:
  55:.\main.c      ****             LED_RED_Write(0);
ARM GAS  C:\Users\YongY\AppData\Local\Temp\ccT4dZiv.s 			page 6


 181              		.loc 1 55 0
 182 0074 FFF7FEFF 		bl	BTN_DAW_Read
 183              	.LVL29:
 184 0078 0028     		cmp	r0, #0
 185 007a C5D1     		bne	.L6
  56:.\main.c      ****             LED_YELLOW_Write(0);
 186              		.loc 1 56 0
 187 007c FFF7FEFF 		bl	LED_RED_Write
 188              	.LVL30:
  57:.\main.c      ****             LED_GREEN_Write(0);
 189              		.loc 1 57 0
 190 0080 0020     		movs	r0, #0
 191 0082 FFF7FEFF 		bl	LED_YELLOW_Write
 192              	.LVL31:
  58:.\main.c      ****             GUI_DispStringAt("LEARN MODE", 50, 50);
 193              		.loc 1 58 0
 194 0086 0020     		movs	r0, #0
 195 0088 FFF7FEFF 		bl	LED_GREEN_Write
 196              	.LVL32:
  59:.\main.c      ****         }
 197              		.loc 1 59 0
 198 008c 0348     		ldr	r0, .L14+4
 199 008e 3221     		movs	r1, #50
 200 0090 0A46     		mov	r2, r1
 201 0092 FFF7FEFF 		bl	GUI_DispStringAt
 202              	.LVL33:
 203 0096 B7E7     		b	.L6
 204              	.L15:
 205              		.align	2
 206              	.L14:
 207 0098 00000000 		.word	.LC0
 208 009c 0C000000 		.word	.LC1
 209              		.cfi_endproc
 210              	.LFE63:
 211              		.size	main, .-main
 212              		.section	.rodata.str1.4,"aMS",%progbits,1
 213              		.align	2
 214              	.LC0:
 215 0000 44415720 		.ascii	"DAW MODE\000"
 215      4D4F4445 
 215      00
 216 0009 000000   		.space	3
 217              	.LC1:
 218 000c 4C454152 		.ascii	"LEARN MODE\000"
 218      4E204D4F 
 218      444500
 219 0017 00       		.text
 220              	.Letext0:
 221              		.file 2 "c:\\program files (x86)\\cypress\\psoc creator\\3.3\\psoc creator\\import\\gnu\\arm\\4.9.
 222              		.file 3 "c:\\program files (x86)\\cypress\\psoc creator\\3.3\\psoc creator\\import\\gnu\\arm\\4.9.
 223              		.file 4 "Generated_Source\\PSoC5/cytypes.h"
 224              		.file 5 "..\\..\\emWinGraphics_v5_46\\Code\\Include\\PSoC4_5/GUI_Type.h"
 225              		.file 6 "Generated_Source\\PSoC5/core_cm3.h"
 226              		.file 7 "..\\..\\emWinGraphics_v5_46\\Code\\Include\\PSoC4_5/GUI.h"
 227              		.file 8 "Generated_Source\\PSoC5/SPIM_1.h"
 228              		.file 9 "Generated_Source\\PSoC5/LCD_Char_1.h"
 229              		.file 10 "Generated_Source\\PSoC5/ADC_SOUND_IN.h"
ARM GAS  C:\Users\YongY\AppData\Local\Temp\ccT4dZiv.s 			page 7


 230              		.file 11 "Generated_Source\\PSoC5/AMux_1.h"
 231              		.file 12 "Generated_Source\\PSoC5/DAC_SOUND_OUT.h"
 232              		.file 13 "Generated_Source\\PSoC5/CyLib.h"
 233              		.file 14 "Generated_Source\\PSoC5/BTN_LEARN.h"
 234              		.file 15 "Generated_Source\\PSoC5/LED_RED.h"
 235              		.file 16 "Generated_Source\\PSoC5/LED_YELLOW.h"
 236              		.file 17 "Generated_Source\\PSoC5/LED_GREEN.h"
 237              		.file 18 "Generated_Source\\PSoC5/BTN_DAW.h"