ARM GAS  C:\Users\YongY\AppData\Local\Temp\ccMg0WFL.s 			page 1


   1              		.syntax unified
   2              		.cpu cortex-m3
   3              		.fpu softvfp
   4              		.eabi_attribute 20, 1
   5              		.eabi_attribute 21, 1
   6              		.eabi_attribute 23, 3
   7              		.eabi_attribute 24, 1
   8              		.eabi_attribute 25, 1
   9              		.eabi_attribute 26, 1
  10              		.eabi_attribute 30, 1
  11              		.eabi_attribute 34, 1
  12              		.eabi_attribute 18, 4
  13              		.thumb
  14              		.file	"tft.c"
  15              		.text
  16              	.Ltext0:
  17              		.cfi_sections	.debug_frame
  18              		.section	.text.write8_a0,"ax",%progbits
  19              		.align	2
  20              		.global	write8_a0
  21              		.thumb
  22              		.thumb_func
  23              		.type	write8_a0, %function
  24              	write8_a0:
  25              	.LFB63:
  26              		.file 1 ".\\tft.c"
   1:.\tft.c       **** /* ========================================
   2:.\tft.c       ****  *
   3:.\tft.c       ****  * Copyright YOUR COMPANY, THE YEAR
   4:.\tft.c       ****  * All Rights Reserved
   5:.\tft.c       ****  * UNPUBLISHED, LICENSED SOFTWARE.
   6:.\tft.c       ****  *
   7:.\tft.c       ****  * CONFIDENTIAL AND PROPRIETARY INFORMATION
   8:.\tft.c       ****  * WHICH IS THE PROPERTY OF your company.
   9:.\tft.c       ****  *
  10:.\tft.c       ****  * ========================================
  11:.\tft.c       **** */
  12:.\tft.c       **** #include "tft.h"
  13:.\tft.c       **** 
  14:.\tft.c       **** //==============================================================
  15:.\tft.c       **** // write8_a0()
  16:.\tft.c       **** // writes an 8-bit value to the TFT with the D/C line low
  17:.\tft.c       **** //
  18:.\tft.c       **** // Arguments:
  19:.\tft.c       **** //      data - 8-bit value
  20:.\tft.c       **** //==============================================================
  21:.\tft.c       **** void write8_a0(uint8 data)
  22:.\tft.c       **** {
  27              		.loc 1 22 0
  28              		.cfi_startproc
  29              		@ args = 0, pretend = 0, frame = 0
  30              		@ frame_needed = 0, uses_anonymous_args = 0
  31              	.LVL0:
  32 0000 10B5     		push	{r4, lr}
  33              		.cfi_def_cfa_offset 8
  34              		.cfi_offset 4, -8
  35              		.cfi_offset 14, -4
ARM GAS  C:\Users\YongY\AppData\Local\Temp\ccMg0WFL.s 			page 2


  36 0002 0446     		mov	r4, r0
  23:.\tft.c       **** 	TFT_DC_Write(0x00); 						        // set DC line low
  37              		.loc 1 23 0
  38 0004 0020     		movs	r0, #0
  39              	.LVL1:
  40 0006 FFF7FEFF 		bl	TFT_DC_Write
  41              	.LVL2:
  24:.\tft.c       ****     SPIM_1_WriteTxData(data);         		        // send data to transmit buffer
  42              		.loc 1 24 0
  43 000a 2046     		mov	r0, r4
  44 000c FFF7FEFF 		bl	SPIM_1_WriteTxData
  45              	.LVL3:
  46              	.L2:
  25:.\tft.c       ****     while (!(SPIM_1_ReadTxStatus() & 0x01)){};	    // wait for data to be sent
  47              		.loc 1 25 0 discriminator 1
  48 0010 FFF7FEFF 		bl	SPIM_1_ReadTxStatus
  49              	.LVL4:
  50 0014 10F0010F 		tst	r0, #1
  51 0018 FAD0     		beq	.L2
  26:.\tft.c       **** }
  52              		.loc 1 26 0
  53 001a 10BD     		pop	{r4, pc}
  54              		.cfi_endproc
  55              	.LFE63:
  56              		.size	write8_a0, .-write8_a0
  57              		.section	.text.write8_a1,"ax",%progbits
  58              		.align	2
  59              		.global	write8_a1
  60              		.thumb
  61              		.thumb_func
  62              		.type	write8_a1, %function
  63              	write8_a1:
  64              	.LFB64:
  27:.\tft.c       **** 
  28:.\tft.c       **** //==============================================================
  29:.\tft.c       **** // write8_a1()
  30:.\tft.c       **** // writes an 8-bit value to the TFT with the D/C line high
  31:.\tft.c       **** //
  32:.\tft.c       **** // Arguments:
  33:.\tft.c       **** //      data - 8-bit value
  34:.\tft.c       **** //==============================================================
  35:.\tft.c       **** void write8_a1(uint8 data)
  36:.\tft.c       **** {
  65              		.loc 1 36 0
  66              		.cfi_startproc
  67              		@ args = 0, pretend = 0, frame = 0
  68              		@ frame_needed = 0, uses_anonymous_args = 0
  69              	.LVL5:
  70 0000 10B5     		push	{r4, lr}
  71              		.cfi_def_cfa_offset 8
  72              		.cfi_offset 4, -8
  73              		.cfi_offset 14, -4
  74 0002 0446     		mov	r4, r0
  37:.\tft.c       **** 	TFT_DC_Write(0x01); 						        // set DC line high
  75              		.loc 1 37 0
  76 0004 0120     		movs	r0, #1
  77              	.LVL6:
ARM GAS  C:\Users\YongY\AppData\Local\Temp\ccMg0WFL.s 			page 3


  78 0006 FFF7FEFF 		bl	TFT_DC_Write
  79              	.LVL7:
  38:.\tft.c       ****     SPIM_1_WriteTxData(data);                       // send data to transmit buffer
  80              		.loc 1 38 0
  81 000a 2046     		mov	r0, r4
  82 000c FFF7FEFF 		bl	SPIM_1_WriteTxData
  83              	.LVL8:
  84              	.L5:
  39:.\tft.c       ****     while (!(SPIM_1_ReadTxStatus() & 0x01)){};	    // wait for data to be sent
  85              		.loc 1 39 0 discriminator 1
  86 0010 FFF7FEFF 		bl	SPIM_1_ReadTxStatus
  87              	.LVL9:
  88 0014 10F0010F 		tst	r0, #1
  89 0018 FAD0     		beq	.L5
  40:.\tft.c       **** }
  90              		.loc 1 40 0
  91 001a 10BD     		pop	{r4, pc}
  92              		.cfi_endproc
  93              	.LFE64:
  94              		.size	write8_a1, .-write8_a1
  95              		.section	.text.writeM8_a1,"ax",%progbits
  96              		.align	2
  97              		.global	writeM8_a1
  98              		.thumb
  99              		.thumb_func
 100              		.type	writeM8_a1, %function
 101              	writeM8_a1:
 102              	.LFB65:
  41:.\tft.c       **** 
  42:.\tft.c       **** //==============================================================
  43:.\tft.c       **** // writeM8_a1()
  44:.\tft.c       **** // writes multiple bytes to the TFT with the D/C line high
  45:.\tft.c       **** //
  46:.\tft.c       **** // Arguments:
  47:.\tft.c       **** //      pData - pointer to an array of 8-bit data values
  48:.\tft.c       **** //      N - the size of the array *pData
  49:.\tft.c       **** //==============================================================
  50:.\tft.c       **** void writeM8_a1(uint8 *pData, int N)
  51:.\tft.c       **** {
 103              		.loc 1 51 0
 104              		.cfi_startproc
 105              		@ args = 0, pretend = 0, frame = 0
 106              		@ frame_needed = 0, uses_anonymous_args = 0
 107              	.LVL10:
 108 0000 70B5     		push	{r4, r5, r6, lr}
 109              		.cfi_def_cfa_offset 16
 110              		.cfi_offset 4, -16
 111              		.cfi_offset 5, -12
 112              		.cfi_offset 6, -8
 113              		.cfi_offset 14, -4
 114 0002 0646     		mov	r6, r0
 115 0004 0D46     		mov	r5, r1
  52:.\tft.c       **** 	TFT_DC_Write(0x01); 						        // set DC line high
 116              		.loc 1 52 0
 117 0006 0120     		movs	r0, #1
 118              	.LVL11:
 119 0008 FFF7FEFF 		bl	TFT_DC_Write
ARM GAS  C:\Users\YongY\AppData\Local\Temp\ccMg0WFL.s 			page 4


 120              	.LVL12:
  53:.\tft.c       ****     int i;
  54:.\tft.c       ****     for (i=0; i<N; i++)
 121              		.loc 1 54 0
 122 000c 0024     		movs	r4, #0
 123 000e 08E0     		b	.L8
 124              	.LVL13:
 125              	.L10:
  55:.\tft.c       ****     {
  56:.\tft.c       ****         SPIM_1_WriteTxData(pData[i]);               // send data to transmit buffer
 126              		.loc 1 56 0
 127 0010 305D     		ldrb	r0, [r6, r4]	@ zero_extendqisi2
 128 0012 FFF7FEFF 		bl	SPIM_1_WriteTxData
 129              	.LVL14:
 130              	.L9:
  57:.\tft.c       ****         while (!(SPIM_1_ReadTxStatus() & 0x01)){};  // wait for data to be sent
 131              		.loc 1 57 0 discriminator 1
 132 0016 FFF7FEFF 		bl	SPIM_1_ReadTxStatus
 133              	.LVL15:
 134 001a 10F0010F 		tst	r0, #1
 135 001e FAD0     		beq	.L9
  54:.\tft.c       ****     {
 136              		.loc 1 54 0 discriminator 2
 137 0020 0134     		adds	r4, r4, #1
 138              	.LVL16:
 139              	.L8:
  54:.\tft.c       ****     {
 140              		.loc 1 54 0 is_stmt 0 discriminator 1
 141 0022 AC42     		cmp	r4, r5
 142 0024 F4DB     		blt	.L10
  58:.\tft.c       ****     }
  59:.\tft.c       **** }
 143              		.loc 1 59 0 is_stmt 1
 144 0026 70BD     		pop	{r4, r5, r6, pc}
 145              		.cfi_endproc
 146              	.LFE65:
 147              		.size	writeM8_a1, .-writeM8_a1
 148              		.section	.text.read8_a1,"ax",%progbits
 149              		.align	2
 150              		.global	read8_a1
 151              		.thumb
 152              		.thumb_func
 153              		.type	read8_a1, %function
 154              	read8_a1:
 155              	.LFB66:
  60:.\tft.c       **** 
  61:.\tft.c       **** //==============================================================
  62:.\tft.c       **** // read8_a1()
  63:.\tft.c       **** // reads an 8-bit value to the TFT with the D/C line high
  64:.\tft.c       **** //==============================================================
  65:.\tft.c       **** uint8 read8_a1(void)
  66:.\tft.c       **** {
 156              		.loc 1 66 0
 157              		.cfi_startproc
 158              		@ Volatile: function does not return.
 159              		@ args = 0, pretend = 0, frame = 0
 160              		@ frame_needed = 0, uses_anonymous_args = 0
ARM GAS  C:\Users\YongY\AppData\Local\Temp\ccMg0WFL.s 			page 5


 161              		@ link register save eliminated.
 162              	.L13:
  67:.\tft.c       **** 	for (;;) {}                                     // read function not implemented
 163              		.loc 1 67 0 discriminator 1
 164 0000 FEE7     		b	.L13
 165              		.cfi_endproc
 166              	.LFE66:
 167              		.size	read8_a1, .-read8_a1
 168 0002 00BF     		.section	.text.readM8_a1,"ax",%progbits
 169              		.align	2
 170              		.global	readM8_a1
 171              		.thumb
 172              		.thumb_func
 173              		.type	readM8_a1, %function
 174              	readM8_a1:
 175              	.LFB67:
  68:.\tft.c       **** };
  69:.\tft.c       **** 
  70:.\tft.c       **** //==============================================================
  71:.\tft.c       **** // readM8_a1()
  72:.\tft.c       **** // reads multple 8-bit values from the TFT with the D/C line high
  73:.\tft.c       **** //
  74:.\tft.c       **** // Arguments:
  75:.\tft.c       **** //      pData - an array where the read values we be stored
  76:.\tft.c       **** //      N - the number of values that will be read (also size of 
  77:.\tft.c       **** //          the array pData)
  78:.\tft.c       **** //==============================================================
  79:.\tft.c       **** void readM8_a1(uint8 *pData, int N)
  80:.\tft.c       **** {
 176              		.loc 1 80 0
 177              		.cfi_startproc
 178              		@ Volatile: function does not return.
 179              		@ args = 0, pretend = 0, frame = 0
 180              		@ frame_needed = 0, uses_anonymous_args = 0
 181              		@ link register save eliminated.
 182              	.LVL17:
 183              	.L15:
  81:.\tft.c       **** 	for (;;) {}                                     // read function not implemented
 184              		.loc 1 81 0 discriminator 1
 185 0000 FEE7     		b	.L15
 186              		.cfi_endproc
 187              	.LFE67:
 188              		.size	readM8_a1, .-readM8_a1
 189 0002 00BF     		.section	.text.tftStart,"ax",%progbits
 190              		.align	2
 191              		.global	tftStart
 192              		.thumb
 193              		.thumb_func
 194              		.type	tftStart, %function
 195              	tftStart:
 196              	.LFB68:
  82:.\tft.c       **** }
  83:.\tft.c       **** 
  84:.\tft.c       **** //==============================================================
  85:.\tft.c       **** // tftStart()
  86:.\tft.c       **** // this function must be called to initializes the TFT
  87:.\tft.c       **** //==============================================================
ARM GAS  C:\Users\YongY\AppData\Local\Temp\ccMg0WFL.s 			page 6


  88:.\tft.c       **** void tftStart(void)
  89:.\tft.c       **** {
 197              		.loc 1 89 0
 198              		.cfi_startproc
 199              		@ args = 0, pretend = 0, frame = 0
 200              		@ frame_needed = 0, uses_anonymous_args = 0
 201 0000 08B5     		push	{r3, lr}
 202              		.cfi_def_cfa_offset 8
 203              		.cfi_offset 3, -8
 204              		.cfi_offset 14, -4
  90:.\tft.c       ****     write8_a0(0x01);         			// send Software Reset Command (must wait at least 5ms after comman
 205              		.loc 1 90 0
 206 0002 0120     		movs	r0, #1
 207 0004 FFF7FEFF 		bl	write8_a0
 208              	.LVL18:
  91:.\tft.c       ****     CyDelay(10);
 209              		.loc 1 91 0
 210 0008 0A20     		movs	r0, #10
 211 000a FFF7FEFF 		bl	CyDelay
 212              	.LVL19:
  92:.\tft.c       ****     write8_a0(0x36);         			// send Memory Access Control command
 213              		.loc 1 92 0
 214 000e 3620     		movs	r0, #54
 215 0010 FFF7FEFF 		bl	write8_a0
 216              	.LVL20:
  93:.\tft.c       **** 	write8_a1(0x88);
 217              		.loc 1 93 0
 218 0014 8820     		movs	r0, #136
 219 0016 FFF7FEFF 		bl	write8_a1
 220              	.LVL21:
  94:.\tft.c       ****     write8_a0(0x3A);         			// send COLMOD: Pixel Format Set command
 221              		.loc 1 94 0
 222 001a 3A20     		movs	r0, #58
 223 001c FFF7FEFF 		bl	write8_a0
 224              	.LVL22:
  95:.\tft.c       ****     write8_a1(0x55);
 225              		.loc 1 95 0
 226 0020 5520     		movs	r0, #85
 227 0022 FFF7FEFF 		bl	write8_a1
 228              	.LVL23:
  96:.\tft.c       ****     write8_a0(0x11);         			// send Sleep Out command
 229              		.loc 1 96 0
 230 0026 1120     		movs	r0, #17
 231 0028 FFF7FEFF 		bl	write8_a0
 232              	.LVL24:
  97:.\tft.c       ****     write8_a0(0x29);         			// send Display ON command
 233              		.loc 1 97 0
 234 002c 2920     		movs	r0, #41
 235 002e FFF7FEFF 		bl	write8_a0
 236              	.LVL25:
  98:.\tft.c       ****     CyDelay(250);            			// delay to allow all changes to take effect	
 237              		.loc 1 98 0
 238 0032 FA20     		movs	r0, #250
 239 0034 FFF7FEFF 		bl	CyDelay
 240              	.LVL26:
 241 0038 08BD     		pop	{r3, pc}
 242              		.cfi_endproc
ARM GAS  C:\Users\YongY\AppData\Local\Temp\ccMg0WFL.s 			page 7


 243              	.LFE68:
 244              		.size	tftStart, .-tftStart
 245 003a 00BF     		.text
 246              	.Letext0:
 247              		.file 2 "c:\\program files (x86)\\cypress\\psoc creator\\3.3\\psoc creator\\import\\gnu\\arm\\4.9.
 248              		.file 3 "c:\\program files (x86)\\cypress\\psoc creator\\3.3\\psoc creator\\import\\gnu\\arm\\4.9.
 249              		.file 4 "Generated_Source\\PSoC5/cytypes.h"
 250              		.file 5 "Generated_Source\\PSoC5/TFT_DC.h"
 251              		.file 6 "Generated_Source\\PSoC5/SPIM_1.h"
 252              		.file 7 "Generated_Source\\PSoC5/core_cm3.h"
 253              		.file 8 "Generated_Source\\PSoC5/CyLib.h"